
build/imx8mm/release/bl31/bl31.elf:     file format elf64-littleaarch64
build/imx8mm/release/bl31/bl31.elf
architecture: aarch64, flags 0x00000112:
EXEC_P, HAS_SYMS, D_PAGED
start address 0x0000000000920000

Program Header:
    LOAD off    0x0000000000010000 vaddr 0x0000000000920000 paddr 0x0000000000920000 align 2**16
         filesz 0x000000000000a169 memsz 0x0000000000019000 flags rwx
   STACK off    0x0000000000000000 vaddr 0x0000000000000000 paddr 0x0000000000000000 align 2**4
         filesz 0x0000000000000000 memsz 0x0000000000000000 flags rw-
private flags = 0:

Sections:
Idx Name          Size      VMA               LMA               File off  Algn
  0 ro            0000a000  0000000000920000  0000000000920000  00010000  2**11
                  CONTENTS, ALLOC, LOAD, CODE
  1 .data         00000169  000000000092a000  000000000092a000  0001a000  2**3
                  CONTENTS, ALLOC, LOAD, DATA
  2 stacks        00002c00  000000000092a180  000000000092a180  0001a169  2**6
                  ALLOC
  3 .bss          00004200  000000000092cd80  000000000092cd80  0001a169  2**6
                  ALLOC
  4 xlat_table    00008000  0000000000931000  0000000000931000  0001a169  2**12
                  ALLOC
  5 .comment      0000002d  0000000000000000  0000000000000000  0001a169  2**0
                  CONTENTS, READONLY
  6 .debug_frame  00000c60  0000000000000000  0000000000000000  0001a198  2**3
                  CONTENTS, READONLY, DEBUGGING
SYMBOL TABLE:
0000000000920000 l    d  ro	0000000000000000 ro
000000000092a000 l    d  .data	0000000000000000 .data
000000000092a180 l    d  stacks	0000000000000000 stacks
000000000092cd80 l    d  .bss	0000000000000000 .bss
0000000000931000 l    d  xlat_table	0000000000000000 xlat_table
0000000000000000 l    d  .comment	0000000000000000 .comment
0000000000000000 l    d  .debug_frame	0000000000000000 .debug_frame
0000000000000000 l    df *ABS*	0000000000000000 ./build/imx8mm/release/bl31/bl31_entrypoint.o
000000000092001c l       ro	0000000000000000 do_cold_boot
0000000000920074 l       ro	0000000000000000 do_primary_cold_boot
0000000000920110 l       ro	0000000000000000 stm
0000000000000000 l    df *ABS*	0000000000000000 imx8_sip_svc.c
0000000000920238 l     F ro	0000000000000020 plat_svc_setup
0000000000928a30 l     O ro	0000000000000020 __svc_desc_imx_svc
0000000000000000 l    df *ABS*	0000000000000000 misc.c
0000000000000000 l    df *ABS*	0000000000000000 imx8mm_bl31_setup.c
000000000092cd80 l     O .bss	0000000000000058 bl32_image_ep_info
000000000092cdd8 l     O .bss	0000000000000058 bl33_image_ep_info
0000000000000000 l    df *ABS*	0000000000000000 gpc.c
000000000092ce30 l     O .bss	0000000000002880 imx_gicv3_ctx
000000000092f6b0 l     O .bss	0000000000000004 pu_domain_status
000000000092a000 l     O .data	0000000000000010 gpc_wake_irqs
000000000092a010 l     O .data	0000000000000104 pu_domains
00000000009285e0 l     O ro	0000000000000010 gpc_imr_offset
00000000009285f0 l     O ro	0000000000000028 pll_ctrl_offset
0000000000000000 l    df *ABS*	0000000000000000 imx8mm_misc.c
0000000000000000 l    df *ABS*	0000000000000000 hab.c
0000000000000000 l    df *ABS*	0000000000000000 imx8mm_psci.c
0000000000928620 l     O ro	00000000000000a0 imx_plat_psci_ops
0000000000000000 l    df *ABS*	0000000000000000 imx8_topology.c
0000000000000000 l    df *ABS*	0000000000000000 plat_psci_common.c
0000000000000000 l    df *ABS*	0000000000000000 xlat_tables.c
000000000092f6c0 l     O .bss	0000000000000020 base_xlation_table
000000000092f6e0 l     O .bss	0000000000000008 tcr_ps_bits
0000000000000000 l    df *ABS*	0000000000000000 xlat_tables_common.c
0000000000921b2c l     F ro	00000000000001f0 init_xlation_table_inner
0000000000931000 l     O xlat_table	0000000000008000 xlat_tables
000000000092f6e8 l     O .bss	0000000000000008 ap1_mask
000000000092f6f0 l     O .bss	0000000000000008 execute_never_mask
000000000092f6f8 l     O .bss	0000000000000220 mmap
000000000092f918 l     O .bss	0000000000000004 next_xlat
000000000092f920 l     O .bss	0000000000000008 xlat_max_pa
000000000092f928 l     O .bss	0000000000000008 xlat_max_va
0000000000000000 l    df *ABS*	0000000000000000 delay_timer.c
000000000092f930 l     O .bss	0000000000000008 timer_ops
0000000000000000 l    df *ABS*	0000000000000000 generic_delay_timer.c
0000000000921f10 l     F ro	000000000000000c get_timer_value
000000000092f938 l     O .bss	0000000000000010 ops
0000000000000000 l    df *ABS*	0000000000000000 gicv3_helpers.c
0000000000000000 l    df *ABS*	0000000000000000 arm_gicv3_common.c
0000000000000000 l    df *ABS*	0000000000000000 gic500.c
0000000000000000 l    df *ABS*	0000000000000000 gicv3_main.c
00000000009224bc l     F ro	000000000000000c gicr_wait_for_pending_write
0000000000000000 l    df *ABS*	0000000000000000 gic_common.c
0000000000000000 l    df *ABS*	0000000000000000 plat_gicv3.c
00000000009286c4 l     O ro	0000000000000004 CSWTCH.10
0000000000000000 l    df *ABS*	0000000000000000 plat_imx8_gic.c
0000000000922f5c l     F ro	0000000000000004 plat_imx_mpidr_to_core_pos
00000000009286f8 l     O ro	0000000000000008 g01s_interrupt_props
0000000000000000 l    df *ABS*	0000000000000000 dram.c
000000000092f948 l     O .bss	0000000000000018 dram_info
000000000092f960 l     O .bss	0000000000000004 wfe_done
000000000092a118 l     O .data	0000000000000004 dev_fsp
000000000092a11c l     O .data	0000000000000001 wait_ddrc_hwffc_done
0000000000928700 l     O ro	0000000000000010 irqs_used
0000000000000000 l    df *ABS*	0000000000000000 clock.c
0000000000000000 l    df *ABS*	0000000000000000 lpddr4_retention.c
0000000000000000 l    df *ABS*	0000000000000000 ddr4_retention.c
0000000000000000 l    df *ABS*	0000000000000000 lpddr4_helper.c
0000000000000000 l    df *ABS*	0000000000000000 lpddr4_dvfs.c
0000000000000000 l    df *ABS*	0000000000000000 ddr4_dvfs.c
000000000092f964 l     O .bss	000000000000001c mr_value
0000000000000000 l    df *ABS*	0000000000000000 tzc380.c
0000000000000000 l    df *ABS*	0000000000000000 bl31_main.c
000000000092f980 l     O .bss	0000000000000008 bl32_init
000000000092a150 l     O .data	0000000000000004 next_image_type
0000000000928800 l     O ro	0000000000000010 psci_args.2649
0000000000000000 l    df *ABS*	0000000000000000 interrupt_mgmt.c
0000000000924ad4 l     F ro	0000000000000084 set_scr_el3_from_rm
000000000092f988 l     O .bss	0000000000000048 intr_type_descs
0000000000000000 l    df *ABS*	0000000000000000 bl31_context_mgmt.c
0000000000000000 l    df *ABS*	0000000000000000 runtime_svc.c
0000000000000000 l    df *ABS*	0000000000000000 arm_arch_svc_setup.c
0000000000924e44 l     F ro	00000000000000bc arm_arch_svc_smc_handler
0000000000928a50 l     O ro	0000000000000020 __svc_desc_arm_arch_svc
0000000000000000 l    df *ABS*	0000000000000000 std_svc_setup.c
0000000000924f00 l     F ro	0000000000000024 std_svc_setup
0000000000924f24 l     F ro	00000000000000a4 std_svc_smc_handler
0000000000928a70 l     O ro	0000000000000020 __svc_desc_std_svc
0000000000000000 l    df *ABS*	0000000000000000 context_mgmt.c
0000000000000000 l    df *ABS*	0000000000000000 psci_off.c
0000000000000000 l    df *ABS*	0000000000000000 psci_on.c
0000000000000000 l    df *ABS*	0000000000000000 psci_suspend.c
0000000000000000 l    df *ABS*	0000000000000000 psci_common.c
000000000092f9d0 l     O .bss	0000000000000008 psci_req_local_pwr_states
0000000000000000 l    df *ABS*	0000000000000000 psci_main.c
0000000000000000 l    df *ABS*	0000000000000000 psci_setup.c
000000000092f9e0 l     O .bss	00000000000008c0 psci_ns_context
0000000000000000 l    df *ABS*	0000000000000000 psci_system_off.c
0000000000000000 l    df *ABS*	0000000000000000 psci_mem_protect.c
0000000000000000 l    df *ABS*	0000000000000000 bakery_lock_normal.c
0000000000000000 l    df *ABS*	0000000000000000 spe.c
0000000000926b88 l     F ro	0000000000000030 spe_drain_buffers_hook
0000000000000000 l    df *ABS*	0000000000000000 sve.c
0000000000926c0c l     F ro	000000000000003c disable_sve_hook
0000000000926c48 l     F ro	000000000000003c enable_sve_hook
0000000000000000 l    df *ABS*	0000000000000000 opteed_common.c
0000000000000000 l    df *ABS*	0000000000000000 opteed_main.c
0000000000926dcc l     F ro	0000000000000074 opteed_sel1_interrupt_handler
0000000000926e40 l     F ro	00000000000001c4 opteed_smc_handler
0000000000927004 l     F ro	000000000000007c opteed_setup
0000000000927080 l     F ro	0000000000000040 opteed_init
0000000000928a90 l     O ro	0000000000000020 __svc_desc_opteed_std
0000000000928ab0 l     O ro	0000000000000020 __svc_desc_opteed_fast
0000000000000000 l    df *ABS*	0000000000000000 opteed_pm.c
00000000009270c0 l     F ro	0000000000000004 opteed_cpu_on_handler
00000000009270c4 l     F ro	0000000000000008 opteed_cpu_migrate_info
00000000009270cc l     F ro	0000000000000044 opteed_system_reset
0000000000927110 l     F ro	0000000000000044 opteed_system_off
0000000000927154 l     F ro	000000000000008c opteed_cpu_suspend_finish_handler
00000000009271e0 l     F ro	000000000000008c opteed_cpu_suspend_handler
000000000092726c l     F ro	000000000000006c opteed_cpu_off_handler
00000000009272d8 l     F ro	000000000000009c opteed_cpu_on_finish_handler
0000000000000000 l    df *ABS*	0000000000000000 bl_common.c
0000000000000000 l    df *ABS*	0000000000000000 tf_log.c
000000000092a154 l     O .data	0000000000000004 max_log_level
0000000000000000 l    df *ABS*	0000000000000000 plat_log_common.c
0000000000928960 l     O ro	0000000000000028 plat_prefix_str
0000000000000000 l    df *ABS*	0000000000000000 plat_common.c
0000000000000000 l    df *ABS*	0000000000000000 ./build/imx8mm/release/bl31/imx8_helpers.o
000000000092a158 l       .data	0000000000000000 mailbox_base
0000000000000000 l    df *ABS*	0000000000000000 ./build/imx8mm/release/bl31/cortex_a53.o
0000000000000008 l       *ABS*	0000000000000000 CPU_MIDR_SIZE
0000000000000008 l       *ABS*	0000000000000000 CPU_EXTRA1_FUNC_SIZE
0000000000000008 l       *ABS*	0000000000000000 CPU_EXTRA2_FUNC_SIZE
0000000000000008 l       *ABS*	0000000000000000 CPU_RESET_FUNC_SIZE
0000000000000010 l       *ABS*	0000000000000000 CPU_PWR_DWN_OPS_SIZE
0000000000000000 l       *ABS*	0000000000000000 CPU_ERRATA_FUNC_SIZE
0000000000000000 l       *ABS*	0000000000000000 CPU_ERRATA_LOCK_SIZE
0000000000000000 l       *ABS*	0000000000000000 CPU_ERRATA_PRINTED_SIZE
0000000000000000 l       *ABS*	0000000000000000 CPU_REG_DUMP_SIZE
0000000000000000 l       *ABS*	0000000000000000 CPU_MIDR
0000000000000008 l       *ABS*	0000000000000000 CPU_RESET_FUNC
0000000000000010 l       *ABS*	0000000000000000 CPU_EXTRA1_FUNC
0000000000000018 l       *ABS*	0000000000000000 CPU_EXTRA2_FUNC
0000000000000020 l       *ABS*	0000000000000000 CPU_PWR_DWN_OPS
0000000000000030 l       *ABS*	0000000000000000 CPU_ERRATA_FUNC
0000000000000030 l       *ABS*	0000000000000000 CPU_ERRATA_LOCK
0000000000000030 l       *ABS*	0000000000000000 CPU_ERRATA_PRINTED
0000000000000030 l       *ABS*	0000000000000000 CPU_REG_DUMP
0000000000000030 l       *ABS*	0000000000000000 CPU_OPS_SIZE
00000000009274d0 l     F ro	0000000000000014 cortex_a53_disable_dcache
00000000009274e4 l     F ro	0000000000000018 cortex_a53_disable_smp
00000000009274fc l     F ro	000000000000001c errata_a53_855873_wa
0000000000927518 l     F ro	0000000000000008 check_errata_855873
0000000000927520 l     F ro	0000000000000028 cortex_a53_reset_func
0000000000927548 l     F ro	0000000000000018 cortex_a53_core_pwr_dwn
0000000000927560 l     F ro	0000000000000024 cortex_a53_cluster_pwr_dwn
0000000000000000 l    df *ABS*	0000000000000000 ./build/imx8mm/release/bl31/console.o
000000000092a168 l       .data	0000000000000000 console_state
000000000092759c l       ro	0000000000000000 putc_loop
00000000009275dc l       ro	0000000000000000 putc_done
00000000009275d4 l       ro	0000000000000000 putc_continue
0000000000927600 l       ro	0000000000000000 flush_loop
000000000092763c l       ro	0000000000000000 flush_done
0000000000927634 l       ro	0000000000000000 flush_continue
0000000000000000 l    df *ABS*	0000000000000000 ./build/imx8mm/release/bl31/crash_reporting.o
0000000000000000 l    df *ABS*	0000000000000000 ./build/imx8mm/release/bl31/ea_delegate.o
00000000009276b0 l     F ro	0000000000000068 ea_proceed
00000000009276a8 l     F ro	0000000000000004 delegate_sync_ea
00000000009276ac l     F ro	0000000000000004 delegate_async_ea
0000000000000000 l    df *ABS*	0000000000000000 ./build/imx8mm/release/bl31/runtime_exceptions.o
0000000000927718 l       ro	0000000000000000 smc_handler32
000000000092771c l       ro	0000000000000000 smc_handler64
00000000009294d8 l       ro	0000000000000000 interrupt_exit_irq_aarch64
0000000000929558 l       ro	0000000000000000 interrupt_exit_fiq_aarch64
00000000009296d8 l       ro	0000000000000000 interrupt_exit_irq_aarch32
0000000000929758 l       ro	0000000000000000 interrupt_exit_fiq_aarch32
0000000000927718 l     F ro	00000000000000b8 smc_handler
00000000009277bc l       ro	0000000000000000 smc_prohibited
00000000009277b0 l       ro	0000000000000000 smc_unknown
00000000009277c8 l       ro	0000000000000000 rt_svc_fw_critical_error
0000000000000000 l    df *ABS*	0000000000000000 ./build/imx8mm/release/bl31/platform_mp_stack.o
000000000092a180 l       stacks	0000000000000000 platform_normal_stacks
0000000000000006 l       *ABS*	0000000000000000 TZ_COUNT
0000000000000000 l    df *ABS*	0000000000000000 ./build/imx8mm/release/bl31/cpu_data.o
0000000000000000 l    df *ABS*	0000000000000000 ./build/imx8mm/release/bl31/cpu_helpers.o
0000000000000008 l       *ABS*	0000000000000000 CPU_MIDR_SIZE
0000000000000008 l       *ABS*	0000000000000000 CPU_EXTRA1_FUNC_SIZE
0000000000000008 l       *ABS*	0000000000000000 CPU_EXTRA2_FUNC_SIZE
0000000000000008 l       *ABS*	0000000000000000 CPU_RESET_FUNC_SIZE
0000000000000010 l       *ABS*	0000000000000000 CPU_PWR_DWN_OPS_SIZE
0000000000000000 l       *ABS*	0000000000000000 CPU_ERRATA_FUNC_SIZE
0000000000000000 l       *ABS*	0000000000000000 CPU_ERRATA_LOCK_SIZE
0000000000000000 l       *ABS*	0000000000000000 CPU_ERRATA_PRINTED_SIZE
0000000000000000 l       *ABS*	0000000000000000 CPU_REG_DUMP_SIZE
0000000000000000 l       *ABS*	0000000000000000 CPU_MIDR
0000000000000008 l       *ABS*	0000000000000000 CPU_RESET_FUNC
0000000000000010 l       *ABS*	0000000000000000 CPU_EXTRA1_FUNC
0000000000000018 l       *ABS*	0000000000000000 CPU_EXTRA2_FUNC
0000000000000020 l       *ABS*	0000000000000000 CPU_PWR_DWN_OPS
0000000000000030 l       *ABS*	0000000000000000 CPU_ERRATA_FUNC
0000000000000030 l       *ABS*	0000000000000000 CPU_ERRATA_LOCK
0000000000000030 l       *ABS*	0000000000000000 CPU_ERRATA_PRINTED
0000000000000030 l       *ABS*	0000000000000000 CPU_REG_DUMP
0000000000000030 l       *ABS*	0000000000000000 CPU_OPS_SIZE
00000000009278c4 l       ro	0000000000000000 error_exit
0000000000000000 l    df *ABS*	0000000000000000 ./build/imx8mm/release/bl31/spinlock.o
0000000000927914 l       ro	0000000000000000 l1
0000000000927918 l       ro	0000000000000000 l2
0000000000000000 l    df *ABS*	0000000000000000 ./build/imx8mm/release/bl31/psci_helpers.o
0000000000000000 l    df *ABS*	0000000000000000 ./build/imx8mm/release/bl31/context.o
0000000000000000 l    df *ABS*	0000000000000000 ./build/imx8mm/release/bl31/opteed_helpers.o
0000000000000000 l    df *ABS*	0000000000000000 ./build/imx8mm/release/bl31/debug.o
0000000000928a16 l       ro	0000000000000000 panic_msg
0000000000927c6c l       ro	0000000000000000 panic_common
0000000000927c90 l       ro	0000000000000000 _panic_handler
0000000000000000 l    df *ABS*	0000000000000000 ./build/imx8mm/release/bl31/cache_helpers.o
0000000000927ccc l       ro	0000000000000000 exit_loop_civac
0000000000927cb8 l       ro	0000000000000000 loop_civac
0000000000927d04 l       ro	0000000000000000 exit_loop_cvac
0000000000927cf0 l       ro	0000000000000000 loop_cvac
0000000000927d3c l       ro	0000000000000000 exit_loop_ivac
0000000000927d28 l       ro	0000000000000000 loop_ivac
0000000000927d40 l     F ro	000000000000007c do_dcsw_op
0000000000927db8 l       ro	0000000000000000 exit
0000000000927dbc l       ro	0000000000000000 dcsw_loop_table
0000000000927d54 l       ro	0000000000000000 loop1
0000000000927da0 l       ro	0000000000000000 level_done
0000000000927dbc l       ro	0000000000000000 loop2_isw
0000000000927dc0 l       ro	0000000000000000 loop3_isw
0000000000927ddc l       ro	0000000000000000 loop2_cisw
0000000000927de0 l       ro	0000000000000000 loop3_cisw
0000000000927dfc l       ro	0000000000000000 loop2_csw
0000000000927e00 l       ro	0000000000000000 loop3_csw
0000000000000000 l    df *ABS*	0000000000000000 ./build/imx8mm/release/bl31/misc_helpers.o
0000000000927e58 l     F ro	00000000000000e8 zeromem_dczva
0000000000000000 l    df *ABS*	0000000000000000 ./build/imx8mm/release/bl31/platform_helpers.o
0000000000000000 l    df *ABS*	0000000000000000 memcpy.c
0000000000000000 l    df *ABS*	0000000000000000 memmove.c
0000000000000000 l    df *ABS*	0000000000000000 memset.c
0000000000000000 l    df *ABS*	0000000000000000 printf.c
0000000000927fe4 l     F ro	00000000000000b8 unsigned_num_print
0000000000000000 l    df *ABS*	0000000000000000 putchar.c
0000000000000000 l    df *ABS*	0000000000000000 strchr.c
0000000000000000 l    df *ABS*	0000000000000000 
0000000000922db4 g     F ro	0000000000000014 gicd_read_nsacr
00000000009284f8  w    F ro	000000000000002c putchar
000000000092529c g     F ro	00000000000000c8 cm_prepare_el3_exit
0000000000922ee0  w    F ro	0000000000000034 plat_ic_get_pending_interrupt_type
0000000000921f98 g     F ro	0000000000000014 gicd_write_igrpmodr
000000000092519c g     F ro	000000000000007c cm_el1_sysregs_context_restore
00000000009262ac g     F ro	0000000000000028 psci_migrate_info_up_cpu
0000000000928b10 g     O ro	0000000000000008 __cb_func_disable_sve_hookcm_exited_normal_world
0000000000939000 g       xlat_table	0000000000000000 __BL31_END__
00000000009302d0 g     O .bss	0000000000000010 tzc380
0000000000926064 g     F ro	00000000000000ec psci_cpu_suspend
0000000000927828 g     F ro	0000000000000020 reset_handler
0000000000929600 g     F ro	0000000000000000 sync_exception_aarch32
0000000000927e50 g     F ro	0000000000000008 zeromem
0000000000928566 g     O ro	0000000000000033 version_string
0000000000928b00 g       ro	0000000000000000 __pubsub_psci_suspend_pwrdown_finish_end
0000000000925dfc g     F ro	00000000000000f8 psci_validate_entry_point
0000000000927374 g     F ro	0000000000000004 print_entry_point_info
0000000000924cb8 g     F ro	000000000000000c cm_get_context
0000000000927b18 g     F ro	0000000000000048 save_gp_registers
00000000009284a4 g     F ro	0000000000000054 printf
0000000000925d70 g     F ro	000000000000006c psci_release_pwr_domain_locks
00000000009258b8 g     F ro	0000000000000024 psci_validate_power_state
00000000009219a4 g     F ro	0000000000000038 plat_core_pos_by_mpidr
000000000092a000 g       ro	0000000000000000 __RW_START__
000000000092155c g     F ro	0000000000000010 imx_soc_handler
0000000000925814 g     F ro	00000000000000a4 psci_cpu_suspend_finish
00000000009286c8 g     O ro	0000000000000030 arm_gic_data
00000000009205f8 g     F ro	0000000000000028 bl31_plat_get_next_image_ep_info
0000000000927e30 g     F ro	0000000000000010 dcsw_op_level1
0000000000927c6c g     F ro	000000000000002c do_panic
00000000009235f8 g     F ro	0000000000000238 lpddr4_exit_retention
0000000000920ad4 g     F ro	000000000000001c imx_set_rbc_count
0000000000927f80 g     F ro	0000000000000048 memmove
00000000009302e0 g     O .bss	0000000000000080 rt_svc_descs_indices
0000000000922ddc g     F ro	0000000000000014 gicd_write_isenabler
0000000000921968 g     F ro	0000000000000030 plat_setup_psci_ops
0000000000929200 g     F ro	0000000000000000 sync_exception_sp_elx
0000000000922df0 g     F ro	0000000000000014 gicd_write_ispendr
0000000000929000 g     F ro	0000000000000000 sync_exception_sp_el0
00000000009279a4 g     F ro	000000000000000c psci_power_down_wfi
0000000000923014 g     F ro	0000000000000044 plat_gic_restore
00000000009226ac g     F ro	000000000000003c gicv3_cpuif_disable
0000000000927970 g     F ro	0000000000000034 psci_do_pwrup_cache_maintenance
00000000009261c0 g     F ro	0000000000000058 psci_affinity_info
0000000000924ac8 g     F ro	000000000000000c bl31_register_bl32_init
00000000009202bc g     F ro	0000000000000044 bl31_tzc380_setup
0000000000927410  w    F ro	0000000000000030 plat_log_get_prefix
0000000000926218 g     F ro	000000000000007c psci_migrate
0000000000922130 g     F ro	0000000000000058 gicv3_rdistif_base_addrs_probe
0000000000928548 g     O ro	000000000000001e build_message
00000000009217a8 g     F ro	00000000000000d0 imx_domain_suspend
0000000000927bb4 g     F ro	0000000000000024 el3_exit
0000000000926500 g     F ro	0000000000000348 psci_setup
0000000000924cc4 g     F ro	000000000000000c cm_set_context
0000000000921a28 g     F ro	0000000000000084 init_xlat_tables
000000000092062c g     F ro	0000000000000004 bl31_plat_runtime_setup
000000000092a000 g       .data	0000000000000000 __DATA_START__
0000000000930e80 g     O .bss	0000000000000008 psci_locks
0000000000927f48  w    F ro	0000000000000004 plat_disable_acp
00000000009234b4 g     F ro	0000000000000144 lpddr4_enter_retention
0000000000920630 g     F ro	0000000000000018 imx_is_m4_enabled
0000000000925cc4 g     F ro	0000000000000034 psci_find_target_suspend_lvl
0000000000922e80 g     F ro	000000000000000c gicd_set_isenabler
00000000009264e4 g     F ro	000000000000001c psci_arch_setup
00000000009278ec g     F ro	0000000000000020 check_wa_cve_2017_5715
0000000000921770 g     F ro	0000000000000014 imx_pwr_domain_on_finish
0000000000926880 g     F ro	0000000000000038 psci_system_reset
0000000000922e8c g     F ro	0000000000000014 gicd_set_ipriorityr
0000000000927f60 g     F ro	0000000000000020 memcpy
0000000000922054 g     F ro	0000000000000020 gicr_set_igrpmodr0
0000000000925ddc g     F ro	0000000000000020 psci_validate_mpidr
0000000000926150 g     F ro	0000000000000068 psci_system_suspend
0000000000929380 g     F ro	0000000000000000 serror_sp_elx
00000000009250c8 g     F ro	000000000000002c cm_init_context_by_index
0000000000923830 g     F ro	00000000000001c4 ddr4_enter_retention
0000000000923258 g     F ro	0000000000000024 dram_exit_retention
0000000000922520 g     F ro	0000000000000080 gicv3_distif_init
0000000000923c98 g     F ro	0000000000000568 lpddr4_swffc
0000000000929080 g     F ro	0000000000000000 irq_sp_el0
0000000000927e58 g     F ro	00000000000000e8 zero_normalmem
0000000000925a28 g     F ro	0000000000000044 psci_get_parent_pwr_domain_nodes
00000000009224c8 g     F ro	0000000000000058 gicv3_driver_init
00000000009302c8 g     O .bss	0000000000000004 dfs_lock
0000000000928b00 g     O ro	0000000000000008 __cb_func_spe_drain_buffers_hookcm_entering_secure_world
0000000000927440  w    F ro	0000000000000040 plat_ea_handler
0000000000927b60 g     F ro	0000000000000048 restore_gp_registers
0000000000926848 g     F ro	0000000000000038 psci_system_off
00000000009274cc g     F ro	0000000000000004 platform_mem_init
0000000000928b08 g       ro	0000000000000000 __pubsub_cm_exited_secure_world_end
0000000000920118 g     F ro	0000000000000060 bl31_warm_entrypoint
0000000000923140 g     F ro	00000000000000f4 dram_info_init
0000000000920620 g     F ro	000000000000000c plat_get_syscnt_freq2
00000000009248c8 g     F ro	000000000000006c get_mr_values
0000000000927f4c  w    F ro	0000000000000008 plat_panic_handler
0000000000928a30 g       ro	0000000000000000 __RT_SVC_DESCS_START__
00000000009274b4 g     F ro	000000000000000c imx_mailbox_init
00000000009216dc g     F ro	0000000000000018 imx_get_sys_suspend_power_state
000000000092cd80 g       stacks	0000000000000000 __STACKS_END__
0000000000922114 g     F ro	000000000000001c gicv3_rdistif_mark_core_asleep
0000000000928b00 g       ro	0000000000000000 __pubsub_psci_suspend_pwrdown_start_end
0000000000927cd0 g     F ro	0000000000000038 clean_dcache_range
0000000000927848 g     F ro	0000000000000024 prepare_cpu_pwr_dwn
0000000000920648 g     F ro	000000000000001c imx_m4_lpa_active
0000000000926cd0 g     F ro	00000000000000a4 opteed_init_optee_ep_state
00000000009224b8 g     F ro	0000000000000004 gicv3_distif_post_restore
0000000000925ef4 g     F ro	00000000000000b0 psci_warmboot_entrypoint
0000000000922094 g     F ro	0000000000000018 gicr_set_isenabler0
00000000009220dc g     F ro	0000000000000038 gicv3_rdistif_mark_core_awake
0000000000920c04 g     F ro	00000000000000fc imx_anamix_post_resume
0000000000928b10 g       ro	0000000000000000 __pubsub_cm_exited_normal_world_start
00000000009277f0  w    F ro	0000000000000010 plat_set_my_stack
0000000000924cf4 g     F ro	0000000000000028 cm_set_context_by_index
0000000000928ad0 g       ro	0000000000000000 __RT_SVC_DESCS_END__
0000000000922f14  w    F ro	0000000000000048 plat_interrupt_type_to_line
000000000092200c g     F ro	0000000000000014 gicr_read_ipriorityr
0000000000925120 g     F ro	000000000000007c cm_el1_sysregs_context_save
0000000000927c3c g     F ro	0000000000000030 asm_print_hex
0000000000923c58 g     F ro	0000000000000040 lpddr4_mr_write
00000000009204ac g     F ro	0000000000000118 bl31_plat_arch_setup
0000000000924a64 g     F ro	0000000000000064 bl31_main
0000000000921d1c g     F ro	0000000000000004 print_mmap
0000000000930480 g     O .bss	0000000000000040 psci_cpu_pd_nodes
0000000000004200 g       *ABS*	0000000000000000 __BSS_SIZE__
0000000000927c24 g     F ro	0000000000000018 asm_print_str
00000000009206f0 g     F ro	00000000000000b0 imx_set_cpu_pwr_on
0000000000920904 g     F ro	0000000000000084 imx_noc_slot_config
0000000000926da4 g     F ro	0000000000000028 opteed_synchronous_sp_exit
0000000000927f54  w    F ro	0000000000000004 bl31_plat_enable_mmu
0000000000924fc8 g     F ro	0000000000000004 cm_init
0000000000927f40  w    F ro	0000000000000004 plat_crash_console_flush
0000000000920d6c g     F ro	000000000000009c noc_wrapper_post_resume
0000000000929000 g       ro	0000000000000000 runtime_exceptions
00000000009210c8 g     F ro	0000000000000448 imx_gpc_handler
00000000009302a8 g     O .bss	0000000000000020 rdistif_base_addrs
0000000000922e3c g     F ro	0000000000000014 gicd_write_nsacr
0000000000925218 g     F ro	0000000000000024 cm_set_elr_el3
0000000000922020 g     F ro	0000000000000014 gicr_write_ipriorityr
0000000000928b08 g       ro	0000000000000000 __pubsub_cm_exited_secure_world_start
0000000000925fe0 g     F ro	0000000000000020 psci_spd_migrate_info
0000000000921728 g     F ro	0000000000000014 imx_system_off
0000000000927814 g     F ro	0000000000000014 _cpu_data_by_index
0000000000921574 g     F ro	00000000000000d8 imx_hab_handler
0000000000929800 g       ro	0000000000000000 __RO_END_UNALIGNED__
0000000000926000 g     F ro	0000000000000004 psci_print_power_domain_map
00000000009219dc g     F ro	000000000000002c plat_get_target_pwr_state
0000000000927584 g     F ro	0000000000000068 console_putc
00000000009274c0 g     F ro	0000000000000004 plat_secondary_cold_boot_setup
0000000000928918 g     O ro	0000000000000048 opteed_pm
000000000092291c g     F ro	0000000000000200 gicv3_distif_save
0000000000922e28 g     F ro	0000000000000014 gicd_write_icfgr
0000000000927f5c  w    F ro	0000000000000004 plat_handle_el3_ea
0000000000920af0 g     F ro	0000000000000018 imx_clear_rbc_count
00000000009258ec g     F ro	0000000000000058 psci_is_last_on_cpu
00000000009274c4 g     F ro	0000000000000004 plat_crash_console_init
0000000000924790 g     F ro	0000000000000138 ddr4_dll_no_change
0000000000929680 g     F ro	0000000000000000 irq_aarch32
0000000000927c98 g     F ro	0000000000000038 flush_dcache_range
0000000000927bd8 g     F ro	0000000000000028 opteed_enter_sp
0000000000921f04 g     F ro	000000000000000c timer_init
0000000000920300 g     F ro	00000000000001ac bl31_early_platform_setup2
0000000000920ef8 g     F ro	000000000000003c vpu_sft_reset_assert
0000000000921510 g     F ro	000000000000004c imx_src_handler
00000000009227f8 g     F ro	0000000000000124 gicv3_rdistif_init_restore
0000000000928b08 g     O ro	0000000000000008 __cb_func_enable_sve_hookcm_entering_normal_world
0000000000929180 g     F ro	0000000000000000 serror_sp_el0
000000000092809c g     F ro	0000000000000408 vprintf
00000000009216b0 g     F ro	000000000000002c imx_cpu_standby
0000000000924330 g     F ro	000000000000011c sw_pstate
0000000000924b88 g     F ro	0000000000000098 set_routing_model
000000000092764c g     F ro	0000000000000004 report_unhandled_exception
0000000000923424 g     F ro	0000000000000048 ddr_pll_bypass_400mts
00000000009255c4 g     F ro	00000000000000c4 psci_cpu_on_finish
0000000000927e1c g     F ro	0000000000000014 dcsw_op_all
00000000009261b8 g     F ro	0000000000000008 psci_cpu_off
0000000000927f44  w    F ro	0000000000000004 plat_reset_handler
0000000000921b28 g     F ro	0000000000000004 enable_mmu_direct_el3
0000000000920664 g     F ro	0000000000000038 imx_set_cpu_secure_entry
00000000009225a4 g     F ro	0000000000000084 gicv3_rdistif_init
0000000000928b10 g       ro	0000000000000000 __pubsub_cm_entering_normal_world_end
000000000092788c g     F ro	000000000000003c get_cpu_ops_ptr
0000000000920000 g     F ro	00000000000000ec bl31_entrypoint
0000000000924cd0 g     F ro	0000000000000024 cm_get_context_by_index
00000000009250f4 g     F ro	000000000000002c cm_init_my_context
0000000000929580 g     F ro	0000000000000000 serror_aarch64
0000000000927800 g     F ro	0000000000000014 init_cpu_data_ptr
0000000000927650 g     F ro	0000000000000040 enter_lower_el_sync_ea
0000000000921a08 g     F ro	000000000000000c xlat_arch_current_el
0000000000922224 g     F ro	00000000000000e4 gicv3_secure_spis_config_props
0000000000000040 g       *ABS*	0000000000000000 __PERCPU_BAKERY_LOCK_SIZE__
0000000000922da0 g     F ro	0000000000000014 gicd_read_icfgr
0000000000922074 g     F ro	0000000000000020 gicr_clr_igrpmodr0
0000000000922d90 g     F ro	0000000000000010 gicd_read_ipriorityr
0000000000926b74 g     F ro	0000000000000014 spe_supported
0000000000925364 g     F ro	0000000000000100 psci_do_cpu_off
000000000092088c g     F ro	0000000000000078 imx_a53_plat_slot_config
0000000000930510 g     O .bss	0000000000000004 psci_caps
0000000000921784 g     F ro	0000000000000024 imx_pwr_domain_off
0000000000924fcc g     F ro	00000000000000fc cm_setup_context
0000000000929280 g     F ro	0000000000000000 irq_sp_elx
0000000000929100 g     F ro	0000000000000000 fiq_sp_el0
000000000092a169 g       .data	0000000000000000 __DATA_END__
0000000000920f70 g     F ro	0000000000000158 imx_gpc_init
00000000009207a0 g     F ro	00000000000000ec imx_set_cpu_lpm
0000000000921fac g     F ro	0000000000000030 gicd_set_igrpmodr
0000000000928ad0 g       ro	0000000000000000 __CPU_OPS_START__
0000000000921e9c g     F ro	0000000000000068 udelay
0000000000922308 g     F ro	0000000000000058 gicv3_ppi_sgi_config_defaults
0000000000927d08 g     F ro	0000000000000038 inv_dcache_range
00000000009242d4 g     F ro	000000000000005c dram_cfg_all_mr
000000000092173c g     F ro	0000000000000034 imx_pwr_domain_on
0000000000927ba8 g     F ro	000000000000000c restore_gp_registers_eret
0000000000926390 g     F ro	0000000000000154 psci_smc_handler
0000000000921f3c g     F ro	0000000000000048 generic_delay_timer_init
0000000000925688 g     F ro	000000000000018c psci_cpu_suspend_start
0000000000925944 g     F ro	0000000000000030 psci_init_req_local_pwr_states
0000000000928b08 g       ro	0000000000000000 __pubsub_cm_entering_secure_world_end
0000000000921878 g     F ro	00000000000000c4 imx_domain_suspend_finish
0000000000921f1c g     F ro	0000000000000020 generic_delay_timer_init_args
0000000000930f80 g       .bss	0000000000000000 __BAKERY_LOCK_END__
00000000009278c8 g     F ro	0000000000000010 cpu_get_rev_var
000000000092346c g     F ro	000000000000002c ddr_pll_bypass_dis
0000000000925464 g     F ro	0000000000000160 psci_cpu_on_start
0000000000925c78 g     F ro	000000000000004c psci_find_max_off_lvl
0000000000927480 g     F ro	0000000000000014 plat_is_my_cpu_primary
0000000000922ea0 g     F ro	0000000000000040 gicd_set_icfgr
00000000009304c0 g     O .bss	0000000000000040 psci_non_cpu_pd_nodes
0000000000923498 g     F ro	000000000000001c dram_clock_switch
0000000000928b00 g       ro	0000000000000000 __CPU_OPS_END__
0000000000930f80 g       .bss	0000000000000000 __BSS_END__
0000000000926004 g     F ro	0000000000000004 psci_do_pwrdown_sequence
0000000000927934 g     F ro	000000000000003c psci_do_pwrdown_cache_maintenance
0000000000922f6c g     F ro	0000000000000020 plat_gic_init
00000000009274a8 g     F ro	000000000000000c plat_get_my_entrypoint
0000000000921f84 g     F ro	0000000000000014 gicd_read_igrpmodr
000000000092527c g     F ro	0000000000000020 cm_set_next_eret_context
0000000000928b00 g       ro	0000000000000000 __pubsub_cm_entering_secure_world_start
0000000000922d54 g     F ro	0000000000000014 gicd_read_isenabler
0000000000926008 g     F ro	000000000000005c psci_cpu_on
0000000000921e08 g     F ro	0000000000000094 init_xlation_table
0000000000924a04 g     F ro	0000000000000060 bl31_prepare_next_image_entry
00000000009216f4 g     F ro	0000000000000034 imx_system_reset
000000000092499c g     F ro	000000000000002c tzc380_init
0000000000926328 g     F ro	0000000000000068 psci_features
0000000000927fc8 g     F ro	000000000000001c memset
0000000000930e80 g       .bss	0000000000000000 __BAKERY_LOCK_START__
0000000000925974 g     F ro	00000000000000b4 psci_get_target_local_pwr_states
0000000000921660 g     F ro	0000000000000050 imx_validate_power_state
000000000092523c g     F ro	0000000000000040 cm_write_scr_el3_bit
0000000000928b18 g       ro	0000000000000000 __pubsub_cm_exited_normal_world_end
0000000000930520 g     O .bss	0000000000000008 optee_vector_table
0000000000927690 g     F ro	0000000000000018 enter_lower_el_async_ea
0000000000930500 g     O .bss	0000000000000008 psci_plat_pm_ops
0000000000928b00 g       ro	0000000000000000 __pubsub_psci_suspend_pwrdown_start_start
00000000009220ac g     F ro	0000000000000030 gicr_set_icfgr1
00000000009249f8 g     F ro	000000000000000c get_arm_std_svc_args
0000000000928b08 g       ro	0000000000000000 __pubsub_cm_entering_normal_world_start
0000000000926a00 g     F ro	000000000000011c bakery_lock_get
0000000000920e08 g     F ro	00000000000000f0 imx_set_sys_wakeup
00000000009249c8 g     F ro	0000000000000030 tzc380_configure_region
000000000092695c g     F ro	000000000000005c psci_mem_protect
0000000000926b1c g     F ro	0000000000000058 bakery_lock_release
0000000000924c8c g     F ro	000000000000002c get_interrupt_type_handler
0000000000921998 g     F ro	000000000000000c plat_get_power_domain_tree_desc
0000000000922e18 g     F ro	0000000000000010 gicd_write_ipriorityr
0000000000920178 g     F ro	00000000000000c0 imx_svc_smc_handler
0000000000924934 g     F ro	0000000000000068 ddr4_swffc
00000000009233dc g     F ro	0000000000000048 ddr_pll_bypass_100mts
00000000009262d4 g     F ro	0000000000000054 psci_node_hw_state
00000000009279b0 g     F ro	00000000000000b4 el1_sysregs_context_save
000000000092164c g     F ro	0000000000000014 imx_validate_ns_entrypoint
0000000000922e04 g     F ro	0000000000000014 gicd_write_isactiver
0000000000927e40 g     F ro	0000000000000010 dcsw_op_level2
000000000092444c g     F ro	0000000000000344 ddr4_dll_change
000000000092786c g     F ro	0000000000000020 init_cpu_ops
00000000009275ec g     F ro	0000000000000060 console_flush
0000000000929300 g     F ro	0000000000000000 fiq_sp_elx
000000000092a000 g       ro	0000000000000000 __RO_END__
0000000000920f34 g     F ro	000000000000003c vpu_sft_reset_deassert
0000000000929400 g     F ro	0000000000000000 sync_exception_aarch64
0000000000929500 g     F ro	0000000000000000 fiq_aarch64
0000000000922d40 g     F ro	0000000000000014 gicd_read_igroupr
000000000092792c g     F ro	0000000000000008 spin_unlock
0000000000920b08 g     F ro	00000000000000fc imx_anamix_pre_suspend
000000000092cd80 g       .bss	0000000000000000 __BSS_START__
0000000000920000 g       ro	0000000000000000 __RO_START__
000000000092a114 g     O .data	0000000000000001 bypass_mode_supported
0000000000926bb8 g     F ro	0000000000000040 spe_enable
0000000000930528 g     O .bss	0000000000000004 opteed_rw
00000000009274c8 g     F ro	0000000000000004 plat_crash_console_putc
0000000000930380 g     O .bss	0000000000000100 percpu_data
000000000092069c g     F ro	0000000000000054 imx_set_cpu_pwr_off
0000000000925fa4 g     F ro	000000000000003c psci_register_spd_pm_hook
00000000009278d8 g     F ro	0000000000000014 cpu_rev_var_hs
0000000000926bf8 g     F ro	0000000000000014 sve_supported
00000000009225a0  w    F ro	0000000000000004 gicv3_rdistif_on
0000000000920d00 g     F ro	000000000000006c noc_wrapper_pre_suspend
000000000092790c g     F ro	0000000000000020 spin_lock
00000000009226e8 g     F ro	000000000000000c gicv3_get_pending_interrupt_type
0000000000927c00 g     F ro	0000000000000024 opteed_exit_sp
0000000000923234 g     F ro	0000000000000024 dram_enter_retention
0000000000922fc8 g     F ro	000000000000004c plat_gic_save
00000000009258dc g     F ro	0000000000000010 psci_query_sys_suspend_pwrstate
00000000009286c0 g     O ro	0000000000000004 imx_power_domain_tree_desc
0000000000922fb4 g     F ro	0000000000000014 plat_gic_pcpu_init
0000000000927378 g     F ro	0000000000000098 tf_log
0000000000928b00 g       ro	0000000000000000 __pubsub_psci_cpu_on_finish_start
0000000000924b58 g     F ro	0000000000000030 get_scr_el3_from_routing_model
0000000000924200 g     F ro	00000000000000d4 ddr4_mr_write
0000000000939000 g       xlat_table	0000000000000000 __RW_END__
0000000000921a14 g     F ro	0000000000000014 xlat_arch_get_xn_desc
00000000009205c4 g     F ro	0000000000000034 bl31_platform_setup
000000000092156c g     F ro	0000000000000008 imx_noc_handler
000000000092a180 g       stacks	0000000000000000 __STACKS_START__
0000000000930530 g     O .bss	0000000000000940 opteed_sp_context
0000000000922b1c g     F ro	0000000000000224 gicv3_distif_init_restore
0000000000925b0c g     F ro	000000000000016c psci_do_state_coordination
00000000009268b8 g     F ro	00000000000000a4 psci_system_reset2
0000000000921aac g     F ro	000000000000007c enable_mmu_el3
0000000000929780 g     F ro	0000000000000000 serror_aarch32
0000000000927f58  w    F ro	0000000000000004 plat_handle_double_fault
0000000000926c84 g     F ro	000000000000004c sve_enable
0000000000926d74 g     F ro	0000000000000030 opteed_synchronous_sp_entry
000000000092193c g     F ro	000000000000002c imx_pwr_domain_pwr_down_wfi
0000000000922454 g     F ro	000000000000002c arm_gicv3_distif_pre_save
0000000000928b00 g       ro	0000000000000000 __pubsub_psci_suspend_pwrdown_finish_start
0000000000922188 g     F ro	000000000000009c gicv3_spis_config_defaults
0000000000920a58 g     F ro	000000000000007c imx_set_sys_lpm
0000000000921fdc g     F ro	0000000000000030 gicd_clr_igrpmodr
0000000000927494 g     F ro	0000000000000014 plat_my_core_pos
0000000000922360 g     F ro	00000000000000f4 gicv3_secure_ppi_sgi_config_props
00000000009239f4 g     F ro	0000000000000264 ddr4_exit_retention
0000000000924d1c g     F ro	0000000000000128 runtime_svc_init
0000000000922d68 g     F ro	0000000000000014 gicd_read_ispendr
0000000000922034 g     F ro	0000000000000020 gicr_clr_igroupr0
0000000000929480 g     F ro	0000000000000000 irq_aarch64
0000000000926294 g     F ro	0000000000000018 psci_migrate_info_type
00000000009224b4 g     F ro	0000000000000004 gicv3_distif_pre_save
0000000000923098 g     F ro	00000000000000a8 dram_phy_init
00000000009269b8 g     F ro	0000000000000048 psci_mem_chk_range
0000000000927c6c  w      ro	0000000000000000 el3_panic
0000000000922e50 g     F ro	0000000000000030 gicd_clr_igroupr
0000000000922fa0 g     F ro	0000000000000014 plat_gic_cpuif_disable
0000000000924c20 g     F ro	000000000000006c register_interrupt_type_handler
0000000000928524 g     F ro	0000000000000024 strchr
00000000009302a0 g     O .bss	0000000000000008 gicv3_driver_data
0000000000920988 g     F ro	00000000000000d0 imx_set_cluster_powerdown
0000000000925cf8 g     F ro	0000000000000078 psci_acquire_pwr_domain_locks
0000000000923058 g     F ro	0000000000000040 dram_umctl2_init
000000000092327c g     F ro	0000000000000160 dram_dvfs_handler
0000000000928b00 g       ro	0000000000000000 __pubsub_psci_cpu_on_finish_end
0000000000927a64 g     F ro	00000000000000b4 el1_sysregs_context_restore
000000000092a160 g       .data	0000000000000000 console_list
0000000000925a6c g     F ro	00000000000000a0 psci_set_pwr_domains_to_run
0000000000922628 g     F ro	0000000000000084 gicv3_cpuif_enable
0000000000922480 g     F ro	0000000000000034 arm_gicv3_distif_post_restore
0000000000922dc8 g     F ro	0000000000000014 gicd_write_igroupr
000000000092764c g       ro	0000000000000000 report_unhandled_interrupt
0000000000920258 g     F ro	0000000000000064 imx_buildinfo_handler
0000000000929700 g     F ro	0000000000000000 fiq_aarch32
00000000009277d0  w    F ro	0000000000000018 plat_get_my_stack
0000000000921d20 g     F ro	00000000000000e8 mmap_add_region
0000000000922d7c g     F ro	0000000000000014 gicd_read_isactiver
00000000009226f4 g     F ro	0000000000000104 gicv3_rdistif_save
0000000000930508 g     O .bss	0000000000000008 psci_spd_pm
0000000000922f60 g     F ro	000000000000000c plat_gic_driver_init
0000000000922f8c g     F ro	0000000000000014 plat_gic_cpuif_enable
000000000092a120 g     O .data	0000000000000030 fsp_init_reg



Disassembly of section ro:

0000000000920000 <bl31_entrypoint>:
  920000:	d2810600 	mov	x0, #0x830                 	// #2096
  920004:	f2a618a0 	movk	x0, #0x30c5, lsl #16
  920008:	d51e1000 	msr	sctlr_el3, x0
  92000c:	d5033fdf 	isb
  920010:	94001d26 	bl	9274a8 <plat_get_my_entrypoint>
  920014:	b4000040 	cbz	x0, 92001c <do_cold_boot>
  920018:	d61f0000 	br	x0

000000000092001c <do_cold_boot>:
  92001c:	10047f20 	adr	x0, 929000 <sync_exception_sp_el0>
  920020:	d51ec000 	msr	vbar_el3, x0
  920024:	d5033fdf 	isb
  920028:	94001e00 	bl	927828 <reset_handler>
  92002c:	d2820141 	mov	x1, #0x100a                	// #4106
  920030:	d53e1000 	mrs	x0, sctlr_el3
  920034:	aa010000 	orr	x0, x0, x1
  920038:	d51e1000 	msr	sctlr_el3, x0
  92003c:	d5033fdf 	isb
  920040:	94001df0 	bl	927800 <init_cpu_data_ptr>
  920044:	d2804700 	mov	x0, #0x238                 	// #568
  920048:	d51e1100 	msr	scr_el3, x0
  92004c:	d2900000 	mov	x0, #0x8000                	// #32768
  920050:	f2a00020 	movk	x0, #0x1, lsl #16
  920054:	d51e1320 	msr	mdcr_el3, x0
  920058:	d50344ff 	msr	daifclr, #0x4
  92005c:	d2800000 	mov	x0, #0x0                   	// #0
  920060:	d51e1140 	msr	cptr_el3, x0
  920064:	94001d07 	bl	927480 <plat_is_my_cpu_primary>
  920068:	35000060 	cbnz	w0, 920074 <do_primary_cold_boot>
  92006c:	94001d15 	bl	9274c0 <plat_secondary_cold_boot_setup>
  920070:	94001eff 	bl	927c6c <do_panic>

0000000000920074 <do_primary_cold_boot>:
  920074:	94001d16 	bl	9274cc <platform_mem_init>
  920078:	580003c0 	ldr	x0, 9200f0 <do_primary_cold_boot+0x7c>
  92007c:	580003e1 	ldr	x1, 9200f8 <do_primary_cold_boot+0x84>
  920080:	cb000021 	sub	x1, x1, x0
  920084:	94001f21 	bl	927d08 <inv_dcache_range>
  920088:	580003c0 	ldr	x0, 920100 <do_primary_cold_boot+0x8c>
  92008c:	580003e1 	ldr	x1, 920108 <do_primary_cold_boot+0x94>
  920090:	94001f70 	bl	927e50 <zeromem>
  920094:	d50040bf 	msr	spsel, #0x0
  920098:	94001dd6 	bl	9277f0 <plat_set_my_stack>
  92009c:	d2800014 	mov	x20, #0x0                   	// #0
  9200a0:	d2800015 	mov	x21, #0x0                   	// #0
  9200a4:	d2800016 	mov	x22, #0x0                   	// #0
  9200a8:	d2800017 	mov	x23, #0x0                   	// #0
  9200ac:	aa1403e0 	mov	x0, x20
  9200b0:	aa1503e1 	mov	x1, x21
  9200b4:	aa1603e2 	mov	x2, x22
  9200b8:	aa1703e3 	mov	x3, x23
  9200bc:	94000091 	bl	920300 <bl31_early_platform_setup2>
  9200c0:	940000fb 	bl	9204ac <bl31_plat_arch_setup>
  9200c4:	94001268 	bl	924a64 <bl31_main>
  9200c8:	1004f9c0 	adr	x0, 92a000 <__RO_END__>
  9200cc:	300504e1 	adr	x1, 92a169 <__DATA_END__>
  9200d0:	cb000021 	sub	x1, x1, x0
  9200d4:	94001eff 	bl	927cd0 <clean_dcache_range>
  9200d8:	10066540 	adr	x0, 92cd80 <__STACKS_END__>
  9200dc:	10087521 	adr	x1, 930f80 <__BAKERY_LOCK_END__>
  9200e0:	cb000021 	sub	x1, x1, x0
  9200e4:	94001efb 	bl	927cd0 <clean_dcache_range>
  9200e8:	14001eb3 	b	927bb4 <el3_exit>
  9200ec:	00000000 	.inst	0x00000000 ; undefined
  9200f0:	0092a000 	.word	0x0092a000
  9200f4:	00000000 	.word	0x00000000
  9200f8:	00939000 	.word	0x00939000
  9200fc:	00000000 	.word	0x00000000
  920100:	0092cd80 	.word	0x0092cd80
  920104:	00000000 	.word	0x00000000
  920108:	00004200 	.word	0x00004200
  92010c:	00000000 	.word	0x00000000

0000000000920110 <stm>:
  920110:	5d1b0020 	.word	0x5d1b0020
  920114:	00000000 	.word	0x00000000

0000000000920118 <bl31_warm_entrypoint>:
  920118:	10047740 	adr	x0, 929000 <sync_exception_sp_el0>
  92011c:	d51ec000 	msr	vbar_el3, x0
  920120:	d5033fdf 	isb
  920124:	94001dc1 	bl	927828 <reset_handler>
  920128:	d2820141 	mov	x1, #0x100a                	// #4106
  92012c:	d53e1000 	mrs	x0, sctlr_el3
  920130:	aa010000 	orr	x0, x0, x1
  920134:	d51e1000 	msr	sctlr_el3, x0
  920138:	d5033fdf 	isb
  92013c:	94001db1 	bl	927800 <init_cpu_data_ptr>
  920140:	d2804700 	mov	x0, #0x238                 	// #568
  920144:	d51e1100 	msr	scr_el3, x0
  920148:	d2900000 	mov	x0, #0x8000                	// #32768
  92014c:	f2a00020 	movk	x0, #0x1, lsl #16
  920150:	d51e1320 	msr	mdcr_el3, x0
  920154:	d50344ff 	msr	daifclr, #0x4
  920158:	d2800000 	mov	x0, #0x0                   	// #0
  92015c:	d51e1140 	msr	cptr_el3, x0
  920160:	d50040bf 	msr	spsel, #0x0
  920164:	94001da3 	bl	9277f0 <plat_set_my_stack>
  920168:	d2800020 	mov	x0, #0x1                   	// #1
  92016c:	94001f7a 	bl	927f54 <bl31_plat_enable_mmu>
  920170:	94001761 	bl	925ef4 <psci_warmboot_entrypoint>
  920174:	14001e90 	b	927bb4 <el3_exit>

0000000000920178 <imx_svc_smc_handler>:
  920178:	a9be7bfd 	stp	x29, x30, [sp, #-32]!
  92017c:	52a7c005 	mov	w5, #0x3e000000            	// #1040187392
  920180:	0b050000 	add	w0, w0, w5
  920184:	910003fd 	mov	x29, sp
  920188:	f9000bf3 	str	x19, [sp, #16]
  92018c:	7100201f 	cmp	w0, #0x8
  920190:	aa0603f3 	mov	x19, x6
  920194:	540004e8 	b.hi	920230 <imx_svc_smc_handler+0xb8>  // b.pmore
  920198:	90000045 	adrp	x5, 928000 <unsigned_num_print+0x1c>
  92019c:	911670a5 	add	x5, x5, #0x59c
  9201a0:	386048a0 	ldrb	w0, [x5, w0, uxtw]
  9201a4:	10000065 	adr	x5, 9201b0 <imx_svc_smc_handler+0x38>
  9201a8:	8b2088a0 	add	x0, x5, w0, sxtb #2
  9201ac:	d61f0000 	br	x0
  9201b0:	52800080 	mov	w0, #0x4                   	// #4
  9201b4:	72b84000 	movk	w0, #0xc200, lsl #16
  9201b8:	94000c31 	bl	92327c <dram_dvfs_handler>
  9201bc:	93407c00 	sxtw	x0, w0
  9201c0:	f9000260 	str	x0, [x19]
  9201c4:	aa1303e0 	mov	x0, x19
  9201c8:	f9400bf3 	ldr	x19, [sp, #16]
  9201cc:	a8c27bfd 	ldp	x29, x30, [sp], #32
  9201d0:	d65f03c0 	ret
  9201d4:	52b84000 	mov	w0, #0xc2000000            	// #-1040187392
  9201d8:	940003bc 	bl	9210c8 <imx_gpc_handler>
  9201dc:	17fffff8 	b	9201bc <imx_svc_smc_handler+0x44>
  9201e0:	528000a0 	mov	w0, #0x5                   	// #5
  9201e4:	72b84000 	movk	w0, #0xc200, lsl #16
  9201e8:	940004ca 	bl	921510 <imx_src_handler>
  9201ec:	17fffff4 	b	9201bc <imx_svc_smc_handler+0x44>
  9201f0:	528000c0 	mov	w0, #0x6                   	// #6
  9201f4:	72b84000 	movk	w0, #0xc200, lsl #16
  9201f8:	940004d9 	bl	92155c <imx_soc_handler>
  9201fc:	17fffff0 	b	9201bc <imx_svc_smc_handler+0x44>
  920200:	528000e0 	mov	w0, #0x7                   	// #7
  920204:	72b84000 	movk	w0, #0xc200, lsl #16
  920208:	940004db 	bl	921574 <imx_hab_handler>
  92020c:	17ffffec 	b	9201bc <imx_svc_smc_handler+0x44>
  920210:	52800100 	mov	w0, #0x8                   	// #8
  920214:	72b84000 	movk	w0, #0xc200, lsl #16
  920218:	940004d5 	bl	92156c <imx_noc_handler>
  92021c:	17ffffe8 	b	9201bc <imx_svc_smc_handler+0x44>
  920220:	52800060 	mov	w0, #0x3                   	// #3
  920224:	72b84000 	movk	w0, #0xc200, lsl #16
  920228:	9400000c 	bl	920258 <imx_buildinfo_handler>
  92022c:	17ffffe5 	b	9201c0 <imx_svc_smc_handler+0x48>
  920230:	92800000 	mov	x0, #0xffffffffffffffff    	// #-1
  920234:	17ffffe3 	b	9201c0 <imx_svc_smc_handler+0x48>

0000000000920238 <plat_svc_setup>:
  920238:	a9bf7bfd 	stp	x29, x30, [sp, #-16]!
  92023c:	90000040 	adrp	x0, 928000 <unsigned_num_print+0x1c>
  920240:	91169400 	add	x0, x0, #0x5a5
  920244:	910003fd 	mov	x29, sp
  920248:	94001c4c 	bl	927378 <tf_log>
  92024c:	52800000 	mov	w0, #0x0                   	// #0
  920250:	a8c17bfd 	ldp	x29, x30, [sp], #16
  920254:	d65f03c0 	ret

0000000000920258 <imx_buildinfo_handler>:
  920258:	b50002e1 	cbnz	x1, 9202b4 <imx_buildinfo_handler+0x5c>
  92025c:	a9be7bfd 	stp	x29, x30, [sp, #-32]!
  920260:	90000040 	adrp	x0, 928000 <unsigned_num_print+0x1c>
  920264:	91159800 	add	x0, x0, #0x566
  920268:	910003fd 	mov	x29, sp
  92026c:	f9000fbf 	str	xzr, [x29, #24]
  920270:	528005a1 	mov	w1, #0x2d                  	// #45
  920274:	940020ac 	bl	928524 <strchr>
  920278:	aa0003e1 	mov	x1, x0
  92027c:	b4000120 	cbz	x0, 9202a0 <imx_buildinfo_handler+0x48>
  920280:	39400422 	ldrb	w2, [x1, #1]
  920284:	91000400 	add	x0, x0, #0x1
  920288:	71019c5f 	cmp	w2, #0x67
  92028c:	54000101 	b.ne	9202ac <imx_buildinfo_handler+0x54>  // b.any
  920290:	d28000e2 	mov	x2, #0x7                   	// #7
  920294:	91000821 	add	x1, x1, #0x2
  920298:	910063a0 	add	x0, x29, #0x18
  92029c:	94001f31 	bl	927f60 <memcpy>
  9202a0:	f9400fa0 	ldr	x0, [x29, #24]
  9202a4:	a8c27bfd 	ldp	x29, x30, [sp], #32
  9202a8:	d65f03c0 	ret
  9202ac:	b5fffe20 	cbnz	x0, 920270 <imx_buildinfo_handler+0x18>
  9202b0:	17fffffc 	b	9202a0 <imx_buildinfo_handler+0x48>
  9202b4:	92800000 	mov	x0, #0xffffffffffffffff    	// #-1
  9202b8:	d65f03c0 	ret

00000000009202bc <bl31_tzc380_setup>:
  9202bc:	d2800500 	mov	x0, #0x28                  	// #40
  9202c0:	f2a60680 	movk	x0, #0x3034, lsl #16
  9202c4:	b9400000 	ldr	w0, [x0]
  9202c8:	360001a0 	tbz	w0, #0, 9202fc <bl31_tzc380_setup+0x40>
  9202cc:	a9bf7bfd 	stp	x29, x30, [sp, #-16]!
  9202d0:	90000040 	adrp	x0, 928000 <unsigned_num_print+0x1c>
  9202d4:	91171c00 	add	x0, x0, #0x5c7
  9202d8:	910003fd 	mov	x29, sp
  9202dc:	94001c27 	bl	927378 <tf_log>
  9202e0:	d2a65f00 	mov	x0, #0x32f80000            	// #855113728
  9202e4:	940011ae 	bl	92499c <tzc380_init>
  9202e8:	a8c17bfd 	ldp	x29, x30, [sp], #16
  9202ec:	320427e2 	mov	w2, #0xf000003f            	// #-268435393
  9202f0:	d2800001 	mov	x1, #0x0                   	// #0
  9202f4:	52800000 	mov	w0, #0x0                   	// #0
  9202f8:	140011b4 	b	9249c8 <tzc380_configure_region>
  9202fc:	d65f03c0 	ret

0000000000920300 <bl31_early_platform_setup2>:
  920300:	a9be7bfd 	stp	x29, x30, [sp, #-32]!
  920304:	d2802001 	mov	x1, #0x100                 	// #256
  920308:	d2a607c0 	mov	x0, #0x303e0000            	// #809369600
  92030c:	32009fe2 	mov	w2, #0xff00ff              	// #16711935
  920310:	910003fd 	mov	x29, sp
  920314:	f2a607c1 	movk	x1, #0x303e, lsl #16
  920318:	f9000bf3 	str	x19, [sp, #16]
  92031c:	b8004402 	str	w2, [x0], #4
  920320:	eb01001f 	cmp	x0, x1
  920324:	54ffffc1 	b.ne	92031c <bl31_early_platform_setup2+0x1c>  // b.any
  920328:	d2a603e1 	mov	x1, #0x301f0000            	// #807337984
  92032c:	3200ebe0 	mov	w0, #0x77777777            	// #2004318071
  920330:	52800033 	mov	w19, #0x1                   	// #1
  920334:	52801fe2 	mov	w2, #0xff                  	// #255
  920338:	b9000020 	str	w0, [x1]
  92033c:	b9000420 	str	w0, [x1, #4]
  920340:	b900403f 	str	wzr, [x1, #64]
  920344:	b900443f 	str	wzr, [x1, #68]
  920348:	b900483f 	str	wzr, [x1, #72]
  92034c:	b9004c3f 	str	wzr, [x1, #76]
  920350:	b900503f 	str	wzr, [x1, #80]
  920354:	d2a60be1 	mov	x1, #0x305f0000            	// #811532288
  920358:	b9000020 	str	w0, [x1]
  92035c:	b9000420 	str	w0, [x1, #4]
  920360:	b900403f 	str	wzr, [x1, #64]
  920364:	b900443f 	str	wzr, [x1, #68]
  920368:	b900483f 	str	wzr, [x1, #72]
  92036c:	b9004c3f 	str	wzr, [x1, #76]
  920370:	b900503f 	str	wzr, [x1, #80]
  920374:	d2a613e1 	mov	x1, #0x309f0000            	// #815726592
  920378:	b9000020 	str	w0, [x1]
  92037c:	b9000420 	str	w0, [x1, #4]
  920380:	b900403f 	str	wzr, [x1, #64]
  920384:	b900443f 	str	wzr, [x1, #68]
  920388:	b900483f 	str	wzr, [x1, #72]
  92038c:	b9004c3f 	str	wzr, [x1, #76]
  920390:	b900503f 	str	wzr, [x1, #80]
  920394:	d2a65be1 	mov	x1, #0x32df0000            	// #853475328
  920398:	b9000020 	str	w0, [x1]
  92039c:	b9000420 	str	w0, [x1, #4]
  9203a0:	d2800800 	mov	x0, #0x40                  	// #64
  9203a4:	f2a65be0 	movk	x0, #0x32df, lsl #16
  9203a8:	52800061 	mov	w1, #0x3                   	// #3
  9203ac:	b900001f 	str	wzr, [x0]
  9203b0:	b900041f 	str	wzr, [x0, #4]
  9203b4:	b900081f 	str	wzr, [x0, #8]
  9203b8:	b9000c1f 	str	wzr, [x0, #12]
  9203bc:	b900101f 	str	wzr, [x0, #16]
  9203c0:	d2837c80 	mov	x0, #0x1be4                	// #7140
  9203c4:	f2a61200 	movk	x0, #0x3090, lsl #16
  9203c8:	b9000001 	str	w1, [x0]
  9203cc:	52804061 	mov	w1, #0x203                 	// #515
  9203d0:	b9000001 	str	w1, [x0]
  9203d4:	d2800201 	mov	x1, #0x10                  	// #16
  9203d8:	f2a61201 	movk	x1, #0x3090, lsl #16
  9203dc:	b9000033 	str	w19, [x1]
  9203e0:	b9000833 	str	w19, [x1, #8]
  9203e4:	b9001033 	str	w19, [x1, #16]
  9203e8:	d2834081 	mov	x1, #0x1a04                	// #6660
  9203ec:	f2a61201 	movk	x1, #0x3090, lsl #16
  9203f0:	b9000022 	str	w2, [x1]
  9203f4:	d2834102 	mov	x2, #0x1a08                	// #6664
  9203f8:	f2a61202 	movk	x2, #0x3090, lsl #16
  9203fc:	12800001 	mov	w1, #0xffffffff            	// #-1
  920400:	b9000041 	str	w1, [x2]
  920404:	b9000441 	str	w1, [x2, #4]
  920408:	320083e1 	mov	w1, #0x10001               	// #65537
  92040c:	b9000013 	str	w19, [x0]
  920410:	b9000001 	str	w1, [x0]
  920414:	90000060 	adrp	x0, 92c000 <__STACKS_START__+0x1e80>
  920418:	91376000 	add	x0, x0, #0xdd8
  92041c:	d2a80401 	mov	x1, #0x40200000            	// #1075838976
  920420:	f9000401 	str	x1, [x0, #8]
  920424:	d5380401 	mrs	x1, id_aa64pfr0_el1
  920428:	f2780c3f 	tst	x1, #0xf00
  92042c:	52807822 	mov	w2, #0x3c1                 	// #961
  920430:	9a9f07e1 	cset	x1, ne  // ne = any
  920434:	d2802023 	mov	x3, #0x101                 	// #257
  920438:	91000421 	add	x1, x1, #0x1
  92043c:	f2a00b03 	movk	x3, #0x58, lsl #16
  920440:	2a010841 	orr	w1, w2, w1, lsl #2
  920444:	b9001001 	str	w1, [x0, #16]
  920448:	b9400401 	ldr	w1, [x0, #4]
  92044c:	2a130021 	orr	w1, w1, w19
  920450:	b9000401 	str	w1, [x0, #4]
  920454:	90000061 	adrp	x1, 92c000 <__STACKS_START__+0x1e80>
  920458:	91360022 	add	x2, x1, #0xd80
  92045c:	f906c023 	str	x3, [x1, #3456]
  920460:	d2b7c001 	mov	x1, #0xbe000000            	// #3187671040
  920464:	f9001001 	str	x1, [x0, #32]
  920468:	f9000441 	str	x1, [x2, #8]
  92046c:	d2a04001 	mov	x1, #0x2000000             	// #33554432
  920470:	b900105f 	str	wzr, [x2, #16]
  920474:	f9001401 	str	x1, [x0, #40]
  920478:	97ffff91 	bl	9202bc <bl31_tzc380_setup>
  92047c:	d2804080 	mov	x0, #0x204                 	// #516
  920480:	52801f81 	mov	w1, #0xfc                  	// #252
  920484:	f2a607a0 	movk	x0, #0x303d, lsl #16
  920488:	b9000013 	str	w19, [x0]
  92048c:	b9031401 	str	w1, [x0, #788]
  920490:	52801e61 	mov	w1, #0xf3                  	// #243
  920494:	f9400bf3 	ldr	x19, [sp, #16]
  920498:	b903a001 	str	w1, [x0, #928]
  92049c:	90000040 	adrp	x0, 928000 <unsigned_num_print+0x1c>
  9204a0:	9116f000 	add	x0, x0, #0x5bc
  9204a4:	a8c27bfd 	ldp	x29, x30, [sp], #32
  9204a8:	14001bb4 	b	927378 <tf_log>

00000000009204ac <bl31_plat_arch_setup>:
  9204ac:	a9bf7bfd 	stp	x29, x30, [sp, #-16]!
  9204b0:	d2a01201 	mov	x1, #0x900000              	// #9437184
  9204b4:	52800143 	mov	w3, #0xa                   	// #10
  9204b8:	aa0103e0 	mov	x0, x1
  9204bc:	910003fd 	mov	x29, sp
  9204c0:	d2a00082 	mov	x2, #0x40000               	// #262144
  9204c4:	94000617 	bl	921d20 <mmap_add_region>
  9204c8:	d2a00201 	mov	x1, #0x100000              	// #1048576
  9204cc:	52800143 	mov	w3, #0xa                   	// #10
  9204d0:	aa0103e0 	mov	x0, x1
  9204d4:	d2a00022 	mov	x2, #0x10000               	// #65536
  9204d8:	94000612 	bl	921d20 <mmap_add_region>
  9204dc:	d2a80001 	mov	x1, #0x40000000            	// #1073741824
  9204e0:	52800343 	mov	w3, #0x1a                  	// #26
  9204e4:	aa0103e0 	mov	x0, x1
  9204e8:	d2b80002 	mov	x2, #0xc0000000            	// #3221225472
  9204ec:	9400060d 	bl	921d20 <mmap_add_region>
  9204f0:	d0000042 	adrp	x2, 92a000 <__RO_END__>
  9204f4:	90000000 	adrp	x0, 920000 <bl31_entrypoint>
  9204f8:	91000042 	add	x2, x2, #0x0
  9204fc:	91000000 	add	x0, x0, #0x0
  920500:	cb000042 	sub	x2, x2, x0
  920504:	d2a01241 	mov	x1, #0x920000              	// #9568256
  920508:	52800043 	mov	w3, #0x2                   	// #2
  92050c:	aa0103e0 	mov	x0, x1
  920510:	94000604 	bl	921d20 <mmap_add_region>
  920514:	52800043 	mov	w3, #0x2                   	// #2
  920518:	d2a00082 	mov	x2, #0x40000               	// #262144
  92051c:	d2800001 	mov	x1, #0x0                   	// #0
  920520:	d2800000 	mov	x0, #0x0                   	// #0
  920524:	940005ff 	bl	921d20 <mmap_add_region>
  920528:	d2a64001 	mov	x1, #0x32000000            	// #838860800
  92052c:	52800103 	mov	w3, #0x8                   	// #8
  920530:	aa0103e0 	mov	x0, x1
  920534:	d2a01002 	mov	x2, #0x800000              	// #8388608
  920538:	940005fa 	bl	921d20 <mmap_add_region>
  92053c:	d2a60001 	mov	x1, #0x30000000            	// #805306368
  920540:	52800103 	mov	w3, #0x8                   	// #8
  920544:	aa0103e0 	mov	x0, x1
  920548:	d2a01802 	mov	x2, #0xc00000              	// #12582912
  92054c:	940005f5 	bl	921d20 <mmap_add_region>
  920550:	d2a65801 	mov	x1, #0x32c00000            	// #851443712
  920554:	52800103 	mov	w3, #0x8                   	// #8
  920558:	aa0103e0 	mov	x0, x1
  92055c:	d2a00802 	mov	x2, #0x400000              	// #4194304
  920560:	940005f0 	bl	921d20 <mmap_add_region>
  920564:	d2a71001 	mov	x1, #0x38800000            	// #947912704
  920568:	52800103 	mov	w3, #0x8                   	// #8
  92056c:	aa0103e0 	mov	x0, x1
  920570:	d2a00202 	mov	x2, #0x100000              	// #1048576
  920574:	940005eb 	bl	921d20 <mmap_add_region>
  920578:	d2a78001 	mov	x1, #0x3c000000            	// #1006632960
  92057c:	52800103 	mov	w3, #0x8                   	// #8
  920580:	aa0103e0 	mov	x0, x1
  920584:	d2a08002 	mov	x2, #0x4000000             	// #67108864
  920588:	940005e6 	bl	921d20 <mmap_add_region>
  92058c:	d2a00301 	mov	x1, #0x180000              	// #1572864
  920590:	52800143 	mov	w3, #0xa                   	// #10
  920594:	aa0103e0 	mov	x0, x1
  920598:	d2900002 	mov	x2, #0x8000                	// #32768
  92059c:	940005e1 	bl	921d20 <mmap_add_region>
  9205a0:	d2a70661 	mov	x1, #0x38330000            	// #942866432
  9205a4:	aa0103e0 	mov	x0, x1
  9205a8:	52800103 	mov	w3, #0x8                   	// #8
  9205ac:	d2a00202 	mov	x2, #0x100000              	// #1048576
  9205b0:	940005dc 	bl	921d20 <mmap_add_region>
  9205b4:	9400051d 	bl	921a28 <init_xlat_tables>
  9205b8:	a8c17bfd 	ldp	x29, x30, [sp], #16
  9205bc:	52800000 	mov	w0, #0x0                   	// #0
  9205c0:	1400053b 	b	921aac <enable_mmu_el3>

00000000009205c4 <bl31_platform_setup>:
  9205c4:	a9bf7bfd 	stp	x29, x30, [sp, #-16]!
  9205c8:	910003fd 	mov	x29, sp
  9205cc:	9400065c 	bl	921f3c <generic_delay_timer_init>
  9205d0:	d2802480 	mov	x0, #0x124                 	// #292
  9205d4:	52800021 	mov	w1, #0x1                   	// #1
  9205d8:	f2a606c0 	movk	x0, #0x3036, lsl #16
  9205dc:	b9000001 	str	w1, [x0]
  9205e0:	d2a00300 	mov	x0, #0x180000              	// #1572864
  9205e4:	94000ad7 	bl	923140 <dram_info_init>
  9205e8:	94000a5e 	bl	922f60 <plat_gic_driver_init>
  9205ec:	94000a60 	bl	922f6c <plat_gic_init>
  9205f0:	a8c17bfd 	ldp	x29, x30, [sp], #16
  9205f4:	1400025f 	b	920f70 <imx_gpc_init>

00000000009205f8 <bl31_plat_get_next_image_ep_info>:
  9205f8:	7100041f 	cmp	w0, #0x1
  9205fc:	540000c0 	b.eq	920614 <bl31_plat_get_next_image_ep_info+0x1c>  // b.none
  920600:	7100001f 	cmp	w0, #0x0
  920604:	90000061 	adrp	x1, 92c000 <__STACKS_START__+0x1e80>
  920608:	91360020 	add	x0, x1, #0xd80
  92060c:	9a9f0000 	csel	x0, x0, xzr, eq  // eq = none
  920610:	d65f03c0 	ret
  920614:	90000060 	adrp	x0, 92c000 <__STACKS_START__+0x1e80>
  920618:	91376000 	add	x0, x0, #0xdd8
  92061c:	17fffffd 	b	920610 <bl31_plat_get_next_image_ep_info+0x18>

0000000000920620 <plat_get_syscnt_freq2>:
  920620:	52824000 	mov	w0, #0x1200                	// #4608
  920624:	72a00f40 	movk	w0, #0x7a, lsl #16
  920628:	d65f03c0 	ret

000000000092062c <bl31_plat_runtime_setup>:
  92062c:	d65f03c0 	ret

0000000000920630 <imx_is_m4_enabled>:
  920630:	d2800180 	mov	x0, #0xc                   	// #12
  920634:	f2a60720 	movk	x0, #0x3039, lsl #16
  920638:	b9400000 	ldr	w0, [x0]
  92063c:	2a2003e0 	mvn	w0, w0
  920640:	12000000 	and	w0, w0, #0x1
  920644:	d65f03c0 	ret

0000000000920648 <imx_m4_lpa_active>:
  920648:	d2801280 	mov	x0, #0x94                  	// #148
  92064c:	f2a60720 	movk	x0, #0x3039, lsl #16
  920650:	b9400001 	ldr	w1, [x0]
  920654:	528aaaa0 	mov	w0, #0x5555                	// #21845
  920658:	6a00003f 	tst	w1, w0
  92065c:	1a9f07e0 	cset	w0, ne  // ne = any
  920660:	d65f03c0 	ret

0000000000920664 <imx_set_cpu_secure_entry>:
  920664:	531d7000 	lsl	w0, w0, #3
  920668:	52800e82 	mov	w2, #0x74                  	// #116
  92066c:	72a60722 	movk	w2, #0x3039, lsl #16
  920670:	0b020002 	add	w2, w0, w2
  920674:	d3589c23 	ubfx	x3, x1, #24, #16
  920678:	53025c21 	ubfx	w1, w1, #2, #22
  92067c:	93407c42 	sxtw	x2, w2
  920680:	b9000043 	str	w3, [x2]
  920684:	52800f02 	mov	w2, #0x78                  	// #120
  920688:	72a60722 	movk	w2, #0x3039, lsl #16
  92068c:	0b020000 	add	w0, w0, w2
  920690:	93407c00 	sxtw	x0, w0
  920694:	b9000001 	str	w1, [x0]
  920698:	d65f03c0 	ret

000000000092069c <imx_set_cpu_pwr_off>:
  92069c:	7100041f 	cmp	w0, #0x1
  9206a0:	531f7802 	lsl	w2, w0, #1
  9206a4:	11001803 	add	w3, w0, #0x6
  9206a8:	11703800 	add	w0, w0, #0xc0e, lsl #12
  9206ac:	d2800084 	mov	x4, #0x4                   	// #4
  9206b0:	11208000 	add	w0, w0, #0x820
  9206b4:	f2a60744 	movk	x4, #0x303a, lsl #16
  9206b8:	531f7863 	lsl	w3, w3, #1
  9206bc:	531a6400 	lsl	w0, w0, #6
  9206c0:	52800021 	mov	w1, #0x1                   	// #1
  9206c4:	b9400085 	ldr	w5, [x4]
  9206c8:	1ac22022 	lsl	w2, w1, w2
  9206cc:	93407c00 	sxtw	x0, w0
  9206d0:	1ac32021 	lsl	w1, w1, w3
  9206d4:	1a82c021 	csel	w1, w1, w2, gt
  9206d8:	2a050021 	orr	w1, w1, w5
  9206dc:	b9000081 	str	w1, [x4]
  9206e0:	b9400001 	ldr	w1, [x0]
  9206e4:	32000021 	orr	w1, w1, #0x1
  9206e8:	b9000001 	str	w1, [x0]
  9206ec:	d65f03c0 	ret

00000000009206f0 <imx_set_cpu_pwr_on>:
  9206f0:	11001803 	add	w3, w0, #0x6
  9206f4:	d2800084 	mov	x4, #0x4                   	// #4
  9206f8:	f2a60744 	movk	x4, #0x303a, lsl #16
  9206fc:	531f7802 	lsl	w2, w0, #1
  920700:	531f7863 	lsl	w3, w3, #1
  920704:	52800021 	mov	w1, #0x1                   	// #1
  920708:	b9400085 	ldr	w5, [x4]
  92070c:	6b01001f 	cmp	w0, w1
  920710:	1ac22022 	lsl	w2, w1, w2
  920714:	1ac32023 	lsl	w3, w1, w3
  920718:	2a2303e3 	mvn	w3, w3
  92071c:	1ac02021 	lsl	w1, w1, w0
  920720:	11703800 	add	w0, w0, #0xc0e, lsl #12
  920724:	5a82c062 	csinv	w2, w3, w2, gt
  920728:	11208000 	add	w0, w0, #0x820
  92072c:	d2800103 	mov	x3, #0x8                   	// #8
  920730:	0a050042 	and	w2, w2, w5
  920734:	f2a60723 	movk	x3, #0x3039, lsl #16
  920738:	b9000082 	str	w2, [x4]
  92073c:	531a6400 	lsl	w0, w0, #6
  920740:	b9400062 	ldr	w2, [x3]
  920744:	93407c00 	sxtw	x0, w0
  920748:	0a210042 	bic	w2, w2, w1
  92074c:	b9000062 	str	w2, [x3]
  920750:	b9400002 	ldr	w2, [x0]
  920754:	32000042 	orr	w2, w2, #0x1
  920758:	b9000002 	str	w2, [x0]
  92075c:	d2801e02 	mov	x2, #0xf0                  	// #240
  920760:	f2a60742 	movk	x2, #0x303a, lsl #16
  920764:	b9400043 	ldr	w3, [x2]
  920768:	2a030023 	orr	w3, w1, w3
  92076c:	b9000043 	str	w3, [x2]
  920770:	b9400043 	ldr	w3, [x2]
  920774:	6a03003f 	tst	w1, w3
  920778:	54ffffc1 	b.ne	920770 <imx_set_cpu_pwr_on+0x80>  // b.any
  92077c:	b9400002 	ldr	w2, [x0]
  920780:	121f7842 	and	w2, w2, #0xfffffffe
  920784:	b9000002 	str	w2, [x0]
  920788:	d2800100 	mov	x0, #0x8                   	// #8
  92078c:	f2a60720 	movk	x0, #0x3039, lsl #16
  920790:	b9400002 	ldr	w2, [x0]
  920794:	2a020021 	orr	w1, w1, w2
  920798:	b9000001 	str	w1, [x0]
  92079c:	d65f03c0 	ret

00000000009207a0 <imx_set_cpu_lpm>:
  9207a0:	d2800085 	mov	x5, #0x4                   	// #4
  9207a4:	11703803 	add	w3, w0, #0xc0e, lsl #12
  9207a8:	f2a60745 	movk	x5, #0x303a, lsl #16
  9207ac:	72001c3f 	tst	w1, #0xff
  9207b0:	11208063 	add	w3, w3, #0x820
  9207b4:	b94000a6 	ldr	w6, [x5]
  9207b8:	54000340 	b.eq	920820 <imx_set_cpu_lpm+0x80>  // b.none
  9207bc:	531f7802 	lsl	w2, w0, #1
  9207c0:	52800021 	mov	w1, #0x1                   	// #1
  9207c4:	6b01001f 	cmp	w0, w1
  9207c8:	531a6463 	lsl	w3, w3, #6
  9207cc:	1ac22024 	lsl	w4, w1, w2
  9207d0:	11001802 	add	w2, w0, #0x6
  9207d4:	93407c63 	sxtw	x3, w3
  9207d8:	531f7842 	lsl	w2, w2, #1
  9207dc:	1ac22022 	lsl	w2, w1, w2
  9207e0:	1a84c042 	csel	w2, w2, w4, gt
  9207e4:	2a060042 	orr	w2, w2, w6
  9207e8:	11001004 	add	w4, w0, #0x4
  9207ec:	11002806 	add	w6, w0, #0xa
  9207f0:	7100041f 	cmp	w0, #0x1
  9207f4:	531f7884 	lsl	w4, w4, #1
  9207f8:	531f78c6 	lsl	w6, w6, #1
  9207fc:	1ac42024 	lsl	w4, w1, w4
  920800:	1ac62021 	lsl	w1, w1, w6
  920804:	1a84c021 	csel	w1, w1, w4, gt
  920808:	2a020021 	orr	w1, w1, w2
  92080c:	b90000a1 	str	w1, [x5]
  920810:	b9400060 	ldr	w0, [x3]
  920814:	32000000 	orr	w0, w0, #0x1
  920818:	b9000060 	str	w0, [x3]
  92081c:	d65f03c0 	ret
  920820:	11001801 	add	w1, w0, #0x6
  920824:	52800022 	mov	w2, #0x1                   	// #1
  920828:	531f7804 	lsl	w4, w0, #1
  92082c:	6b02001f 	cmp	w0, w2
  920830:	531f7821 	lsl	w1, w1, #1
  920834:	1ac42044 	lsl	w4, w2, w4
  920838:	1ac12041 	lsl	w1, w2, w1
  92083c:	2a2103e1 	mvn	w1, w1
  920840:	5a84c024 	csinv	w4, w1, w4, gt
  920844:	11001001 	add	w1, w0, #0x4
  920848:	0a060084 	and	w4, w4, w6
  92084c:	11002806 	add	w6, w0, #0xa
  920850:	531f7821 	lsl	w1, w1, #1
  920854:	7100041f 	cmp	w0, #0x1
  920858:	531f78c6 	lsl	w6, w6, #1
  92085c:	1ac12041 	lsl	w1, w2, w1
  920860:	1ac62042 	lsl	w2, w2, w6
  920864:	2a2203e2 	mvn	w2, w2
  920868:	5a81c040 	csinv	w0, w2, w1, gt
  92086c:	0a040000 	and	w0, w0, w4
  920870:	b90000a0 	str	w0, [x5]
  920874:	531a6460 	lsl	w0, w3, #6
  920878:	93407c00 	sxtw	x0, w0
  92087c:	b9400001 	ldr	w1, [x0]
  920880:	121f7821 	and	w1, w1, #0xfffffffe
  920884:	b9000001 	str	w1, [x0]
  920888:	17ffffe5 	b	92081c <imx_set_cpu_lpm+0x7c>

000000000092088c <imx_a53_plat_slot_config>:
  92088c:	d2801604 	mov	x4, #0xb0                  	// #176
  920890:	d2801783 	mov	x3, #0xbc                  	// #188
  920894:	d2812007 	mov	x7, #0x900                 	// #2304
  920898:	f2a60744 	movk	x4, #0x303a, lsl #16
  92089c:	f2a60747 	movk	x7, #0x303a, lsl #16
  9208a0:	f2a60743 	movk	x3, #0x303a, lsl #16
  9208a4:	b9400082 	ldr	w2, [x4]
  9208a8:	72001c1f 	tst	w0, #0xff
  9208ac:	b9400061 	ldr	w1, [x3]
  9208b0:	b94000e6 	ldr	w6, [x7]
  9208b4:	320000c5 	orr	w5, w6, #0x1
  9208b8:	b90000e5 	str	w5, [x7]
  9208bc:	540001a0 	b.eq	9208f0 <imx_a53_plat_slot_config+0x64>  // b.none
  9208c0:	32180042 	orr	w2, w2, #0x100
  9208c4:	32170021 	orr	w1, w1, #0x200
  9208c8:	320e83e0 	mov	w0, #0x40004               	// #262148
  9208cc:	b9000082 	str	w2, [x4]
  9208d0:	b9000061 	str	w1, [x3]
  9208d4:	d2800481 	mov	x1, #0x24                  	// #36
  9208d8:	f2a60741 	movk	x1, #0x303a, lsl #16
  9208dc:	b9000020 	str	w0, [x1]
  9208e0:	d2812000 	mov	x0, #0x900                 	// #2304
  9208e4:	f2a60740 	movk	x0, #0x303a, lsl #16
  9208e8:	b9000005 	str	w5, [x0]
  9208ec:	d65f03c0 	ret
  9208f0:	12177842 	and	w2, w2, #0xfffffeff
  9208f4:	12167821 	and	w1, w1, #0xfffffdff
  9208f8:	121f78c5 	and	w5, w6, #0xfffffffe
  9208fc:	320183e0 	mov	w0, #0x80008000            	// #-2147450880
  920900:	17fffff3 	b	9208cc <imx_a53_plat_slot_config+0x40>

0000000000920904 <imx_noc_slot_config>:
  920904:	d2801686 	mov	x6, #0xb4                  	// #180
  920908:	d2801705 	mov	x5, #0xb8                  	// #184
  92090c:	d2800481 	mov	x1, #0x24                  	// #36
  920910:	d2814802 	mov	x2, #0xa40                 	// #2624
  920914:	f2a60746 	movk	x6, #0x303a, lsl #16
  920918:	f2a60745 	movk	x5, #0x303a, lsl #16
  92091c:	f2a60741 	movk	x1, #0x303a, lsl #16
  920920:	f2a60742 	movk	x2, #0x303a, lsl #16
  920924:	b94000c4 	ldr	w4, [x6]
  920928:	72001c1f 	tst	w0, #0xff
  92092c:	b94000a3 	ldr	w3, [x5]
  920930:	b9400021 	ldr	w1, [x1]
  920934:	b9400042 	ldr	w2, [x2]
  920938:	540001e0 	b.eq	920974 <imx_noc_slot_config+0x70>  // b.none
  92093c:	12103c20 	and	w0, w1, #0xffff0000
  920940:	32160084 	orr	w4, w4, #0x400
  920944:	32150063 	orr	w3, w3, #0x800
  920948:	321d0000 	orr	w0, w0, #0x8
  92094c:	32000042 	orr	w2, w2, #0x1
  920950:	d2800481 	mov	x1, #0x24                  	// #36
  920954:	b90000c4 	str	w4, [x6]
  920958:	f2a60741 	movk	x1, #0x303a, lsl #16
  92095c:	b90000a3 	str	w3, [x5]
  920960:	b9000020 	str	w0, [x1]
  920964:	d2814800 	mov	x0, #0xa40                 	// #2624
  920968:	f2a60740 	movk	x0, #0x303a, lsl #16
  92096c:	b9000002 	str	w2, [x0]
  920970:	d65f03c0 	ret
  920974:	12157884 	and	w4, w4, #0xfffffbff
  920978:	12147863 	and	w3, w3, #0xfffff7ff
  92097c:	121f7842 	and	w2, w2, #0xfffffffe
  920980:	320183e0 	mov	w0, #0x80008000            	// #-2147450880
  920984:	17fffff3 	b	920950 <imx_noc_slot_config+0x4c>

0000000000920988 <imx_set_cluster_powerdown>:
  920988:	72001c21 	ands	w1, w1, #0xff
  92098c:	d2a60748 	mov	x8, #0x303a0000            	// #809107456
  920990:	54000380 	b.eq	920a00 <imx_set_cluster_powerdown+0x78>  // b.none
  920994:	b9400102 	ldr	w2, [x8]
  920998:	7100043f 	cmp	w1, #0x1
  92099c:	52800143 	mov	w3, #0xa                   	// #10
  9209a0:	528000a0 	mov	w0, #0x5                   	// #5
  9209a4:	1a830000 	csel	w0, w0, w3, eq  // eq = none
  9209a8:	51000c21 	sub	w1, w1, #0x3
  9209ac:	2a020002 	orr	w2, w0, w2
  9209b0:	7100043f 	cmp	w1, #0x1
  9209b4:	12117842 	and	w2, w2, #0xffffbfff
  9209b8:	b9000102 	str	w2, [x8]
  9209bc:	d2802102 	mov	x2, #0x108                 	// #264
  9209c0:	f2a60742 	movk	x2, #0x303a, lsl #16
  9209c4:	b9400043 	ldr	w3, [x2]
  9209c8:	2a030000 	orr	w0, w0, w3
  9209cc:	d2800083 	mov	x3, #0x4                   	// #4
  9209d0:	b9000040 	str	w0, [x2]
  9209d4:	f2a60743 	movk	x3, #0x303a, lsl #16
  9209d8:	52800202 	mov	w2, #0x10                  	// #16
  9209dc:	b9400060 	ldr	w0, [x3]
  9209e0:	72b00002 	movk	w2, #0x8000, lsl #16
  9209e4:	121a7800 	and	w0, w0, #0xffffffdf
  9209e8:	2a020002 	orr	w2, w0, w2
  9209ec:	321c0000 	orr	w0, w0, #0x10
  9209f0:	1a828000 	csel	w0, w0, w2, hi  // hi = pmore
  9209f4:	b9000060 	str	w0, [x3]
  9209f8:	52800020 	mov	w0, #0x1                   	// #1
  9209fc:	17ffffa4 	b	92088c <imx_a53_plat_slot_config>
  920a00:	a9bf7bfd 	stp	x29, x30, [sp, #-16]!
  920a04:	52800000 	mov	w0, #0x0                   	// #0
  920a08:	910003fd 	mov	x29, sp
  920a0c:	97ffffa0 	bl	92088c <imx_a53_plat_slot_config>
  920a10:	b9400100 	ldr	w0, [x8]
  920a14:	d2802101 	mov	x1, #0x108                 	// #264
  920a18:	121c6c00 	and	w0, w0, #0xfffffff0
  920a1c:	f2a60741 	movk	x1, #0x303a, lsl #16
  920a20:	32120000 	orr	w0, w0, #0x4000
  920a24:	b9000100 	str	w0, [x8]
  920a28:	b9400020 	ldr	w0, [x1]
  920a2c:	121c6c00 	and	w0, w0, #0xfffffff0
  920a30:	b9000020 	str	w0, [x1]
  920a34:	d2800081 	mov	x1, #0x4                   	// #4
  920a38:	f2a60741 	movk	x1, #0x303a, lsl #16
  920a3c:	b9400020 	ldr	w0, [x1]
  920a40:	12007800 	and	w0, w0, #0x7fffffff
  920a44:	121b7800 	and	w0, w0, #0xffffffef
  920a48:	321b0000 	orr	w0, w0, #0x20
  920a4c:	b9000020 	str	w0, [x1]
  920a50:	a8c17bfd 	ldp	x29, x30, [sp], #16
  920a54:	d65f03c0 	ret

0000000000920a58 <imx_set_sys_lpm>:
  920a58:	d2800282 	mov	x2, #0x14                  	// #20
  920a5c:	a9bf7bfd 	stp	x29, x30, [sp, #-16]!
  920a60:	f2a60742 	movk	x2, #0x303a, lsl #16
  920a64:	72001c1f 	tst	w0, #0xff
  920a68:	910003fd 	mov	x29, sp
  920a6c:	b9400041 	ldr	w1, [x2]
  920a70:	121d6821 	and	w1, w1, #0x3ffffff8
  920a74:	120e7821 	and	w1, w1, #0xfffdffff
  920a78:	54000040 	b.eq	920a80 <imx_set_sys_lpm+0x28>  // b.none
  920a7c:	32021021 	orr	w1, w1, #0xc0000007
  920a80:	b9000041 	str	w1, [x2]
  920a84:	97fffeeb 	bl	920630 <imx_is_m4_enabled>
  920a88:	72001c1f 	tst	w0, #0xff
  920a8c:	54000120 	b.eq	920ab0 <imx_set_sys_lpm+0x58>  // b.none
  920a90:	97fffeee 	bl	920648 <imx_m4_lpa_active>
  920a94:	72001c1f 	tst	w0, #0xff
  920a98:	540000c0 	b.eq	920ab0 <imx_set_sys_lpm+0x58>  // b.none
  920a9c:	b9400040 	ldr	w0, [x2]
  920aa0:	320f0000 	orr	w0, w0, #0x20000
  920aa4:	b9000040 	str	w0, [x2]
  920aa8:	a8c17bfd 	ldp	x29, x30, [sp], #16
  920aac:	d65f03c0 	ret
  920ab0:	97fffee0 	bl	920630 <imx_is_m4_enabled>
  920ab4:	72001c1f 	tst	w0, #0xff
  920ab8:	54ffff81 	b.ne	920aa8 <imx_set_sys_lpm+0x50>  // b.any
  920abc:	d2800101 	mov	x1, #0x8                   	// #8
  920ac0:	f2a60741 	movk	x1, #0x303a, lsl #16
  920ac4:	b9400020 	ldr	w0, [x1]
  920ac8:	32010000 	orr	w0, w0, #0x80000000
  920acc:	b9000020 	str	w0, [x1]
  920ad0:	17fffff6 	b	920aa8 <imx_set_sys_lpm+0x50>

0000000000920ad4 <imx_set_rbc_count>:
  920ad4:	d2800281 	mov	x1, #0x14                  	// #20
  920ad8:	52a90002 	mov	w2, #0x48000000            	// #1207959552
  920adc:	f2a60741 	movk	x1, #0x303a, lsl #16
  920ae0:	b9400020 	ldr	w0, [x1]
  920ae4:	2a020000 	orr	w0, w0, w2
  920ae8:	b9000020 	str	w0, [x1]
  920aec:	d65f03c0 	ret

0000000000920af0 <imx_clear_rbc_count>:
  920af0:	d2800281 	mov	x1, #0x14                  	// #20
  920af4:	f2a60741 	movk	x1, #0x303a, lsl #16
  920af8:	b9400020 	ldr	w0, [x1]
  920afc:	12016000 	and	w0, w0, #0x80ffffff
  920b00:	b9000020 	str	w0, [x1]
  920b04:	d65f03c0 	ret

0000000000920b08 <imx_anamix_pre_suspend>:
  920b08:	a9bf7bfd 	stp	x29, x30, [sp, #-16]!
  920b0c:	910003fd 	mov	x29, sp
  920b10:	97fffec8 	bl	920630 <imx_is_m4_enabled>
  920b14:	72001c1f 	tst	w0, #0xff
  920b18:	540006c1 	b.ne	920bf0 <imx_anamix_pre_suspend+0xe8>  // b.any
  920b1c:	90000043 	adrp	x3, 928000 <unsigned_num_print+0x1c>
  920b20:	9117c063 	add	x3, x3, #0x5f0
  920b24:	d2800001 	mov	x1, #0x0                   	// #0
  920b28:	52a606c4 	mov	w4, #0x30360000            	// #808845312
  920b2c:	b8617860 	ldr	w0, [x3, x1, lsl #2]
  920b30:	91000421 	add	x1, x1, #0x1
  920b34:	f100283f 	cmp	x1, #0xa
  920b38:	0b040000 	add	w0, w0, w4
  920b3c:	93407c00 	sxtw	x0, w0
  920b40:	b9400002 	ldr	w2, [x0]
  920b44:	321c0042 	orr	w2, w2, #0x10
  920b48:	b9000002 	str	w2, [x0]
  920b4c:	54ffff01 	b.ne	920b2c <imx_anamix_pre_suspend+0x24>  // b.any
  920b50:	d2a606c2 	mov	x2, #0x30360000            	// #808845312
  920b54:	52822000 	mov	w0, #0x1100                	// #4352
  920b58:	528aa003 	mov	w3, #0x5500                	// #21760
  920b5c:	b9400041 	ldr	w1, [x2]
  920b60:	72a0aaa3 	movk	w3, #0x555, lsl #16
  920b64:	2a000021 	orr	w1, w1, w0
  920b68:	b9000041 	str	w1, [x2]
  920b6c:	b9401441 	ldr	w1, [x2, #20]
  920b70:	2a000021 	orr	w1, w1, w0
  920b74:	b9001441 	str	w1, [x2, #20]
  920b78:	b9402841 	ldr	w1, [x2, #40]
  920b7c:	2a000021 	orr	w1, w1, w0
  920b80:	b9002841 	str	w1, [x2, #40]
  920b84:	b9405041 	ldr	w1, [x2, #80]
  920b88:	2a000020 	orr	w0, w1, w0
  920b8c:	b9005040 	str	w0, [x2, #80]
  920b90:	5280a000 	mov	w0, #0x500                 	// #1280
  920b94:	b9406441 	ldr	w1, [x2, #100]
  920b98:	2a000021 	orr	w1, w1, w0
  920b9c:	b9006441 	str	w1, [x2, #100]
  920ba0:	b9407441 	ldr	w1, [x2, #116]
  920ba4:	2a000021 	orr	w1, w1, w0
  920ba8:	b9007441 	str	w1, [x2, #116]
  920bac:	b9408441 	ldr	w1, [x2, #132]
  920bb0:	2a000021 	orr	w1, w1, w0
  920bb4:	b9008441 	str	w1, [x2, #132]
  920bb8:	d2801281 	mov	x1, #0x94                  	// #148
  920bbc:	f2a606c1 	movk	x1, #0x3036, lsl #16
  920bc0:	b9400022 	ldr	w2, [x1]
  920bc4:	2a030042 	orr	w2, w2, w3
  920bc8:	b9000022 	str	w2, [x1]
  920bcc:	d2802082 	mov	x2, #0x104                 	// #260
  920bd0:	f2a606c2 	movk	x2, #0x3036, lsl #16
  920bd4:	b9400041 	ldr	w1, [x2]
  920bd8:	2a030021 	orr	w1, w1, w3
  920bdc:	b9000041 	str	w1, [x2]
  920be0:	b9401041 	ldr	w1, [x2, #16]
  920be4:	2a000020 	orr	w0, w1, w0
  920be8:	b9001040 	str	w0, [x2, #16]
  920bec:	14000004 	b	920bfc <imx_anamix_pre_suspend+0xf4>
  920bf0:	97fffe96 	bl	920648 <imx_m4_lpa_active>
  920bf4:	72001c1f 	tst	w0, #0xff
  920bf8:	54fff920 	b.eq	920b1c <imx_anamix_pre_suspend+0x14>  // b.none
  920bfc:	a8c17bfd 	ldp	x29, x30, [sp], #16
  920c00:	d65f03c0 	ret

0000000000920c04 <imx_anamix_post_resume>:
  920c04:	a9bf7bfd 	stp	x29, x30, [sp, #-16]!
  920c08:	910003fd 	mov	x29, sp
  920c0c:	97fffe89 	bl	920630 <imx_is_m4_enabled>
  920c10:	72001c1f 	tst	w0, #0xff
  920c14:	540006c1 	b.ne	920cec <imx_anamix_post_resume+0xe8>  // b.any
  920c18:	90000043 	adrp	x3, 928000 <unsigned_num_print+0x1c>
  920c1c:	9117c063 	add	x3, x3, #0x5f0
  920c20:	d2800001 	mov	x1, #0x0                   	// #0
  920c24:	52a606c4 	mov	w4, #0x30360000            	// #808845312
  920c28:	b8617860 	ldr	w0, [x3, x1, lsl #2]
  920c2c:	91000421 	add	x1, x1, #0x1
  920c30:	f100283f 	cmp	x1, #0xa
  920c34:	0b040000 	add	w0, w0, w4
  920c38:	93407c00 	sxtw	x0, w0
  920c3c:	b9400002 	ldr	w2, [x0]
  920c40:	121b7842 	and	w2, w2, #0xffffffef
  920c44:	b9000002 	str	w2, [x0]
  920c48:	54ffff01 	b.ne	920c28 <imx_anamix_post_resume+0x24>  // b.any
  920c4c:	d2a606c2 	mov	x2, #0x30360000            	// #808845312
  920c50:	12822000 	mov	w0, #0xffffeeff            	// #-4353
  920c54:	52955fe3 	mov	w3, #0xaaff                	// #43775
  920c58:	b9400041 	ldr	w1, [x2]
  920c5c:	72bf5543 	movk	w3, #0xfaaa, lsl #16
  920c60:	0a000021 	and	w1, w1, w0
  920c64:	b9000041 	str	w1, [x2]
  920c68:	b9401441 	ldr	w1, [x2, #20]
  920c6c:	0a000021 	and	w1, w1, w0
  920c70:	b9001441 	str	w1, [x2, #20]
  920c74:	b9402841 	ldr	w1, [x2, #40]
  920c78:	0a000021 	and	w1, w1, w0
  920c7c:	b9002841 	str	w1, [x2, #40]
  920c80:	b9405041 	ldr	w1, [x2, #80]
  920c84:	0a000020 	and	w0, w1, w0
  920c88:	b9005040 	str	w0, [x2, #80]
  920c8c:	1280a000 	mov	w0, #0xfffffaff            	// #-1281
  920c90:	b9406441 	ldr	w1, [x2, #100]
  920c94:	0a000021 	and	w1, w1, w0
  920c98:	b9006441 	str	w1, [x2, #100]
  920c9c:	b9407441 	ldr	w1, [x2, #116]
  920ca0:	0a000021 	and	w1, w1, w0
  920ca4:	b9007441 	str	w1, [x2, #116]
  920ca8:	b9408441 	ldr	w1, [x2, #132]
  920cac:	0a000021 	and	w1, w1, w0
  920cb0:	b9008441 	str	w1, [x2, #132]
  920cb4:	d2801281 	mov	x1, #0x94                  	// #148
  920cb8:	f2a606c1 	movk	x1, #0x3036, lsl #16
  920cbc:	b9400022 	ldr	w2, [x1]
  920cc0:	0a030042 	and	w2, w2, w3
  920cc4:	b9000022 	str	w2, [x1]
  920cc8:	d2802082 	mov	x2, #0x104                 	// #260
  920ccc:	f2a606c2 	movk	x2, #0x3036, lsl #16
  920cd0:	b9400041 	ldr	w1, [x2]
  920cd4:	0a030021 	and	w1, w1, w3
  920cd8:	b9000041 	str	w1, [x2]
  920cdc:	b9401041 	ldr	w1, [x2, #16]
  920ce0:	0a000020 	and	w0, w1, w0
  920ce4:	b9001040 	str	w0, [x2, #16]
  920ce8:	14000004 	b	920cf8 <imx_anamix_post_resume+0xf4>
  920cec:	97fffe57 	bl	920648 <imx_m4_lpa_active>
  920cf0:	72001c1f 	tst	w0, #0xff
  920cf4:	54fff920 	b.eq	920c18 <imx_anamix_post_resume+0x14>  // b.none
  920cf8:	a8c17bfd 	ldp	x29, x30, [sp], #16
  920cfc:	d65f03c0 	ret

0000000000920d00 <noc_wrapper_pre_suspend>:
  920d00:	2a0003e7 	mov	w7, w0
  920d04:	a9bf7bfd 	stp	x29, x30, [sp, #-16]!
  920d08:	910003fd 	mov	x29, sp
  920d0c:	97fffe49 	bl	920630 <imx_is_m4_enabled>
  920d10:	72001c1f 	tst	w0, #0xff
  920d14:	540001c1 	b.ne	920d4c <noc_wrapper_pre_suspend+0x4c>  // b.any
  920d18:	d2a60741 	mov	x1, #0x303a0000            	// #809107456
  920d1c:	b9400020 	ldr	w0, [x1]
  920d20:	12177400 	and	w0, w0, #0xfffffe7f
  920d24:	b9000020 	str	w0, [x1]
  920d28:	b9401820 	ldr	w0, [x1, #24]
  920d2c:	321f0400 	orr	w0, w0, #0x6
  920d30:	b9001820 	str	w0, [x1, #24]
  920d34:	f0000060 	adrp	x0, 92f000 <imx_gicv3_ctx+0x21d0>
  920d38:	b946b000 	ldr	w0, [x0, #1712]
  920d3c:	350000e0 	cbnz	w0, 920d58 <noc_wrapper_pre_suspend+0x58>
  920d40:	52800020 	mov	w0, #0x1                   	// #1
  920d44:	97fffef0 	bl	920904 <imx_noc_slot_config>
  920d48:	14000004 	b	920d58 <noc_wrapper_pre_suspend+0x58>
  920d4c:	97fffe3f 	bl	920648 <imx_m4_lpa_active>
  920d50:	72001c1f 	tst	w0, #0xff
  920d54:	54fffe20 	b.eq	920d18 <noc_wrapper_pre_suspend+0x18>  // b.none
  920d58:	a8c17bfd 	ldp	x29, x30, [sp], #16
  920d5c:	90000061 	adrp	x1, 92c000 <__STACKS_START__+0x1e80>
  920d60:	2a0703e0 	mov	w0, w7
  920d64:	9138c021 	add	x1, x1, #0xe30
  920d68:	14000898 	b	922fc8 <plat_gic_save>

0000000000920d6c <noc_wrapper_post_resume>:
  920d6c:	a9be7bfd 	stp	x29, x30, [sp, #-32]!
  920d70:	910003fd 	mov	x29, sp
  920d74:	f9000bf3 	str	x19, [sp, #16]
  920d78:	2a0003f3 	mov	w19, w0
  920d7c:	97fffe2d 	bl	920630 <imx_is_m4_enabled>
  920d80:	72001c1f 	tst	w0, #0xff
  920d84:	54000301 	b.ne	920de4 <noc_wrapper_post_resume+0x78>  // b.any
  920d88:	d2a60741 	mov	x1, #0x303a0000            	// #809107456
  920d8c:	b9400020 	ldr	w0, [x1]
  920d90:	32190400 	orr	w0, w0, #0x180
  920d94:	b9000020 	str	w0, [x1]
  920d98:	b9401820 	ldr	w0, [x1, #24]
  920d9c:	121d7400 	and	w0, w0, #0xfffffff9
  920da0:	b9001820 	str	w0, [x1, #24]
  920da4:	f0000060 	adrp	x0, 92f000 <imx_gicv3_ctx+0x21d0>
  920da8:	b946b000 	ldr	w0, [x0, #1712]
  920dac:	35000220 	cbnz	w0, 920df0 <noc_wrapper_post_resume+0x84>
  920db0:	d2800500 	mov	x0, #0x28                  	// #40
  920db4:	f2a60680 	movk	x0, #0x3034, lsl #16
  920db8:	b9400000 	ldr	w0, [x0]
  920dbc:	360000e0 	tbz	w0, #0, 920dd8 <noc_wrapper_post_resume+0x6c>
  920dc0:	d2a65f00 	mov	x0, #0x32f80000            	// #855113728
  920dc4:	94000ef6 	bl	92499c <tzc380_init>
  920dc8:	320427e2 	mov	w2, #0xf000003f            	// #-268435393
  920dcc:	d2800001 	mov	x1, #0x0                   	// #0
  920dd0:	52800000 	mov	w0, #0x0                   	// #0
  920dd4:	94000efd 	bl	9249c8 <tzc380_configure_region>
  920dd8:	52800000 	mov	w0, #0x0                   	// #0
  920ddc:	97fffeca 	bl	920904 <imx_noc_slot_config>
  920de0:	14000004 	b	920df0 <noc_wrapper_post_resume+0x84>
  920de4:	97fffe19 	bl	920648 <imx_m4_lpa_active>
  920de8:	72001c1f 	tst	w0, #0xff
  920dec:	54fffce0 	b.eq	920d88 <noc_wrapper_post_resume+0x1c>  // b.none
  920df0:	2a1303e0 	mov	w0, w19
  920df4:	f9400bf3 	ldr	x19, [sp, #16]
  920df8:	a8c27bfd 	ldp	x29, x30, [sp], #32
  920dfc:	90000061 	adrp	x1, 92c000 <__STACKS_START__+0x1e80>
  920e00:	9138c021 	add	x1, x1, #0xe30
  920e04:	14000884 	b	923014 <plat_gic_restore>

0000000000920e08 <imx_set_sys_wakeup>:
  920e08:	a9bf7bfd 	stp	x29, x30, [sp, #-16]!
  920e0c:	d2a60742 	mov	x2, #0x303a0000            	// #809107456
  920e10:	72001c21 	ands	w1, w1, #0xff
  920e14:	910003fd 	mov	x29, sp
  920e18:	b9400042 	ldr	w2, [x2]
  920e1c:	54000560 	b.eq	920ec8 <imx_set_sys_wakeup+0xc0>  // b.none
  920e20:	32020043 	orr	w3, w2, #0x40000000
  920e24:	11005005 	add	w5, w0, #0x14
  920e28:	11007002 	add	w2, w0, #0x1c
  920e2c:	52800024 	mov	w4, #0x1                   	// #1
  920e30:	7100041f 	cmp	w0, #0x1
  920e34:	1ac22082 	lsl	w2, w4, w2
  920e38:	1ac52084 	lsl	w4, w4, w5
  920e3c:	2a2403e4 	mvn	w4, w4
  920e40:	5a82c082 	csinv	w2, w4, w2, gt
  920e44:	0a030042 	and	w2, w2, w3
  920e48:	90000043 	adrp	x3, 928000 <unsigned_num_print+0x1c>
  920e4c:	91178063 	add	x3, x3, #0x5e0
  920e50:	d2a60744 	mov	x4, #0x303a0000            	// #809107456
  920e54:	d0000045 	adrp	x5, 92a000 <__RO_END__>
  920e58:	910000a5 	add	x5, x5, #0x0
  920e5c:	b9000082 	str	w2, [x4]
  920e60:	b860d862 	ldr	w2, [x3, w0, sxtw #2]
  920e64:	d2800000 	mov	x0, #0x0                   	// #0
  920e68:	0b040042 	add	w2, w2, w4
  920e6c:	90000064 	adrp	x4, 92c000 <__STACKS_START__+0x1e80>
  920e70:	9138c084 	add	x4, x4, #0xe30
  920e74:	340003e1 	cbz	w1, 920ef0 <imx_set_sys_wakeup+0xe8>
  920e78:	8b040003 	add	x3, x0, x4
  920e7c:	b8656806 	ldr	w6, [x0, x5]
  920e80:	b960c063 	ldr	w3, [x3, #8384]
  920e84:	2a2300c3 	orn	w3, w6, w3
  920e88:	2a0203e6 	mov	w6, w2
  920e8c:	91001000 	add	x0, x0, #0x4
  920e90:	11001042 	add	w2, w2, #0x4
  920e94:	f100401f 	cmp	x0, #0x10
  920e98:	b90000c3 	str	w3, [x6]
  920e9c:	54fffec1 	b.ne	920e74 <imx_set_sys_wakeup+0x6c>  // b.any
  920ea0:	97fffde4 	bl	920630 <imx_is_m4_enabled>
  920ea4:	72001c1f 	tst	w0, #0xff
  920ea8:	540000c0 	b.eq	920ec0 <imx_set_sys_wakeup+0xb8>  // b.none
  920eac:	d2800701 	mov	x1, #0x38                  	// #56
  920eb0:	f2a60741 	movk	x1, #0x303a, lsl #16
  920eb4:	b9400020 	ldr	w0, [x1]
  920eb8:	12077800 	and	w0, w0, #0xfeffffff
  920ebc:	b9000020 	str	w0, [x1]
  920ec0:	a8c17bfd 	ldp	x29, x30, [sp], #16
  920ec4:	d65f03c0 	ret
  920ec8:	12017844 	and	w4, w2, #0xbfffffff
  920ecc:	11007002 	add	w2, w0, #0x1c
  920ed0:	52800023 	mov	w3, #0x1                   	// #1
  920ed4:	6b03001f 	cmp	w0, w3
  920ed8:	1ac22065 	lsl	w5, w3, w2
  920edc:	11005002 	add	w2, w0, #0x14
  920ee0:	1ac22062 	lsl	w2, w3, w2
  920ee4:	1a85c042 	csel	w2, w2, w5, gt
  920ee8:	2a040042 	orr	w2, w2, w4
  920eec:	17ffffd7 	b	920e48 <imx_set_sys_wakeup+0x40>
  920ef0:	12800003 	mov	w3, #0xffffffff            	// #-1
  920ef4:	17ffffe5 	b	920e88 <imx_set_sys_wakeup+0x80>

0000000000920ef8 <vpu_sft_reset_assert>:
  920ef8:	d2a70662 	mov	x2, #0x38330000            	// #942866432
  920efc:	71001c1f 	cmp	w0, #0x7
  920f00:	b9400041 	ldr	w1, [x2]
  920f04:	54000100 	b.eq	920f24 <vpu_sft_reset_assert+0x2c>  // b.none
  920f08:	7100201f 	cmp	w0, #0x8
  920f0c:	54000100 	b.eq	920f2c <vpu_sft_reset_assert+0x34>  // b.none
  920f10:	7100181f 	cmp	w0, #0x6
  920f14:	54000061 	b.ne	920f20 <vpu_sft_reset_assert+0x28>  // b.any
  920f18:	121e7821 	and	w1, w1, #0xfffffffd
  920f1c:	b9000041 	str	w1, [x2]
  920f20:	d65f03c0 	ret
  920f24:	121f7821 	and	w1, w1, #0xfffffffe
  920f28:	17fffffd 	b	920f1c <vpu_sft_reset_assert+0x24>
  920f2c:	121d7821 	and	w1, w1, #0xfffffffb
  920f30:	17fffffb 	b	920f1c <vpu_sft_reset_assert+0x24>

0000000000920f34 <vpu_sft_reset_deassert>:
  920f34:	d2a70662 	mov	x2, #0x38330000            	// #942866432
  920f38:	71001c1f 	cmp	w0, #0x7
  920f3c:	b9400041 	ldr	w1, [x2]
  920f40:	54000100 	b.eq	920f60 <vpu_sft_reset_deassert+0x2c>  // b.none
  920f44:	7100201f 	cmp	w0, #0x8
  920f48:	54000100 	b.eq	920f68 <vpu_sft_reset_deassert+0x34>  // b.none
  920f4c:	7100181f 	cmp	w0, #0x6
  920f50:	54000061 	b.ne	920f5c <vpu_sft_reset_deassert+0x28>  // b.any
  920f54:	321f0021 	orr	w1, w1, #0x2
  920f58:	b9000041 	str	w1, [x2]
  920f5c:	d65f03c0 	ret
  920f60:	32000021 	orr	w1, w1, #0x1
  920f64:	17fffffd 	b	920f58 <vpu_sft_reset_deassert+0x24>
  920f68:	321e0021 	orr	w1, w1, #0x4
  920f6c:	17fffffb 	b	920f58 <vpu_sft_reset_deassert+0x24>

0000000000920f70 <imx_gpc_init>:
  920f70:	d2800601 	mov	x1, #0x30                  	// #48
  920f74:	12800000 	mov	w0, #0xffffffff            	// #-1
  920f78:	f2a60741 	movk	x1, #0x303a, lsl #16
  920f7c:	52a61802 	mov	w2, #0x30c00000            	// #817889280
  920f80:	b9000020 	str	w0, [x1]
  920f84:	b9001020 	str	w0, [x1, #16]
  920f88:	b9019020 	str	w0, [x1, #400]
  920f8c:	b901a020 	str	w0, [x1, #416]
  920f90:	d2800a01 	mov	x1, #0x50                  	// #80
  920f94:	f2a60741 	movk	x1, #0x303a, lsl #16
  920f98:	b9000020 	str	w0, [x1]
  920f9c:	d2800681 	mov	x1, #0x34                  	// #52
  920fa0:	f2a60741 	movk	x1, #0x303a, lsl #16
  920fa4:	b9000020 	str	w0, [x1]
  920fa8:	b9001020 	str	w0, [x1, #16]
  920fac:	b9019020 	str	w0, [x1, #400]
  920fb0:	b901a020 	str	w0, [x1, #416]
  920fb4:	d2800a81 	mov	x1, #0x54                  	// #84
  920fb8:	f2a60741 	movk	x1, #0x303a, lsl #16
  920fbc:	b9000020 	str	w0, [x1]
  920fc0:	d2800701 	mov	x1, #0x38                  	// #56
  920fc4:	f2a60741 	movk	x1, #0x303a, lsl #16
  920fc8:	b9000020 	str	w0, [x1]
  920fcc:	b9001020 	str	w0, [x1, #16]
  920fd0:	b9019020 	str	w0, [x1, #400]
  920fd4:	b901a020 	str	w0, [x1, #416]
  920fd8:	d2800b01 	mov	x1, #0x58                  	// #88
  920fdc:	f2a60741 	movk	x1, #0x303a, lsl #16
  920fe0:	b9000020 	str	w0, [x1]
  920fe4:	d2800781 	mov	x1, #0x3c                  	// #60
  920fe8:	f2a60741 	movk	x1, #0x303a, lsl #16
  920fec:	b9000020 	str	w0, [x1]
  920ff0:	b9001020 	str	w0, [x1, #16]
  920ff4:	b9019020 	str	w0, [x1, #400]
  920ff8:	b901a020 	str	w0, [x1, #416]
  920ffc:	d2800b81 	mov	x1, #0x5c                  	// #92
  921000:	f2a60741 	movk	x1, #0x303a, lsl #16
  921004:	b9000020 	str	w0, [x1]
  921008:	d2a60741 	mov	x1, #0x303a0000            	// #809107456
  92100c:	b9400020 	ldr	w0, [x1]
  921010:	12197800 	and	w0, w0, #0xffffffbf
  921014:	2a020000 	orr	w0, w0, w2
  921018:	b9000020 	str	w0, [x1]
  92101c:	529ff8e2 	mov	w2, #0xffc7                	// #65479
  921020:	b9401820 	ldr	w0, [x1, #24]
  921024:	72a81fe2 	movk	w2, #0x40ff, lsl #16
  921028:	121d7400 	and	w0, w0, #0xfffffff9
  92102c:	b9001820 	str	w0, [x1, #24]
  921030:	d2801d80 	mov	x0, #0xec                  	// #236
  921034:	529fffe1 	mov	w1, #0xffff                	// #65535
  921038:	f2a60740 	movk	x0, #0x303a, lsl #16
  92103c:	b9000001 	str	w1, [x0]
  921040:	d2810081 	mov	x1, #0x804                 	// #2052
  921044:	f2a60741 	movk	x1, #0x303a, lsl #16
  921048:	52801020 	mov	w0, #0x81                  	// #129
  92104c:	b9000020 	str	w0, [x1]
  921050:	b9004020 	str	w0, [x1, #64]
  921054:	b9008020 	str	w0, [x1, #128]
  921058:	b900c020 	str	w0, [x1, #192]
  92105c:	b9010020 	str	w0, [x1, #256]
  921060:	d2812200 	mov	x0, #0x910                 	// #2320
  921064:	f2a60740 	movk	x0, #0x303a, lsl #16
  921068:	528c8b61 	mov	w1, #0x645b                	// #25691
  92106c:	72a00421 	movk	w1, #0x21, lsl #16
  921070:	b9000001 	str	w1, [x0]
  921074:	d2800480 	mov	x0, #0x24                  	// #36
  921078:	f2a60740 	movk	x0, #0x303a, lsl #16
  92107c:	320183e1 	mov	w1, #0x80008000            	// #-2147450880
  921080:	b9000001 	str	w1, [x0]
  921084:	d2800281 	mov	x1, #0x14                  	// #20
  921088:	f2a60741 	movk	x1, #0x303a, lsl #16
  92108c:	b9400020 	ldr	w0, [x1]
  921090:	0a020000 	and	w0, w0, w2
  921094:	52800502 	mov	w2, #0x28                  	// #40
  921098:	72a00022 	movk	w2, #0x1, lsl #16
  92109c:	2a020000 	orr	w0, w0, w2
  9210a0:	b9000020 	str	w0, [x1]
  9210a4:	d2800401 	mov	x1, #0x20                  	// #32
  9210a8:	f2a60721 	movk	x1, #0x3039, lsl #16
  9210ac:	b9400020 	ldr	w0, [x1]
  9210b0:	121f7800 	and	w0, w0, #0xfffffffe
  9210b4:	b9000020 	str	w0, [x1]
  9210b8:	b9400420 	ldr	w0, [x1, #4]
  9210bc:	121f7800 	and	w0, w0, #0xfffffffe
  9210c0:	b9000420 	str	w0, [x1, #4]
  9210c4:	d65f03c0 	ret

00000000009210c8 <imx_gpc_handler>:
  9210c8:	f100083f 	cmp	x1, #0x2
  9210cc:	54002040 	b.eq	9214d4 <imx_gpc_handler+0x40c>  // b.none
  9210d0:	f1000c3f 	cmp	x1, #0x3
  9210d4:	540021a1 	b.ne	921508 <imx_gpc_handler+0x440>  // b.any
  9210d8:	a9bd7bfd 	stp	x29, x30, [sp, #-48]!
  9210dc:	d0000061 	adrp	x1, 92f000 <imx_gicv3_ctx+0x21d0>
  9210e0:	52800020 	mov	w0, #0x1                   	// #1
  9210e4:	910003fd 	mov	x29, sp
  9210e8:	a90153f3 	stp	x19, x20, [sp, #16]
  9210ec:	1ac22000 	lsl	w0, w0, w2
  9210f0:	a9025bf5 	stp	x21, x22, [sp, #32]
  9210f4:	aa0203f3 	mov	x19, x2
  9210f8:	b946b022 	ldr	w2, [x1, #1712]
  9210fc:	34001323 	cbz	w3, 921360 <imx_gpc_handler+0x298>
  921100:	2a020000 	orr	w0, w0, w2
  921104:	b906b020 	str	w0, [x1, #1712]
  921108:	b0000055 	adrp	x21, 92a000 <__RO_END__>
  92110c:	2a1303f4 	mov	w20, w19
  921110:	34000af3 	cbz	w19, 92126c <imx_gpc_handler+0x1a4>
  921114:	910042a0 	add	x0, x21, #0x10
  921118:	d2800281 	mov	x1, #0x14                  	// #20
  92111c:	51001a63 	sub	w3, w19, #0x6
  921120:	7100087f 	cmp	w3, #0x2
  921124:	9b010280 	madd	x0, x20, x1, x0
  921128:	52a60741 	mov	w1, #0x303a0000            	// #809107456
  92112c:	b9400c00 	ldr	w0, [x0, #12]
  921130:	0b010000 	add	w0, w0, w1
  921134:	b9400001 	ldr	w1, [x0]
  921138:	121f7821 	and	w1, w1, #0xfffffffe
  92113c:	b9000001 	str	w1, [x0]
  921140:	54000068 	b.hi	92114c <imx_gpc_handler+0x84>  // b.pmore
  921144:	2a1303e0 	mov	w0, w19
  921148:	97ffff6c 	bl	920ef8 <vpu_sft_reset_assert>
  92114c:	d2800281 	mov	x1, #0x14                  	// #20
  921150:	910042a4 	add	x4, x21, #0x10
  921154:	d2801f00 	mov	x0, #0xf8                  	// #248
  921158:	9b017e81 	mul	x1, x20, x1
  92115c:	f2a60740 	movk	x0, #0x303a, lsl #16
  921160:	b9400002 	ldr	w2, [x0]
  921164:	b8616885 	ldr	w5, [x4, x1]
  921168:	2a050042 	orr	w2, w2, w5
  92116c:	b9000002 	str	w2, [x0]
  921170:	b8616881 	ldr	w1, [x4, x1]
  921174:	b9400002 	ldr	w2, [x0]
  921178:	6a01005f 	tst	w2, w1
  92117c:	54ffffc1 	b.ne	921174 <imx_gpc_handler+0xac>  // b.any
  921180:	7100087f 	cmp	w3, #0x2
  921184:	54000268 	b.hi	9211d0 <imx_gpc_handler+0x108>  // b.pmore
  921188:	2a1303e0 	mov	w0, w19
  92118c:	97ffff6a 	bl	920f34 <vpu_sft_reset_deassert>
  921190:	7100167f 	cmp	w19, #0x5
  921194:	54000c41 	b.ne	92131c <imx_gpc_handler+0x254>  // b.any
  921198:	d2800896 	mov	x22, #0x44                  	// #68
  92119c:	52800020 	mov	w0, #0x1                   	// #1
  9211a0:	f2a60736 	movk	x22, #0x3039, lsl #16
  9211a4:	b90002c0 	str	w0, [x22]
  9211a8:	2a1303e0 	mov	w0, w19
  9211ac:	9400033c 	bl	921e9c <udelay>
  9211b0:	b90002df 	str	wzr, [x22]
  9211b4:	2a1303e0 	mov	w0, w19
  9211b8:	94000339 	bl	921e9c <udelay>
  9211bc:	d2800080 	mov	x0, #0x4                   	// #4
  9211c0:	528000e1 	mov	w1, #0x7                   	// #7
  9211c4:	f2a70660 	movk	x0, #0x3833, lsl #16
  9211c8:	b9000001 	str	w1, [x0]
  9211cc:	14000028 	b	92126c <imx_gpc_handler+0x1a4>
  9211d0:	7100127f 	cmp	w19, #0x4
  9211d4:	54fffde1 	b.ne	921190 <imx_gpc_handler+0xc8>  // b.any
  9211d8:	d2800801 	mov	x1, #0x40                  	// #64
  9211dc:	52800022 	mov	w2, #0x1                   	// #1
  9211e0:	f2a60721 	movk	x1, #0x3039, lsl #16
  9211e4:	d2801f16 	mov	x22, #0xf8                  	// #248
  9211e8:	f2a60756 	movk	x22, #0x303a, lsl #16
  9211ec:	b9000022 	str	w2, [x1]
  9211f0:	d281b002 	mov	x2, #0xd80                 	// #3456
  9211f4:	f2a60742 	movk	x2, #0x303a, lsl #16
  9211f8:	b9400041 	ldr	w1, [x2]
  9211fc:	121f7821 	and	w1, w1, #0xfffffffe
  921200:	b9000041 	str	w1, [x2]
  921204:	b9400001 	ldr	w1, [x0]
  921208:	321a0021 	orr	w1, w1, #0x40
  92120c:	b9000001 	str	w1, [x0]
  921210:	b94002c0 	ldr	w0, [x22]
  921214:	3737ffe0 	tbnz	w0, #6, 921210 <imx_gpc_handler+0x148>
  921218:	52800020 	mov	w0, #0x1                   	// #1
  92121c:	94000320 	bl	921e9c <udelay>
  921220:	d281c801 	mov	x1, #0xe40                 	// #3648
  921224:	f2a60741 	movk	x1, #0x303a, lsl #16
  921228:	b9400020 	ldr	w0, [x1]
  92122c:	121f7800 	and	w0, w0, #0xfffffffe
  921230:	b9000020 	str	w0, [x1]
  921234:	d2801f01 	mov	x1, #0xf8                  	// #248
  921238:	b94002c0 	ldr	w0, [x22]
  92123c:	f2a60741 	movk	x1, #0x303a, lsl #16
  921240:	32170000 	orr	w0, w0, #0x200
  921244:	b90002c0 	str	w0, [x22]
  921248:	b9400020 	ldr	w0, [x1]
  92124c:	374fffe0 	tbnz	w0, #9, 921248 <imx_gpc_handler+0x180>
  921250:	52800140 	mov	w0, #0xa                   	// #10
  921254:	94000312 	bl	921e9c <udelay>
  921258:	d2800800 	mov	x0, #0x40                  	// #64
  92125c:	f2a60720 	movk	x0, #0x3039, lsl #16
  921260:	b900001f 	str	wzr, [x0]
  921264:	52800140 	mov	w0, #0xa                   	// #10
  921268:	9400030d 	bl	921e9c <udelay>
  92126c:	910042a0 	add	x0, x21, #0x10
  921270:	d2800281 	mov	x1, #0x14                  	// #20
  921274:	9b010280 	madd	x0, x20, x1, x0
  921278:	39404401 	ldrb	w1, [x0, #17]
  92127c:	350003a1 	cbnz	w1, 9212f0 <imx_gpc_handler+0x228>
  921280:	39404001 	ldrb	w1, [x0, #16]
  921284:	34000361 	cbz	w1, 9212f0 <imx_gpc_handler+0x228>
  921288:	d2803f81 	mov	x1, #0x1fc                 	// #508
  92128c:	b9400403 	ldr	w3, [x0, #4]
  921290:	f2a60741 	movk	x1, #0x303a, lsl #16
  921294:	b9400022 	ldr	w2, [x1]
  921298:	2a030042 	orr	w2, w2, w3
  92129c:	b9000022 	str	w2, [x1]
  9212a0:	b9400802 	ldr	w2, [x0, #8]
  9212a4:	aa0103e0 	mov	x0, x1
  9212a8:	b9400001 	ldr	w1, [x0]
  9212ac:	6a02003f 	tst	w1, w2
  9212b0:	54ffffc0 	b.eq	9212a8 <imx_gpc_handler+0x1e0>  // b.none
  9212b4:	7100127f 	cmp	w19, #0x4
  9212b8:	540001c1 	b.ne	9212f0 <imx_gpc_handler+0x228>  // b.any
  9212bc:	b9400001 	ldr	w1, [x0]
  9212c0:	32160021 	orr	w1, w1, #0x400
  9212c4:	b9000001 	str	w1, [x0]
  9212c8:	d2803f80 	mov	x0, #0x1fc                 	// #508
  9212cc:	f2a60740 	movk	x0, #0x303a, lsl #16
  9212d0:	aa0003e2 	mov	x2, x0
  9212d4:	b9400001 	ldr	w1, [x0]
  9212d8:	36e7ffe1 	tbz	w1, #28, 9212d4 <imx_gpc_handler+0x20c>
  9212dc:	b9400001 	ldr	w1, [x0]
  9212e0:	32170021 	orr	w1, w1, #0x200
  9212e4:	b9000001 	str	w1, [x0]
  9212e8:	b9400040 	ldr	w0, [x2]
  9212ec:	36dfffe0 	tbz	w0, #27, 9212e8 <imx_gpc_handler+0x220>
  9212f0:	2a1303f3 	mov	w19, w19
  9212f4:	b0000042 	adrp	x2, 92a000 <__RO_END__>
  9212f8:	91004042 	add	x2, x2, #0x10
  9212fc:	d2800280 	mov	x0, #0x14                  	// #20
  921300:	9b000a73 	madd	x19, x19, x0, x2
  921304:	3900467f 	strb	wzr, [x19, #17]
  921308:	52800000 	mov	w0, #0x0                   	// #0
  92130c:	a94153f3 	ldp	x19, x20, [sp, #16]
  921310:	a9425bf5 	ldp	x21, x22, [sp, #32]
  921314:	a8c37bfd 	ldp	x29, x30, [sp], #48
  921318:	d65f03c0 	ret
  92131c:	7100267f 	cmp	w19, #0x9
  921320:	54fffa61 	b.ne	92126c <imx_gpc_handler+0x1a4>  // b.any
  921324:	d288ba00 	mov	x0, #0x45d0                	// #17872
  921328:	52800061 	mov	w1, #0x3                   	// #3
  92132c:	f2a60700 	movk	x0, #0x3038, lsl #16
  921330:	b9000001 	str	w1, [x0]
  921334:	d2900080 	mov	x0, #0x8004                	// #32772
  921338:	f2a65c40 	movk	x0, #0x32e2, lsl #16
  92133c:	5283ffe1 	mov	w1, #0x1fff                	// #8191
  921340:	b9000001 	str	w1, [x0]
  921344:	d2900000 	mov	x0, #0x8000                	// #32768
  921348:	f2a65c40 	movk	x0, #0x32e2, lsl #16
  92134c:	52800fe1 	mov	w1, #0x7f                  	// #127
  921350:	b9000001 	str	w1, [x0]
  921354:	52a00061 	mov	w1, #0x30000               	// #196608
  921358:	b9000801 	str	w1, [x0, #8]
  92135c:	17ffffc4 	b	92126c <imx_gpc_handler+0x1a4>
  921360:	0a200040 	bic	w0, w2, w0
  921364:	b906b020 	str	w0, [x1, #1712]
  921368:	51000a60 	sub	w0, w19, #0x2
  92136c:	7100041f 	cmp	w0, #0x1
  921370:	54fffcc9 	b.ls	921308 <imx_gpc_handler+0x240>  // b.plast
  921374:	b0000042 	adrp	x2, 92a000 <__RO_END__>
  921378:	2a1303e5 	mov	w5, w19
  92137c:	91004041 	add	x1, x2, #0x10
  921380:	d2800280 	mov	x0, #0x14                  	// #20
  921384:	aa0203e4 	mov	x4, x2
  921388:	9b0004a0 	madd	x0, x5, x0, x1
  92138c:	39404401 	ldrb	w1, [x0, #17]
  921390:	35000401 	cbnz	w1, 921410 <imx_gpc_handler+0x348>
  921394:	39404000 	ldrb	w0, [x0, #16]
  921398:	340003c0 	cbz	w0, 921410 <imx_gpc_handler+0x348>
  92139c:	7100127f 	cmp	w19, #0x4
  9213a0:	540001e1 	b.ne	9213dc <imx_gpc_handler+0x314>  // b.any
  9213a4:	d2803f80 	mov	x0, #0x1fc                 	// #508
  9213a8:	f2a60740 	movk	x0, #0x303a, lsl #16
  9213ac:	b9400001 	ldr	w1, [x0]
  9213b0:	12157821 	and	w1, w1, #0xfffffbff
  9213b4:	b9000001 	str	w1, [x0]
  9213b8:	b9400001 	ldr	w1, [x0]
  9213bc:	37e7ffe1 	tbnz	w1, #28, 9213b8 <imx_gpc_handler+0x2f0>
  9213c0:	b9400001 	ldr	w1, [x0]
  9213c4:	12167821 	and	w1, w1, #0xfffffdff
  9213c8:	b9000001 	str	w1, [x0]
  9213cc:	d2803f81 	mov	x1, #0x1fc                 	// #508
  9213d0:	f2a60741 	movk	x1, #0x303a, lsl #16
  9213d4:	b9400020 	ldr	w0, [x1]
  9213d8:	37dfffe0 	tbnz	w0, #27, 9213d4 <imx_gpc_handler+0x30c>
  9213dc:	91004082 	add	x2, x4, #0x10
  9213e0:	d2800283 	mov	x3, #0x14                  	// #20
  9213e4:	d2803f80 	mov	x0, #0x1fc                 	// #508
  9213e8:	f2a60740 	movk	x0, #0x303a, lsl #16
  9213ec:	9b0308a2 	madd	x2, x5, x3, x2
  9213f0:	b9400006 	ldr	w6, [x0]
  9213f4:	b9400441 	ldr	w1, [x2, #4]
  9213f8:	0a2100c1 	bic	w1, w6, w1
  9213fc:	b9000001 	str	w1, [x0]
  921400:	b9400841 	ldr	w1, [x2, #8]
  921404:	b9400002 	ldr	w2, [x0]
  921408:	6a01005f 	tst	w2, w1
  92140c:	54ffffc1 	b.ne	921404 <imx_gpc_handler+0x33c>  // b.any
  921410:	7100127f 	cmp	w19, #0x4
  921414:	540005c1 	b.ne	9214cc <imx_gpc_handler+0x404>  // b.any
  921418:	d281b001 	mov	x1, #0xd80                 	// #3456
  92141c:	f2a60741 	movk	x1, #0x303a, lsl #16
  921420:	b9400020 	ldr	w0, [x1]
  921424:	32000000 	orr	w0, w0, #0x1
  921428:	b9000020 	str	w0, [x1]
  92142c:	d2802080 	mov	x0, #0x104                 	// #260
  921430:	f2a60740 	movk	x0, #0x303a, lsl #16
  921434:	b9400001 	ldr	w1, [x0]
  921438:	321a0021 	orr	w1, w1, #0x40
  92143c:	b9000001 	str	w1, [x0]
  921440:	b9400001 	ldr	w1, [x0]
  921444:	3737ffe1 	tbnz	w1, #6, 921440 <imx_gpc_handler+0x378>
  921448:	d281c802 	mov	x2, #0xe40                 	// #3648
  92144c:	f2a60742 	movk	x2, #0x303a, lsl #16
  921450:	b9400041 	ldr	w1, [x2]
  921454:	32000021 	orr	w1, w1, #0x1
  921458:	b9000041 	str	w1, [x2]
  92145c:	b9400001 	ldr	w1, [x0]
  921460:	32170021 	orr	w1, w1, #0x200
  921464:	b9000001 	str	w1, [x0]
  921468:	d2802081 	mov	x1, #0x104                 	// #260
  92146c:	f2a60741 	movk	x1, #0x303a, lsl #16
  921470:	b9400020 	ldr	w0, [x1]
  921474:	374fffe0 	tbnz	w0, #9, 921470 <imx_gpc_handler+0x3a8>
  921478:	d2800281 	mov	x1, #0x14                  	// #20
  92147c:	91004082 	add	x2, x4, #0x10
  921480:	52a60743 	mov	w3, #0x303a0000            	// #809107456
  921484:	9b017ca1 	mul	x1, x5, x1
  921488:	8b010040 	add	x0, x2, x1
  92148c:	b8616844 	ldr	w4, [x2, x1]
  921490:	b9400c00 	ldr	w0, [x0, #12]
  921494:	0b030000 	add	w0, w0, w3
  921498:	b9400003 	ldr	w3, [x0]
  92149c:	32000063 	orr	w3, w3, #0x1
  9214a0:	b9000003 	str	w3, [x0]
  9214a4:	d2802080 	mov	x0, #0x104                 	// #260
  9214a8:	f2a60740 	movk	x0, #0x303a, lsl #16
  9214ac:	b9400003 	ldr	w3, [x0]
  9214b0:	2a040063 	orr	w3, w3, w4
  9214b4:	b9000003 	str	w3, [x0]
  9214b8:	b8616841 	ldr	w1, [x2, x1]
  9214bc:	b9400002 	ldr	w2, [x0]
  9214c0:	6a01005f 	tst	w2, w1
  9214c4:	54ffffc1 	b.ne	9214bc <imx_gpc_handler+0x3f4>  // b.any
  9214c8:	17ffff8a 	b	9212f0 <imx_gpc_handler+0x228>
  9214cc:	34fff133 	cbz	w19, 9212f0 <imx_gpc_handler+0x228>
  9214d0:	17ffffea 	b	921478 <imx_gpc_handler+0x3b0>
  9214d4:	52800020 	mov	w0, #0x1                   	// #1
  9214d8:	b0000041 	adrp	x1, 92a000 <__RO_END__>
  9214dc:	1ac22000 	lsl	w0, w0, w2
  9214e0:	91000021 	add	x1, x1, #0x0
  9214e4:	53057c42 	lsr	w2, w2, #5
  9214e8:	7100007f 	cmp	w3, #0x0
  9214ec:	b8627824 	ldr	w4, [x1, x2, lsl #2]
  9214f0:	0a200085 	bic	w5, w4, w0
  9214f4:	2a040000 	orr	w0, w0, w4
  9214f8:	1a850000 	csel	w0, w0, w5, eq  // eq = none
  9214fc:	b8227820 	str	w0, [x1, x2, lsl #2]
  921500:	52800000 	mov	w0, #0x0                   	// #0
  921504:	d65f03c0 	ret
  921508:	12800000 	mov	w0, #0xffffffff            	// #-1
  92150c:	d65f03c0 	ret

0000000000921510 <imx_src_handler>:
  921510:	b40000a1 	cbz	x1, 921524 <imx_src_handler+0x14>
  921514:	f100043f 	cmp	x1, #0x1
  921518:	54000160 	b.eq	921544 <imx_src_handler+0x34>  // b.none
  92151c:	12800000 	mov	w0, #0xffffffff            	// #-1
  921520:	14000008 	b	921540 <imx_src_handler+0x30>
  921524:	d2800181 	mov	x1, #0xc                   	// #12
  921528:	f2a60721 	movk	x1, #0x3039, lsl #16
  92152c:	b9400020 	ldr	w0, [x1]
  921530:	121f7800 	and	w0, w0, #0xfffffffe
  921534:	321d0000 	orr	w0, w0, #0x8
  921538:	b9000020 	str	w0, [x1]
  92153c:	52800000 	mov	w0, #0x0                   	// #0
  921540:	d65f03c0 	ret
  921544:	d2800180 	mov	x0, #0xc                   	// #12
  921548:	f2a60720 	movk	x0, #0x3039, lsl #16
  92154c:	b9400000 	ldr	w0, [x0]
  921550:	2a2003e0 	mvn	w0, w0
  921554:	12000000 	and	w0, w0, #0x1
  921558:	17fffffa 	b	921540 <imx_src_handler+0x30>

000000000092155c <imx_soc_handler>:
  92155c:	d2810000 	mov	x0, #0x800                 	// #2048
  921560:	f2a606c0 	movk	x0, #0x3036, lsl #16
  921564:	b9400000 	ldr	w0, [x0]
  921568:	d65f03c0 	ret

000000000092156c <imx_noc_handler>:
  92156c:	52800000 	mov	w0, #0x0                   	// #0
  921570:	d65f03c0 	ret

0000000000921574 <imx_hab_handler>:
  921574:	aa0103e6 	mov	x6, x1
  921578:	f100183f 	cmp	x1, #0x6
  92157c:	54000648 	b.hi	921644 <imx_hab_handler+0xd0>  // b.pmore
  921580:	7100183f 	cmp	w1, #0x6
  921584:	54000608 	b.hi	921644 <imx_hab_handler+0xd0>  // b.pmore
  921588:	a9bf7bfd 	stp	x29, x30, [sp, #-16]!
  92158c:	aa0303e1 	mov	x1, x3
  921590:	aa0203e0 	mov	x0, x2
  921594:	aa0403e3 	mov	x3, x4
  921598:	910003fd 	mov	x29, sp
  92159c:	f0000022 	adrp	x2, 928000 <unsigned_num_print+0x1c>
  9215a0:	91186042 	add	x2, x2, #0x618
  9215a4:	38664842 	ldrb	w2, [x2, w6, uxtw]
  9215a8:	10000064 	adr	x4, 9215b4 <imx_hab_handler+0x40>
  9215ac:	8b228882 	add	x2, x4, w2, sxtb #2
  9215b0:	d61f0040 	br	x2
  9215b4:	d2812402 	mov	x2, #0x920                 	// #2336
  9215b8:	d2800004 	mov	x4, #0x0                   	// #0
  9215bc:	b9400045 	ldr	w5, [x2]
  9215c0:	aa0103e2 	mov	x2, x1
  9215c4:	aa0003e1 	mov	x1, x0
  9215c8:	52800040 	mov	w0, #0x2                   	// #2
  9215cc:	d63f00a0 	blr	x5
  9215d0:	a8c17bfd 	ldp	x29, x30, [sp], #16
  9215d4:	d65f03c0 	ret
  9215d8:	d2812100 	mov	x0, #0x908                 	// #2312
  9215dc:	a8c17bfd 	ldp	x29, x30, [sp], #16
  9215e0:	b9400000 	ldr	w0, [x0]
  9215e4:	d61f0000 	br	x0
  9215e8:	d2812200 	mov	x0, #0x910                 	// #2320
  9215ec:	17fffffc 	b	9215dc <imx_hab_handler+0x68>
  9215f0:	d2812802 	mov	x2, #0x940                 	// #2368
  9215f4:	a8c17bfd 	ldp	x29, x30, [sp], #16
  9215f8:	b9400044 	ldr	w4, [x2]
  9215fc:	aa0103e2 	mov	x2, x1
  921600:	2a0003e1 	mov	w1, w0
  921604:	52800660 	mov	w0, #0x33                  	// #51
  921608:	d61f0080 	br	x4
  92160c:	d2812902 	mov	x2, #0x948                 	// #2376
  921610:	a8c17bfd 	ldp	x29, x30, [sp], #16
  921614:	b9400042 	ldr	w2, [x2]
  921618:	d61f0040 	br	x2
  92161c:	d2812a00 	mov	x0, #0x950                 	// #2384
  921620:	b9400000 	ldr	w0, [x0]
  921624:	d63f0000 	blr	x0
  921628:	52800000 	mov	w0, #0x0                   	// #0
  92162c:	17ffffe9 	b	9215d0 <imx_hab_handler+0x5c>
  921630:	d2812302 	mov	x2, #0x918                 	// #2328
  921634:	a8c17bfd 	ldp	x29, x30, [sp], #16
  921638:	b9400044 	ldr	w4, [x2]
  92163c:	aa0303e2 	mov	x2, x3
  921640:	d61f0080 	br	x4
  921644:	12800000 	mov	w0, #0xffffffff            	// #-1
  921648:	d65f03c0 	ret

000000000092164c <imx_validate_ns_entrypoint>:
  92164c:	b24077e1 	mov	x1, #0x3fffffff            	// #1073741823
  921650:	eb01001f 	cmp	x0, x1
  921654:	12800020 	mov	w0, #0xfffffffe            	// #-2
  921658:	1a9f9000 	csel	w0, w0, wzr, ls  // ls = plast
  92165c:	d65f03c0 	ret

0000000000921660 <imx_validate_power_state>:
  921660:	d3504002 	ubfx	x2, x0, #16, #1
  921664:	12003c03 	and	w3, w0, #0xffff
  921668:	d3586400 	ubfx	x0, x0, #24, #2
  92166c:	71000c1f 	cmp	w0, #0x3
  921670:	540001c0 	b.eq	9216a8 <imx_validate_power_state+0x48>  // b.none
  921674:	35000082 	cbnz	w2, 921684 <imx_validate_power_state+0x24>
  921678:	52800040 	mov	w0, #0x2                   	// #2
  92167c:	39000020 	strb	w0, [x1]
  921680:	39000420 	strb	w0, [x1, #1]
  921684:	7100cc7f 	cmp	w3, #0x33
  921688:	1a9f0042 	csel	w2, w2, wzr, eq  // eq = none
  92168c:	340000a2 	cbz	w2, 9216a0 <imx_validate_power_state+0x40>
  921690:	52800080 	mov	w0, #0x4                   	// #4
  921694:	39000020 	strb	w0, [x1]
  921698:	52800020 	mov	w0, #0x1                   	// #1
  92169c:	39000420 	strb	w0, [x1, #1]
  9216a0:	52800000 	mov	w0, #0x0                   	// #0
  9216a4:	14000002 	b	9216ac <imx_validate_power_state+0x4c>
  9216a8:	12800020 	mov	w0, #0xfffffffe            	// #-2
  9216ac:	d65f03c0 	ret

00000000009216b0 <imx_cpu_standby>:
  9216b0:	d5033f9f 	dsb	sy
  9216b4:	d53e1100 	mrs	x0, scr_el3
  9216b8:	b27e0000 	orr	x0, x0, #0x4
  9216bc:	d51e1100 	msr	scr_el3, x0
  9216c0:	d5033fdf 	isb
  9216c4:	d503207f 	wfi
  9216c8:	d53e1100 	mrs	x0, scr_el3
  9216cc:	927df800 	and	x0, x0, #0xfffffffffffffffb
  9216d0:	d51e1100 	msr	scr_el3, x0
  9216d4:	d5033fdf 	isb
  9216d8:	d65f03c0 	ret

00000000009216dc <imx_get_sys_suspend_power_state>:
  9216dc:	52800061 	mov	w1, #0x3                   	// #3
  9216e0:	39000001 	strb	w1, [x0]
  9216e4:	39000401 	strb	w1, [x0, #1]
  9216e8:	52800041 	mov	w1, #0x2                   	// #2
  9216ec:	39000801 	strb	w1, [x0, #2]
  9216f0:	d65f03c0 	ret

00000000009216f4 <imx_system_reset>:
  9216f4:	d2a60501 	mov	x1, #0x30280000            	// #807927808
  9216f8:	528003a2 	mov	w2, #0x1d                  	// #29
  9216fc:	79400020 	ldrh	w0, [x1]
  921700:	12001c00 	and	w0, w0, #0xff
  921704:	2a020000 	orr	w0, w0, w2
  921708:	79000020 	strh	w0, [x1]
  92170c:	d2800040 	mov	x0, #0x2                   	// #2
  921710:	528aaaa1 	mov	w1, #0x5555                	// #21845
  921714:	f2a60500 	movk	x0, #0x3028, lsl #16
  921718:	79000001 	strh	w1, [x0]
  92171c:	128aaaa1 	mov	w1, #0xffffaaaa            	// #-21846
  921720:	79000001 	strh	w1, [x0]
  921724:	14000000 	b	921724 <imx_system_reset+0x30>

0000000000921728 <imx_system_off>:
  921728:	d2800700 	mov	x0, #0x38                  	// #56
  92172c:	52800c21 	mov	w1, #0x61                  	// #97
  921730:	f2a606e0 	movk	x0, #0x3037, lsl #16
  921734:	b9000001 	str	w1, [x0]
  921738:	14000000 	b	921738 <imx_system_off+0x10>

000000000092173c <imx_pwr_domain_on>:
  92173c:	a9be7bfd 	stp	x29, x30, [sp, #-32]!
  921740:	d2a01241 	mov	x1, #0x920000              	// #9568256
  921744:	910003fd 	mov	x29, sp
  921748:	f9000bf3 	str	x19, [sp, #16]
  92174c:	12001c13 	and	w19, w0, #0xff
  921750:	2a1303e0 	mov	w0, w19
  921754:	97fffbc4 	bl	920664 <imx_set_cpu_secure_entry>
  921758:	2a1303e0 	mov	w0, w19
  92175c:	97fffbe5 	bl	9206f0 <imx_set_cpu_pwr_on>
  921760:	52800000 	mov	w0, #0x0                   	// #0
  921764:	f9400bf3 	ldr	x19, [sp, #16]
  921768:	a8c27bfd 	ldp	x29, x30, [sp], #32
  92176c:	d65f03c0 	ret

0000000000921770 <imx_pwr_domain_on_finish>:
  921770:	a9bf7bfd 	stp	x29, x30, [sp, #-16]!
  921774:	910003fd 	mov	x29, sp
  921778:	9400060f 	bl	922fb4 <plat_gic_pcpu_init>
  92177c:	a8c17bfd 	ldp	x29, x30, [sp], #16
  921780:	14000603 	b	922f8c <plat_gic_cpuif_enable>

0000000000921784 <imx_pwr_domain_off>:
  921784:	a9be7bfd 	stp	x29, x30, [sp, #-32]!
  921788:	910003fd 	mov	x29, sp
  92178c:	f9000bf3 	str	x19, [sp, #16]
  921790:	d53800b3 	mrs	x19, mpidr_el1
  921794:	94000603 	bl	922fa0 <plat_gic_cpuif_disable>
  921798:	12001e60 	and	w0, w19, #0xff
  92179c:	f9400bf3 	ldr	x19, [sp, #16]
  9217a0:	a8c27bfd 	ldp	x29, x30, [sp], #32
  9217a4:	17fffbbe 	b	92069c <imx_set_cpu_pwr_off>

00000000009217a8 <imx_domain_suspend>:
  9217a8:	a9be7bfd 	stp	x29, x30, [sp, #-32]!
  9217ac:	910003fd 	mov	x29, sp
  9217b0:	a90153f3 	stp	x19, x20, [sp, #16]
  9217b4:	aa0003f4 	mov	x20, x0
  9217b8:	d53800b3 	mrs	x19, mpidr_el1
  9217bc:	39400000 	ldrb	w0, [x0]
  9217c0:	12001e73 	and	w19, w19, #0xff
  9217c4:	51000c00 	sub	w0, w0, #0x3
  9217c8:	7100041f 	cmp	w0, #0x1
  9217cc:	540003c8 	b.hi	921844 <imx_domain_suspend+0x9c>  // b.pmore
  9217d0:	940005f4 	bl	922fa0 <plat_gic_cpuif_disable>
  9217d4:	d2a01241 	mov	x1, #0x920000              	// #9568256
  9217d8:	2a1303e0 	mov	w0, w19
  9217dc:	97fffba2 	bl	920664 <imx_set_cpu_secure_entry>
  9217e0:	52800021 	mov	w1, #0x1                   	// #1
  9217e4:	2a1303e0 	mov	w0, w19
  9217e8:	97fffbee 	bl	9207a0 <imx_set_cpu_lpm>
  9217ec:	39400681 	ldrb	w1, [x20, #1]
  9217f0:	34000061 	cbz	w1, 9217fc <imx_domain_suspend+0x54>
  9217f4:	2a1303e0 	mov	w0, w19
  9217f8:	97fffc64 	bl	920988 <imx_set_cluster_powerdown>
  9217fc:	39400a80 	ldrb	w0, [x20, #2]
  921800:	51000400 	sub	w0, w0, #0x1
  921804:	7100041f 	cmp	w0, #0x1
  921808:	54000328 	b.hi	92186c <imx_domain_suspend+0xc4>  // b.pmore
  92180c:	97fffb89 	bl	920630 <imx_is_m4_enabled>
  921810:	72001c1f 	tst	w0, #0xff
  921814:	54000241 	b.ne	92185c <imx_domain_suspend+0xb4>  // b.any
  921818:	94000687 	bl	923234 <dram_enter_retention>
  92181c:	52800020 	mov	w0, #0x1                   	// #1
  921820:	97fffc8e 	bl	920a58 <imx_set_sys_lpm>
  921824:	97fffcb9 	bl	920b08 <imx_anamix_pre_suspend>
  921828:	2a1303e0 	mov	w0, w19
  92182c:	97fffd35 	bl	920d00 <noc_wrapper_pre_suspend>
  921830:	2a1303e0 	mov	w0, w19
  921834:	52800021 	mov	w1, #0x1                   	// #1
  921838:	a94153f3 	ldp	x19, x20, [sp, #16]
  92183c:	a8c27bfd 	ldp	x29, x30, [sp], #32
  921840:	17fffd72 	b	920e08 <imx_set_sys_wakeup>
  921844:	d5033f9f 	dsb	sy
  921848:	d53e1100 	mrs	x0, scr_el3
  92184c:	b27e0000 	orr	x0, x0, #0x4
  921850:	d51e1100 	msr	scr_el3, x0
  921854:	d5033fdf 	isb
  921858:	17ffffe5 	b	9217ec <imx_domain_suspend+0x44>
  92185c:	97fffb7b 	bl	920648 <imx_m4_lpa_active>
  921860:	72001c1f 	tst	w0, #0xff
  921864:	54fffda0 	b.eq	921818 <imx_domain_suspend+0x70>  // b.none
  921868:	17ffffed 	b	92181c <imx_domain_suspend+0x74>
  92186c:	a94153f3 	ldp	x19, x20, [sp, #16]
  921870:	a8c27bfd 	ldp	x29, x30, [sp], #32
  921874:	d65f03c0 	ret

0000000000921878 <imx_domain_suspend_finish>:
  921878:	a9be7bfd 	stp	x29, x30, [sp, #-32]!
  92187c:	910003fd 	mov	x29, sp
  921880:	a90153f3 	stp	x19, x20, [sp, #16]
  921884:	aa0003f4 	mov	x20, x0
  921888:	d53800b3 	mrs	x19, mpidr_el1
  92188c:	39400800 	ldrb	w0, [x0, #2]
  921890:	12001e73 	and	w19, w19, #0xff
  921894:	51000400 	sub	w0, w0, #0x1
  921898:	7100041f 	cmp	w0, #0x1
  92189c:	540001a8 	b.hi	9218d0 <imx_domain_suspend_finish+0x58>  // b.pmore
  9218a0:	52800000 	mov	w0, #0x0                   	// #0
  9218a4:	97fffc6d 	bl	920a58 <imx_set_sys_lpm>
  9218a8:	2a1303e0 	mov	w0, w19
  9218ac:	52800001 	mov	w1, #0x0                   	// #0
  9218b0:	97fffd56 	bl	920e08 <imx_set_sys_wakeup>
  9218b4:	97fffcd4 	bl	920c04 <imx_anamix_post_resume>
  9218b8:	97fffb5e 	bl	920630 <imx_is_m4_enabled>
  9218bc:	72001c1f 	tst	w0, #0xff
  9218c0:	54000281 	b.ne	921910 <imx_domain_suspend_finish+0x98>  // b.any
  9218c4:	94000665 	bl	923258 <dram_exit_retention>
  9218c8:	2a1303e0 	mov	w0, w19
  9218cc:	97fffd28 	bl	920d6c <noc_wrapper_post_resume>
  9218d0:	39400680 	ldrb	w0, [x20, #1]
  9218d4:	340000a0 	cbz	w0, 9218e8 <imx_domain_suspend_finish+0x70>
  9218d8:	97fffc86 	bl	920af0 <imx_clear_rbc_count>
  9218dc:	52800001 	mov	w1, #0x0                   	// #0
  9218e0:	2a1303e0 	mov	w0, w19
  9218e4:	97fffc29 	bl	920988 <imx_set_cluster_powerdown>
  9218e8:	39400280 	ldrb	w0, [x20]
  9218ec:	51000c00 	sub	w0, w0, #0x3
  9218f0:	7100041f 	cmp	w0, #0x1
  9218f4:	54000168 	b.hi	921920 <imx_domain_suspend_finish+0xa8>  // b.pmore
  9218f8:	2a1303e0 	mov	w0, w19
  9218fc:	52800001 	mov	w1, #0x0                   	// #0
  921900:	97fffba8 	bl	9207a0 <imx_set_cpu_lpm>
  921904:	a94153f3 	ldp	x19, x20, [sp, #16]
  921908:	a8c27bfd 	ldp	x29, x30, [sp], #32
  92190c:	140005a0 	b	922f8c <plat_gic_cpuif_enable>
  921910:	97fffb4e 	bl	920648 <imx_m4_lpa_active>
  921914:	72001c1f 	tst	w0, #0xff
  921918:	54fffd60 	b.eq	9218c4 <imx_domain_suspend_finish+0x4c>  // b.none
  92191c:	17ffffeb 	b	9218c8 <imx_domain_suspend_finish+0x50>
  921920:	d53e1100 	mrs	x0, scr_el3
  921924:	927df800 	and	x0, x0, #0xfffffffffffffffb
  921928:	d51e1100 	msr	scr_el3, x0
  92192c:	d5033fdf 	isb
  921930:	a94153f3 	ldp	x19, x20, [sp, #16]
  921934:	a8c27bfd 	ldp	x29, x30, [sp], #32
  921938:	d65f03c0 	ret

000000000092193c <imx_pwr_domain_pwr_down_wfi>:
  92193c:	39400400 	ldrb	w0, [x0, #1]
  921940:	34000100 	cbz	w0, 921960 <imx_pwr_domain_pwr_down_wfi+0x24>
  921944:	a9bf7bfd 	stp	x29, x30, [sp, #-16]!
  921948:	910003fd 	mov	x29, sp
  92194c:	97fffc62 	bl	920ad4 <imx_set_rbc_count>
  921950:	528003c0 	mov	w0, #0x1e                  	// #30
  921954:	94000152 	bl	921e9c <udelay>
  921958:	d503207f 	wfi
  92195c:	17ffffff 	b	921958 <imx_pwr_domain_pwr_down_wfi+0x1c>
  921960:	d503207f 	wfi
  921964:	17ffffff 	b	921960 <imx_pwr_domain_pwr_down_wfi+0x24>

0000000000921968 <plat_setup_psci_ops>:
  921968:	a9be7bfd 	stp	x29, x30, [sp, #-32]!
  92196c:	910003fd 	mov	x29, sp
  921970:	f9000bf3 	str	x19, [sp, #16]
  921974:	aa0103f3 	mov	x19, x1
  921978:	940016cf 	bl	9274b4 <imx_mailbox_init>
  92197c:	f0000020 	adrp	x0, 928000 <unsigned_num_print+0x1c>
  921980:	91188000 	add	x0, x0, #0x620
  921984:	f9000260 	str	x0, [x19]
  921988:	52800000 	mov	w0, #0x0                   	// #0
  92198c:	f9400bf3 	ldr	x19, [sp, #16]
  921990:	a8c27bfd 	ldp	x29, x30, [sp], #32
  921994:	d65f03c0 	ret

0000000000921998 <plat_get_power_domain_tree_desc>:
  921998:	f0000020 	adrp	x0, 928000 <unsigned_num_print+0x1c>
  92199c:	911b0000 	add	x0, x0, #0x6c0
  9219a0:	d65f03c0 	ret

00000000009219a4 <plat_core_pos_by_mpidr>:
  9219a4:	92409c01 	and	x1, x0, #0xffffffffff
  9219a8:	92705c00 	and	x0, x0, #0xffffff0000
  9219ac:	9260dc21 	and	x1, x1, #0xffffffff00ffffff
  9219b0:	9260dc00 	and	x0, x0, #0xffffffff00ffffff
  9219b4:	b5000100 	cbnz	x0, 9219d4 <plat_core_pos_by_mpidr+0x30>
  9219b8:	53083c20 	ubfx	w0, w1, #8, #8
  9219bc:	12001c21 	and	w1, w1, #0xff
  9219c0:	7100041f 	cmp	w0, #0x1
  9219c4:	7a449822 	ccmp	w1, #0x4, #0x2, ls  // ls = plast
  9219c8:	0b000820 	add	w0, w1, w0, lsl #2
  9219cc:	5a9f9000 	csinv	w0, w0, wzr, ls  // ls = plast
  9219d0:	d65f03c0 	ret
  9219d4:	12800000 	mov	w0, #0xffffffff            	// #-1
  9219d8:	17fffffe 	b	9219d0 <plat_core_pos_by_mpidr+0x2c>

00000000009219dc <plat_get_target_pwr_state>:
  9219dc:	51000442 	sub	w2, w2, #0x1
  9219e0:	52800080 	mov	w0, #0x4                   	// #4
  9219e4:	91000442 	add	x2, x2, #0x1
  9219e8:	8b020022 	add	x2, x1, x2
  9219ec:	38401423 	ldrb	w3, [x1], #1
  9219f0:	6b00007f 	cmp	w3, w0
  9219f4:	1a803060 	csel	w0, w3, w0, cc  // cc = lo, ul, last
  9219f8:	eb02003f 	cmp	x1, x2
  9219fc:	12001c00 	and	w0, w0, #0xff
  921a00:	54ffff61 	b.ne	9219ec <plat_get_target_pwr_state+0x10>  // b.any
  921a04:	d65f03c0 	ret

0000000000921a08 <xlat_arch_current_el>:
  921a08:	d5384240 	mrs	x0, currentel
  921a0c:	53020c00 	ubfx	w0, w0, #2, #2
  921a10:	d65f03c0 	ret

0000000000921a14 <xlat_arch_get_xn_desc>:
  921a14:	71000c1f 	cmp	w0, #0x3
  921a18:	d2e00801 	mov	x1, #0x40000000000000      	// #18014398509481984
  921a1c:	d2e00400 	mov	x0, #0x20000000000000      	// #9007199254740992
  921a20:	9a800020 	csel	x0, x1, x0, eq  // eq = none
  921a24:	d65f03c0 	ret

0000000000921a28 <init_xlat_tables>:
  921a28:	a9be7bfd 	stp	x29, x30, [sp, #-32]!
  921a2c:	910003fd 	mov	x29, sp
  921a30:	940000bb 	bl	921d1c <print_mmap>
  921a34:	d2800000 	mov	x0, #0x0                   	// #0
  921a38:	910043a4 	add	x4, x29, #0x10
  921a3c:	910063a3 	add	x3, x29, #0x18
  921a40:	52800022 	mov	w2, #0x1                   	// #1
  921a44:	d0000061 	adrp	x1, 92f000 <imx_gicv3_ctx+0x21d0>
  921a48:	911b0021 	add	x1, x1, #0x6c0
  921a4c:	940000ef 	bl	921e08 <init_xlation_table>
  921a50:	f9400ba0 	ldr	x0, [x29, #16]
  921a54:	f2540c1f 	tst	x0, #0xf00000000000
  921a58:	540001a1 	b.ne	921a8c <init_xlat_tables+0x64>  // b.any
  921a5c:	f256041f 	tst	x0, #0xc0000000000
  921a60:	540001a1 	b.ne	921a94 <init_xlat_tables+0x6c>  // b.any
  921a64:	f258041f 	tst	x0, #0x30000000000
  921a68:	540001a1 	b.ne	921a9c <init_xlat_tables+0x74>  // b.any
  921a6c:	f25c0c1f 	tst	x0, #0xf000000000
  921a70:	540001a1 	b.ne	921aa4 <init_xlat_tables+0x7c>  // b.any
  921a74:	f2600c1f 	tst	x0, #0xf00000000
  921a78:	9a9f07e0 	cset	x0, ne  // ne = any
  921a7c:	d0000061 	adrp	x1, 92f000 <imx_gicv3_ctx+0x21d0>
  921a80:	f9037020 	str	x0, [x1, #1760]
  921a84:	a8c27bfd 	ldp	x29, x30, [sp], #32
  921a88:	d65f03c0 	ret
  921a8c:	d28000a0 	mov	x0, #0x5                   	// #5
  921a90:	17fffffb 	b	921a7c <init_xlat_tables+0x54>
  921a94:	d2800080 	mov	x0, #0x4                   	// #4
  921a98:	17fffff9 	b	921a7c <init_xlat_tables+0x54>
  921a9c:	d2800060 	mov	x0, #0x3                   	// #3
  921aa0:	17fffff7 	b	921a7c <init_xlat_tables+0x54>
  921aa4:	d2800040 	mov	x0, #0x2                   	// #2
  921aa8:	17fffff5 	b	921a7c <init_xlat_tables+0x54>

0000000000921aac <enable_mmu_el3>:
  921aac:	d2809fe1 	mov	x1, #0x4ff                 	// #1279
  921ab0:	f2a00881 	movk	x1, #0x44, lsl #16
  921ab4:	d51ea201 	msr	mair_el3, x1
  921ab8:	d50e871f 	tlbi	alle3
  921abc:	d2800401 	mov	x1, #0x20                  	// #32
  921ac0:	f27f001f 	tst	x0, #0x2
  921ac4:	d286a402 	mov	x2, #0x3520                	// #13600
  921ac8:	9a821022 	csel	x2, x1, x2, ne  // ne = any
  921acc:	d0000061 	adrp	x1, 92f000 <imx_gicv3_ctx+0x21d0>
  921ad0:	d2b01003 	mov	x3, #0x80800000            	// #2155872256
  921ad4:	f9437021 	ldr	x1, [x1, #1760]
  921ad8:	aa014061 	orr	x1, x3, x1, lsl #16
  921adc:	aa020021 	orr	x1, x1, x2
  921ae0:	d51e2041 	msr	tcr_el3, x1
  921ae4:	d0000061 	adrp	x1, 92f000 <imx_gicv3_ctx+0x21d0>
  921ae8:	911b0021 	add	x1, x1, #0x6c0
  921aec:	d51e2001 	msr	ttbr0_el3, x1
  921af0:	d5033b9f 	dsb	ish
  921af4:	d5033fdf 	isb
  921af8:	d53e1003 	mrs	x3, sctlr_el3
  921afc:	52800021 	mov	w1, #0x1                   	// #1
  921b00:	121d7862 	and	w2, w3, #0xfffffffb
  921b04:	72a00101 	movk	w1, #0x8, lsl #16
  921b08:	2a010042 	orr	w2, w2, w1
  921b0c:	11001021 	add	w1, w1, #0x4
  921b10:	f240001f 	tst	x0, #0x1
  921b14:	2a030021 	orr	w1, w1, w3
  921b18:	1a820020 	csel	w0, w1, w2, eq  // eq = none
  921b1c:	d51e1000 	msr	sctlr_el3, x0
  921b20:	d5033fdf 	isb
  921b24:	d65f03c0 	ret

0000000000921b28 <enable_mmu_direct_el3>:
  921b28:	17ffffe1 	b	921aac <enable_mmu_el3>

0000000000921b2c <init_xlation_table_inner>:
  921b2c:	a9ba7bfd 	stp	x29, x30, [sp, #-96]!
  921b30:	910003fd 	mov	x29, sp
  921b34:	a9025bf5 	stp	x21, x22, [sp, #32]
  921b38:	2a0303f5 	mov	w21, w3
  921b3c:	a9046bf9 	stp	x25, x26, [sp, #64]
  921b40:	aa0203f9 	mov	x25, x2
  921b44:	0b030c62 	add	w2, w3, w3, lsl #3
  921b48:	a90363f7 	stp	x23, x24, [sp, #48]
  921b4c:	71000ebf 	cmp	w21, #0x3
  921b50:	528004f7 	mov	w23, #0x27                  	// #39
  921b54:	4b0202e2 	sub	w2, w23, w2
  921b58:	d2800023 	mov	x3, #0x1                   	// #1
  921b5c:	d2803ff7 	mov	x23, #0x1ff                 	// #511
  921b60:	d2800078 	mov	x24, #0x3                   	// #3
  921b64:	d0000076 	adrp	x22, 92f000 <imx_gicv3_ctx+0x21d0>
  921b68:	9000009a 	adrp	x26, 931000 <xlat_tables>
  921b6c:	9a830318 	csel	x24, x24, x3, eq  // eq = none
  921b70:	912462d6 	add	x22, x22, #0x918
  921b74:	9100035a 	add	x26, x26, #0x0
  921b78:	a90153f3 	stp	x19, x20, [sp, #16]
  921b7c:	a90573fb 	stp	x27, x28, [sp, #80]
  921b80:	9ac222f7 	lsl	x23, x23, x2
  921b84:	9ac2207c 	lsl	x28, x3, x2
  921b88:	a9408c02 	ldp	x2, x3, [x0, #8]
  921b8c:	b4000263 	cbz	x3, 921bd8 <init_xlation_table_inner+0xac>
  921b90:	8b020063 	add	x3, x3, x2
  921b94:	d1000463 	sub	x3, x3, #0x1
  921b98:	eb01007f 	cmp	x3, x1
  921b9c:	54000582 	b.cs	921c4c <init_xlation_table_inner+0x120>  // b.hs, b.nlast
  921ba0:	91008000 	add	x0, x0, #0x20
  921ba4:	ea17003f 	tst	x1, x23
  921ba8:	540000a0 	b.eq	921bbc <init_xlation_table_inner+0x90>  // b.none
  921bac:	d1000423 	sub	x3, x1, #0x1
  921bb0:	b27f7be2 	mov	x2, #0xfffffffe            	// #4294967294
  921bb4:	eb02007f 	cmp	x3, x2
  921bb8:	54fffe89 	b.ls	921b88 <init_xlation_table_inner+0x5c>  // b.plast
  921bbc:	a94153f3 	ldp	x19, x20, [sp, #16]
  921bc0:	a9425bf5 	ldp	x21, x22, [sp, #32]
  921bc4:	a94363f7 	ldp	x23, x24, [sp, #48]
  921bc8:	a9446bf9 	ldp	x25, x26, [sp, #64]
  921bcc:	a94573fb 	ldp	x27, x28, [sp, #80]
  921bd0:	a8c67bfd 	ldp	x29, x30, [sp], #96
  921bd4:	d65f03c0 	ret
  921bd8:	d2800013 	mov	x19, #0x0                   	// #0
  921bdc:	8b1c003b 	add	x27, x1, x28
  921be0:	d1000766 	sub	x6, x27, #0x1
  921be4:	eb0200df 	cmp	x6, x2
  921be8:	54000963 	b.cc	921d14 <init_xlation_table_inner+0x1e8>  // b.lo, b.ul, b.last
  921bec:	34000615 	cbz	w21, 921cac <init_xlation_table_inner+0x180>
  921bf0:	aa0003e4 	mov	x4, x0
  921bf4:	12800005 	mov	w5, #0xffffffff            	// #-1
  921bf8:	f9400883 	ldr	x3, [x4, #16]
  921bfc:	b40002c3 	cbz	x3, 921c54 <init_xlation_table_inner+0x128>
  921c00:	f9400487 	ldr	x7, [x4, #8]
  921c04:	eb0700df 	cmp	x6, x7
  921c08:	54000263 	b.cc	921c54 <init_xlation_table_inner+0x128>  // b.lo, b.ul, b.last
  921c0c:	8b070063 	add	x3, x3, x7
  921c10:	d1000463 	sub	x3, x3, #0x1
  921c14:	eb03003f 	cmp	x1, x3
  921c18:	54000168 	b.hi	921c44 <init_xlation_table_inner+0x118>  // b.pmore
  921c1c:	35000085 	cbnz	w5, 921c2c <init_xlation_table_inner+0x100>
  921c20:	b9401888 	ldr	w8, [x4, #24]
  921c24:	6b14011f 	cmp	w8, w20
  921c28:	540000e0 	b.eq	921c44 <init_xlation_table_inner+0x118>  // b.none
  921c2c:	eb07003f 	cmp	x1, x7
  921c30:	540003e3 	b.cc	921cac <init_xlation_table_inner+0x180>  // b.lo, b.ul, b.last
  921c34:	eb0300df 	cmp	x6, x3
  921c38:	540003a8 	b.hi	921cac <init_xlation_table_inner+0x180>  // b.pmore
  921c3c:	b9401894 	ldr	w20, [x4, #24]
  921c40:	52800005 	mov	w5, #0x0                   	// #0
  921c44:	91008084 	add	x4, x4, #0x20
  921c48:	17ffffec 	b	921bf8 <init_xlation_table_inner+0xcc>
  921c4c:	92800013 	mov	x19, #0xffffffffffffffff    	// #-1
  921c50:	17ffffe3 	b	921bdc <init_xlation_table_inner+0xb0>
  921c54:	350002c5 	cbnz	w5, 921cac <init_xlation_table_inner+0x180>
  921c58:	f9400013 	ldr	x19, [x0]
  921c5c:	d0000065 	adrp	x5, 92f000 <imx_gicv3_ctx+0x21d0>
  921c60:	f27d029f 	tst	x20, #0x8
  921c64:	d37f7e84 	ubfiz	x4, x20, #1, #32
  921c68:	8b130033 	add	x19, x1, x19
  921c6c:	9a9f17e3 	cset	x3, eq  // eq = none
  921c70:	cb020273 	sub	x19, x19, x2
  921c74:	927b0084 	and	x4, x4, #0x20
  921c78:	aa180262 	orr	x2, x19, x24
  921c7c:	f94374b3 	ldr	x19, [x5, #1768]
  921c80:	b2760273 	orr	x19, x19, #0x400
  921c84:	aa020273 	orr	x19, x19, x2
  921c88:	aa031c82 	orr	x2, x4, x3, lsl #7
  921c8c:	aa020273 	orr	x19, x19, x2
  921c90:	72000a83 	ands	w3, w20, #0x7
  921c94:	54000281 	b.ne	921ce4 <init_xlation_table_inner+0x1b8>  // b.any
  921c98:	d0000062 	adrp	x2, 92f000 <imx_gicv3_ctx+0x21d0>
  921c9c:	d2804083 	mov	x3, #0x204                 	// #516
  921ca0:	f9437842 	ldr	x2, [x2, #1776]
  921ca4:	aa030042 	orr	x2, x2, x3
  921ca8:	aa130053 	orr	x19, x2, x19
  921cac:	b100067f 	cmn	x19, #0x1
  921cb0:	54000121 	b.ne	921cd4 <init_xlation_table_inner+0x1a8>  // b.any
  921cb4:	b94002c3 	ldr	w3, [x22]
  921cb8:	d3747c62 	ubfiz	x2, x3, #12, #32
  921cbc:	11000463 	add	w3, w3, #0x1
  921cc0:	8b1a0042 	add	x2, x2, x26
  921cc4:	b90002c3 	str	w3, [x22]
  921cc8:	b2400453 	orr	x19, x2, #0x3
  921ccc:	110006a3 	add	w3, w21, #0x1
  921cd0:	97ffff97 	bl	921b2c <init_xlation_table_inner>
  921cd4:	f9000333 	str	x19, [x25]
  921cd8:	aa1b03e1 	mov	x1, x27
  921cdc:	91002339 	add	x25, x25, #0x8
  921ce0:	17ffffb1 	b	921ba4 <init_xlation_table_inner+0x78>
  921ce4:	52800502 	mov	w2, #0x28                  	// #40
  921ce8:	6a02029f 	tst	w20, w2
  921cec:	54000080 	b.eq	921cfc <init_xlation_table_inner+0x1d0>  // b.none
  921cf0:	d0000062 	adrp	x2, 92f000 <imx_gicv3_ctx+0x21d0>
  921cf4:	f9437842 	ldr	x2, [x2, #1776]
  921cf8:	aa020273 	orr	x19, x19, x2
  921cfc:	b2780662 	orr	x2, x19, #0x300
  921d00:	d2804104 	mov	x4, #0x208                 	// #520
  921d04:	7100087f 	cmp	w3, #0x2
  921d08:	aa040273 	orr	x19, x19, x4
  921d0c:	9a821273 	csel	x19, x19, x2, ne  // ne = any
  921d10:	17ffffe7 	b	921cac <init_xlation_table_inner+0x180>
  921d14:	d2800013 	mov	x19, #0x0                   	// #0
  921d18:	17ffffef 	b	921cd4 <init_xlation_table_inner+0x1a8>

0000000000921d1c <print_mmap>:
  921d1c:	d65f03c0 	ret

0000000000921d20 <mmap_add_region>:
  921d20:	b4000722 	cbz	x2, 921e04 <mmap_add_region+0xe4>
  921d24:	a9bc7bfd 	stp	x29, x30, [sp, #-64]!
  921d28:	d0000064 	adrp	x4, 92f000 <imx_gicv3_ctx+0x21d0>
  921d2c:	910003fd 	mov	x29, sp
  921d30:	a90153f3 	stp	x19, x20, [sp, #16]
  921d34:	911be093 	add	x19, x4, #0x6f8
  921d38:	a9025bf5 	stp	x21, x22, [sp, #32]
  921d3c:	a90363f7 	stp	x23, x24, [sp, #48]
  921d40:	f9400666 	ldr	x6, [x19, #8]
  921d44:	91008265 	add	x5, x19, #0x20
  921d48:	eb0100df 	cmp	x6, x1
  921d4c:	540004c2 	b.cs	921de4 <mmap_add_region+0xc4>  // b.hs, b.nlast
  921d50:	f85f00a6 	ldur	x6, [x5, #-16]
  921d54:	b5000426 	cbnz	x6, 921dd8 <mmap_add_region+0xb8>
  921d58:	911be084 	add	x4, x4, #0x6f8
  921d5c:	d1000456 	sub	x22, x2, #0x1
  921d60:	91080084 	add	x4, x4, #0x200
  921d64:	2a0303f8 	mov	w24, w3
  921d68:	aa0203f5 	mov	x21, x2
  921d6c:	aa0103f4 	mov	x20, x1
  921d70:	aa0003f7 	mov	x23, x0
  921d74:	8b0002d6 	add	x22, x22, x0
  921d78:	aa1303e1 	mov	x1, x19
  921d7c:	cb130082 	sub	x2, x4, x19
  921d80:	91008260 	add	x0, x19, #0x20
  921d84:	9400187f 	bl	927f80 <memmove>
  921d88:	d0000060 	adrp	x0, 92f000 <imx_gicv3_ctx+0x21d0>
  921d8c:	a9005277 	stp	x23, x20, [x19]
  921d90:	f9000a75 	str	x21, [x19, #16]
  921d94:	f9449001 	ldr	x1, [x0, #2336]
  921d98:	b9001a78 	str	w24, [x19, #24]
  921d9c:	eb16003f 	cmp	x1, x22
  921da0:	54000042 	b.cs	921da8 <mmap_add_region+0x88>  // b.hs, b.nlast
  921da4:	f9049016 	str	x22, [x0, #2336]
  921da8:	d0000060 	adrp	x0, 92f000 <imx_gicv3_ctx+0x21d0>
  921dac:	d1000681 	sub	x1, x20, #0x1
  921db0:	8b150021 	add	x1, x1, x21
  921db4:	f9449402 	ldr	x2, [x0, #2344]
  921db8:	eb01005f 	cmp	x2, x1
  921dbc:	54000042 	b.cs	921dc4 <mmap_add_region+0xa4>  // b.hs, b.nlast
  921dc0:	f9049401 	str	x1, [x0, #2344]
  921dc4:	a94153f3 	ldp	x19, x20, [sp, #16]
  921dc8:	a9425bf5 	ldp	x21, x22, [sp, #32]
  921dcc:	a94363f7 	ldp	x23, x24, [sp, #48]
  921dd0:	a8c47bfd 	ldp	x29, x30, [sp], #64
  921dd4:	d65f03c0 	ret
  921dd8:	aa0503f3 	mov	x19, x5
  921ddc:	17ffffd9 	b	921d40 <mmap_add_region+0x20>
  921de0:	aa0503f3 	mov	x19, x5
  921de4:	f9400666 	ldr	x6, [x19, #8]
  921de8:	91008265 	add	x5, x19, #0x20
  921dec:	eb0100df 	cmp	x6, x1
  921df0:	54fffb41 	b.ne	921d58 <mmap_add_region+0x38>  // b.any
  921df4:	f85f00a6 	ldur	x6, [x5, #-16]
  921df8:	eb0200df 	cmp	x6, x2
  921dfc:	54ffff28 	b.hi	921de0 <mmap_add_region+0xc0>  // b.pmore
  921e00:	17ffffd6 	b	921d58 <mmap_add_region+0x38>
  921e04:	d65f03c0 	ret

0000000000921e08 <init_xlation_table>:
  921e08:	a9bc7bfd 	stp	x29, x30, [sp, #-64]!
  921e0c:	910003fd 	mov	x29, sp
  921e10:	a90153f3 	stp	x19, x20, [sp, #16]
  921e14:	aa0403f3 	mov	x19, x4
  921e18:	a9025bf5 	stp	x21, x22, [sp, #32]
  921e1c:	aa0303f4 	mov	x20, x3
  921e20:	a90363f7 	stp	x23, x24, [sp, #48]
  921e24:	aa0103f6 	mov	x22, x1
  921e28:	2a0203f7 	mov	w23, w2
  921e2c:	aa0003f5 	mov	x21, x0
  921e30:	97fffef6 	bl	921a08 <xlat_arch_current_el>
  921e34:	2a0003f8 	mov	w24, w0
  921e38:	97fffef7 	bl	921a14 <xlat_arch_get_xn_desc>
  921e3c:	d0000061 	adrp	x1, 92f000 <imx_gicv3_ctx+0x21d0>
  921e40:	71000f1f 	cmp	w24, #0x3
  921e44:	2a1703e3 	mov	w3, w23
  921e48:	aa1603e2 	mov	x2, x22
  921e4c:	f9037820 	str	x0, [x1, #1776]
  921e50:	d0000061 	adrp	x1, 92f000 <imx_gicv3_ctx+0x21d0>
  921e54:	d2800800 	mov	x0, #0x40                  	// #64
  921e58:	9a9f0000 	csel	x0, x0, xzr, eq  // eq = none
  921e5c:	f9037420 	str	x0, [x1, #1768]
  921e60:	aa1503e1 	mov	x1, x21
  921e64:	d0000060 	adrp	x0, 92f000 <imx_gicv3_ctx+0x21d0>
  921e68:	911be000 	add	x0, x0, #0x6f8
  921e6c:	97ffff30 	bl	921b2c <init_xlation_table_inner>
  921e70:	d0000060 	adrp	x0, 92f000 <imx_gicv3_ctx+0x21d0>
  921e74:	a9425bf5 	ldp	x21, x22, [sp, #32]
  921e78:	f9449400 	ldr	x0, [x0, #2344]
  921e7c:	a94363f7 	ldp	x23, x24, [sp, #48]
  921e80:	f9000280 	str	x0, [x20]
  921e84:	d0000060 	adrp	x0, 92f000 <imx_gicv3_ctx+0x21d0>
  921e88:	f9449000 	ldr	x0, [x0, #2336]
  921e8c:	f9000260 	str	x0, [x19]
  921e90:	a94153f3 	ldp	x19, x20, [sp, #16]
  921e94:	a8c47bfd 	ldp	x29, x30, [sp], #64
  921e98:	d65f03c0 	ret

0000000000921e9c <udelay>:
  921e9c:	a9bd7bfd 	stp	x29, x30, [sp, #-48]!
  921ea0:	910003fd 	mov	x29, sp
  921ea4:	a90153f3 	stp	x19, x20, [sp, #16]
  921ea8:	d0000074 	adrp	x20, 92f000 <imx_gicv3_ctx+0x21d0>
  921eac:	2a0003f3 	mov	w19, w0
  921eb0:	f9449a80 	ldr	x0, [x20, #2352]
  921eb4:	f9400000 	ldr	x0, [x0]
  921eb8:	f90013f5 	str	x21, [sp, #32]
  921ebc:	d63f0000 	blr	x0
  921ec0:	2a0003f5 	mov	w21, w0
  921ec4:	f9449a81 	ldr	x1, [x20, #2352]
  921ec8:	29410820 	ldp	w0, w2, [x1, #8]
  921ecc:	51000401 	sub	w1, w0, #0x1
  921ed0:	1b020673 	madd	w19, w19, w2, w1
  921ed4:	1ac00a73 	udiv	w19, w19, w0
  921ed8:	11000673 	add	w19, w19, #0x1
  921edc:	f9449a80 	ldr	x0, [x20, #2352]
  921ee0:	f9400000 	ldr	x0, [x0]
  921ee4:	d63f0000 	blr	x0
  921ee8:	4b0002a0 	sub	w0, w21, w0
  921eec:	6b00027f 	cmp	w19, w0
  921ef0:	54ffff68 	b.hi	921edc <udelay+0x40>  // b.pmore
  921ef4:	a94153f3 	ldp	x19, x20, [sp, #16]
  921ef8:	f94013f5 	ldr	x21, [sp, #32]
  921efc:	a8c37bfd 	ldp	x29, x30, [sp], #48
  921f00:	d65f03c0 	ret

0000000000921f04 <timer_init>:
  921f04:	d0000061 	adrp	x1, 92f000 <imx_gicv3_ctx+0x21d0>
  921f08:	f9049820 	str	x0, [x1, #2352]
  921f0c:	d65f03c0 	ret

0000000000921f10 <get_timer_value>:
  921f10:	d53be020 	mrs	x0, cntpct_el0
  921f14:	2a2003e0 	mvn	w0, w0
  921f18:	d65f03c0 	ret

0000000000921f1c <generic_delay_timer_init_args>:
  921f1c:	d0000064 	adrp	x4, 92f000 <imx_gicv3_ctx+0x21d0>
  921f20:	9124e082 	add	x2, x4, #0x938
  921f24:	90000003 	adrp	x3, 921000 <imx_gpc_init+0x90>
  921f28:	913c4063 	add	x3, x3, #0xf10
  921f2c:	f9049c83 	str	x3, [x4, #2360]
  921f30:	29010440 	stp	w0, w1, [x2, #8]
  921f34:	aa0203e0 	mov	x0, x2
  921f38:	17fffff3 	b	921f04 <timer_init>

0000000000921f3c <generic_delay_timer_init>:
  921f3c:	a9bf7bfd 	stp	x29, x30, [sp, #-16]!
  921f40:	910003fd 	mov	x29, sp
  921f44:	97fff9b7 	bl	920620 <plat_get_syscnt_freq2>
  921f48:	2a0003e1 	mov	w1, w0
  921f4c:	52884800 	mov	w0, #0x4240                	// #16960
  921f50:	528000e3 	mov	w3, #0x7                   	// #7
  921f54:	72a001e0 	movk	w0, #0xf, lsl #16
  921f58:	52800142 	mov	w2, #0xa                   	// #10
  921f5c:	71000463 	subs	w3, w3, #0x1
  921f60:	54000061 	b.ne	921f6c <generic_delay_timer_init+0x30>  // b.any
  921f64:	a8c17bfd 	ldp	x29, x30, [sp], #16
  921f68:	17ffffed 	b	921f1c <generic_delay_timer_init_args>
  921f6c:	1ac20824 	udiv	w4, w1, w2
  921f70:	1b028485 	msub	w5, w4, w2, w1
  921f74:	35ffff85 	cbnz	w5, 921f64 <generic_delay_timer_init+0x28>
  921f78:	1ac20800 	udiv	w0, w0, w2
  921f7c:	2a0403e1 	mov	w1, w4
  921f80:	17fffff7 	b	921f5c <generic_delay_timer_init+0x20>

0000000000921f84 <gicd_read_igrpmodr>:
  921f84:	53057c21 	lsr	w1, w1, #5
  921f88:	91340000 	add	x0, x0, #0xd00
  921f8c:	d37e6821 	ubfiz	x1, x1, #2, #27
  921f90:	b8606820 	ldr	w0, [x1, x0]
  921f94:	d65f03c0 	ret

0000000000921f98 <gicd_write_igrpmodr>:
  921f98:	53057c21 	lsr	w1, w1, #5
  921f9c:	91340000 	add	x0, x0, #0xd00
  921fa0:	d37e6821 	ubfiz	x1, x1, #2, #27
  921fa4:	b8206822 	str	w2, [x1, x0]
  921fa8:	d65f03c0 	ret

0000000000921fac <gicd_set_igrpmodr>:
  921fac:	2a0103e3 	mov	w3, w1
  921fb0:	aa0003e4 	mov	x4, x0
  921fb4:	a9bf7bfd 	stp	x29, x30, [sp, #-16]!
  921fb8:	910003fd 	mov	x29, sp
  921fbc:	97fffff2 	bl	921f84 <gicd_read_igrpmodr>
  921fc0:	2a0303e1 	mov	w1, w3
  921fc4:	a8c17bfd 	ldp	x29, x30, [sp], #16
  921fc8:	52800022 	mov	w2, #0x1                   	// #1
  921fcc:	1ac32042 	lsl	w2, w2, w3
  921fd0:	2a000042 	orr	w2, w2, w0
  921fd4:	aa0403e0 	mov	x0, x4
  921fd8:	17fffff0 	b	921f98 <gicd_write_igrpmodr>

0000000000921fdc <gicd_clr_igrpmodr>:
  921fdc:	2a0103e3 	mov	w3, w1
  921fe0:	aa0003e4 	mov	x4, x0
  921fe4:	a9bf7bfd 	stp	x29, x30, [sp, #-16]!
  921fe8:	910003fd 	mov	x29, sp
  921fec:	97ffffe6 	bl	921f84 <gicd_read_igrpmodr>
  921ff0:	2a0303e1 	mov	w1, w3
  921ff4:	a8c17bfd 	ldp	x29, x30, [sp], #16
  921ff8:	52800022 	mov	w2, #0x1                   	// #1
  921ffc:	1ac32042 	lsl	w2, w2, w3
  922000:	0a220002 	bic	w2, w0, w2
  922004:	aa0403e0 	mov	x0, x4
  922008:	17ffffe4 	b	921f98 <gicd_write_igrpmodr>

000000000092200c <gicr_read_ipriorityr>:
  92200c:	91404000 	add	x0, x0, #0x10, lsl #12
  922010:	927e7421 	and	x1, x1, #0xfffffffc
  922014:	91100000 	add	x0, x0, #0x400
  922018:	b8606820 	ldr	w0, [x1, x0]
  92201c:	d65f03c0 	ret

0000000000922020 <gicr_write_ipriorityr>:
  922020:	91404000 	add	x0, x0, #0x10, lsl #12
  922024:	927e7421 	and	x1, x1, #0xfffffffc
  922028:	91100000 	add	x0, x0, #0x400
  92202c:	b8206822 	str	w2, [x1, x0]
  922030:	d65f03c0 	ret

0000000000922034 <gicr_clr_igroupr0>:
  922034:	d2801003 	mov	x3, #0x80                  	// #128
  922038:	52800022 	mov	w2, #0x1                   	// #1
  92203c:	f2a00023 	movk	x3, #0x1, lsl #16
  922040:	1ac12041 	lsl	w1, w2, w1
  922044:	b8636804 	ldr	w4, [x0, x3]
  922048:	0a210081 	bic	w1, w4, w1
  92204c:	b8236801 	str	w1, [x0, x3]
  922050:	d65f03c0 	ret

0000000000922054 <gicr_set_igrpmodr0>:
  922054:	d281a003 	mov	x3, #0xd00                 	// #3328
  922058:	52800022 	mov	w2, #0x1                   	// #1
  92205c:	f2a00023 	movk	x3, #0x1, lsl #16
  922060:	1ac12041 	lsl	w1, w2, w1
  922064:	b8636804 	ldr	w4, [x0, x3]
  922068:	2a040021 	orr	w1, w1, w4
  92206c:	b8236801 	str	w1, [x0, x3]
  922070:	d65f03c0 	ret

0000000000922074 <gicr_clr_igrpmodr0>:
  922074:	d281a003 	mov	x3, #0xd00                 	// #3328
  922078:	52800022 	mov	w2, #0x1                   	// #1
  92207c:	f2a00023 	movk	x3, #0x1, lsl #16
  922080:	1ac12041 	lsl	w1, w2, w1
  922084:	b8636804 	ldr	w4, [x0, x3]
  922088:	0a210081 	bic	w1, w4, w1
  92208c:	b8236801 	str	w1, [x0, x3]
  922090:	d65f03c0 	ret

0000000000922094 <gicr_set_isenabler0>:
  922094:	52800022 	mov	w2, #0x1                   	// #1
  922098:	1ac12041 	lsl	w1, w2, w1
  92209c:	d2802002 	mov	x2, #0x100                 	// #256
  9220a0:	f2a00022 	movk	x2, #0x1, lsl #16
  9220a4:	b8226801 	str	w1, [x0, x2]
  9220a8:	d65f03c0 	ret

00000000009220ac <gicr_set_icfgr1>:
  9220ac:	d2818084 	mov	x4, #0xc04                 	// #3076
  9220b0:	531f0c21 	ubfiz	w1, w1, #1, #4
  9220b4:	f2a00024 	movk	x4, #0x1, lsl #16
  9220b8:	12000442 	and	w2, w2, #0x3
  9220bc:	52800063 	mov	w3, #0x3                   	// #3
  9220c0:	b8646805 	ldr	w5, [x0, x4]
  9220c4:	1ac12063 	lsl	w3, w3, w1
  9220c8:	1ac12041 	lsl	w1, w2, w1
  9220cc:	0a2300a3 	bic	w3, w5, w3
  9220d0:	2a030021 	orr	w1, w1, w3
  9220d4:	b8246801 	str	w1, [x0, x4]
  9220d8:	d65f03c0 	ret

00000000009220dc <gicv3_rdistif_mark_core_awake>:
  9220dc:	b9401401 	ldr	w1, [x0, #20]
  9220e0:	91005002 	add	x2, x0, #0x14
  9220e4:	36f800c1 	tbz	w1, #31, 9220fc <gicv3_rdistif_mark_core_awake+0x20>
  9220e8:	b9401401 	ldr	w1, [x0, #20]
  9220ec:	121f7821 	and	w1, w1, #0xfffffffe
  9220f0:	b9001401 	str	w1, [x0, #20]
  9220f4:	b9400041 	ldr	w1, [x2]
  9220f8:	37ffffe1 	tbnz	w1, #31, 9220f4 <gicv3_rdistif_mark_core_awake+0x18>
  9220fc:	b9401401 	ldr	w1, [x0, #20]
  922100:	121e7821 	and	w1, w1, #0xfffffffd
  922104:	b9001401 	str	w1, [x0, #20]
  922108:	b9400040 	ldr	w0, [x2]
  92210c:	3717ffe0 	tbnz	w0, #2, 922108 <gicv3_rdistif_mark_core_awake+0x2c>
  922110:	d65f03c0 	ret

0000000000922114 <gicv3_rdistif_mark_core_asleep>:
  922114:	b9401401 	ldr	w1, [x0, #20]
  922118:	91005002 	add	x2, x0, #0x14
  92211c:	321f0021 	orr	w1, w1, #0x2
  922120:	b9001401 	str	w1, [x0, #20]
  922124:	b9400040 	ldr	w0, [x2]
  922128:	3617ffe0 	tbz	w0, #2, 922124 <gicv3_rdistif_mark_core_asleep+0x10>
  92212c:	d65f03c0 	ret

0000000000922130 <gicv3_rdistif_base_addrs_probe>:
  922130:	a9bd7bfd 	stp	x29, x30, [sp, #-48]!
  922134:	910003fd 	mov	x29, sp
  922138:	a90153f3 	stp	x19, x20, [sp, #16]
  92213c:	aa0203f4 	mov	x20, x2
  922140:	a9025bf5 	stp	x21, x22, [sp, #32]
  922144:	aa0003f6 	mov	x22, x0
  922148:	aa0303f5 	mov	x21, x3
  92214c:	f9400693 	ldr	x19, [x20, #8]
  922150:	b4000195 	cbz	x21, 922180 <gicv3_rdistif_base_addrs_probe+0x50>
  922154:	d360de61 	ubfx	x1, x19, #32, #24
  922158:	d378fe60 	lsr	x0, x19, #56
  92215c:	aa008020 	orr	x0, x1, x0, lsl #32
  922160:	d63f02a0 	blr	x21
  922164:	f8205ad4 	str	x20, [x22, w0, uxtw #3]
  922168:	91408294 	add	x20, x20, #0x20, lsl #12
  92216c:	3627ff13 	tbz	w19, #4, 92214c <gicv3_rdistif_base_addrs_probe+0x1c>
  922170:	a94153f3 	ldp	x19, x20, [sp, #16]
  922174:	a9425bf5 	ldp	x21, x22, [sp, #32]
  922178:	a8c37bfd 	ldp	x29, x30, [sp], #48
  92217c:	d65f03c0 	ret
  922180:	53085e60 	ubfx	w0, w19, #8, #16
  922184:	17fffff8 	b	922164 <gicv3_rdistif_base_addrs_probe+0x34>

0000000000922188 <gicv3_spis_config_defaults>:
  922188:	a9bd7bfd 	stp	x29, x30, [sp, #-48]!
  92218c:	910003fd 	mov	x29, sp
  922190:	a90153f3 	stp	x19, x20, [sp, #16]
  922194:	52800414 	mov	w20, #0x20                  	// #32
  922198:	b9400413 	ldr	w19, [x0, #4]
  92219c:	f90013f5 	str	x21, [sp, #32]
  9221a0:	aa0003f5 	mov	x21, x0
  9221a4:	531b1273 	ubfiz	w19, w19, #5, #5
  9221a8:	11008273 	add	w19, w19, #0x20
  9221ac:	6b13029f 	cmp	w20, w19
  9221b0:	54000163 	b.cc	9221dc <gicv3_spis_config_defaults+0x54>  // b.lo, b.ul, b.last
  9221b4:	52800414 	mov	w20, #0x20                  	// #32
  9221b8:	6b13029f 	cmp	w20, w19
  9221bc:	540001c3 	b.cc	9221f4 <gicv3_spis_config_defaults+0x6c>  // b.lo, b.ul, b.last
  9221c0:	52800414 	mov	w20, #0x20                  	// #32
  9221c4:	6b13029f 	cmp	w20, w19
  9221c8:	54000223 	b.cc	92220c <gicv3_spis_config_defaults+0x84>  // b.lo, b.ul, b.last
  9221cc:	a94153f3 	ldp	x19, x20, [sp, #16]
  9221d0:	f94013f5 	ldr	x21, [sp, #32]
  9221d4:	a8c37bfd 	ldp	x29, x30, [sp], #48
  9221d8:	d65f03c0 	ret
  9221dc:	2a1403e1 	mov	w1, w20
  9221e0:	12800002 	mov	w2, #0xffffffff            	// #-1
  9221e4:	aa1503e0 	mov	x0, x21
  9221e8:	11008294 	add	w20, w20, #0x20
  9221ec:	940002f7 	bl	922dc8 <gicd_write_igroupr>
  9221f0:	17ffffef 	b	9221ac <gicv3_spis_config_defaults+0x24>
  9221f4:	2a1403e1 	mov	w1, w20
  9221f8:	3201c3e2 	mov	w2, #0x80808080            	// #-2139062144
  9221fc:	aa1503e0 	mov	x0, x21
  922200:	11001294 	add	w20, w20, #0x4
  922204:	94000305 	bl	922e18 <gicd_write_ipriorityr>
  922208:	17ffffec 	b	9221b8 <gicv3_spis_config_defaults+0x30>
  92220c:	2a1403e1 	mov	w1, w20
  922210:	52800002 	mov	w2, #0x0                   	// #0
  922214:	aa1503e0 	mov	x0, x21
  922218:	11004294 	add	w20, w20, #0x10
  92221c:	94000303 	bl	922e28 <gicd_write_icfgr>
  922220:	17ffffe9 	b	9221c4 <gicv3_spis_config_defaults+0x3c>

0000000000922224 <gicv3_secure_spis_config_props>:
  922224:	a9bc7bfd 	stp	x29, x30, [sp, #-64]!
  922228:	910003fd 	mov	x29, sp
  92222c:	a90153f3 	stp	x19, x20, [sp, #16]
  922230:	aa0003f4 	mov	x20, x0
  922234:	a9025bf5 	stp	x21, x22, [sp, #32]
  922238:	aa0103f3 	mov	x19, x1
  92223c:	f9001bf7 	str	x23, [sp, #48]
  922240:	8b224836 	add	x22, x1, w2, uxtw #2
  922244:	91401817 	add	x23, x0, #0x6, lsl #12
  922248:	52800015 	mov	w21, #0x0                   	// #0
  92224c:	eb16027f 	cmp	x19, x22
  922250:	540000e1 	b.ne	92226c <gicv3_secure_spis_config_props+0x48>  // b.any
  922254:	2a1503e0 	mov	w0, w21
  922258:	f9401bf7 	ldr	x23, [sp, #48]
  92225c:	a94153f3 	ldp	x19, x20, [sp, #16]
  922260:	a9425bf5 	ldp	x21, x22, [sp, #32]
  922264:	a8c47bfd 	ldp	x29, x30, [sp], #64
  922268:	d65f03c0 	ret
  92226c:	79400261 	ldrh	w1, [x19]
  922270:	12002421 	and	w1, w1, #0x3ff
  922274:	71007c3f 	cmp	w1, #0x1f
  922278:	540003e9 	b.ls	9222f4 <gicv3_secure_spis_config_props+0xd0>  // b.plast
  92227c:	aa1403e0 	mov	x0, x20
  922280:	940002f4 	bl	922e50 <gicd_clr_igroupr>
  922284:	39400a60 	ldrb	w0, [x19, #2]
  922288:	79400261 	ldrh	w1, [x19]
  92228c:	721e041f 	tst	w0, #0xc
  922290:	aa1403e0 	mov	x0, x20
  922294:	12002421 	and	w1, w1, #0x3ff
  922298:	54000321 	b.ne	9222fc <gicv3_secure_spis_config_props+0xd8>  // b.any
  92229c:	321e02b5 	orr	w21, w21, #0x4
  9222a0:	97ffff43 	bl	921fac <gicd_set_igrpmodr>
  9222a4:	39400a62 	ldrb	w2, [x19, #2]
  9222a8:	aa1403e0 	mov	x0, x20
  9222ac:	79400261 	ldrh	w1, [x19]
  9222b0:	d3441442 	ubfx	x2, x2, #4, #2
  9222b4:	12002421 	and	w1, w1, #0x3ff
  9222b8:	940002fa 	bl	922ea0 <gicd_set_icfgr>
  9222bc:	b9400262 	ldr	w2, [x19]
  9222c0:	aa1403e0 	mov	x0, x20
  9222c4:	79400261 	ldrh	w1, [x19]
  9222c8:	d34a4442 	ubfx	x2, x2, #10, #8
  9222cc:	12002421 	and	w1, w1, #0x3ff
  9222d0:	940002ef 	bl	922e8c <gicd_set_ipriorityr>
  9222d4:	d53800a0 	mrs	x0, mpidr_el1
  9222d8:	79400261 	ldrh	w1, [x19]
  9222dc:	92405c00 	and	x0, x0, #0xffffff
  9222e0:	12002421 	and	w1, w1, #0x3ff
  9222e4:	d37d2422 	ubfiz	x2, x1, #3, #10
  9222e8:	f8226ae0 	str	x0, [x23, x2]
  9222ec:	aa1403e0 	mov	x0, x20
  9222f0:	940002e4 	bl	922e80 <gicd_set_isenabler>
  9222f4:	91001273 	add	x19, x19, #0x4
  9222f8:	17ffffd5 	b	92224c <gicv3_secure_spis_config_props+0x28>
  9222fc:	97ffff38 	bl	921fdc <gicd_clr_igrpmodr>
  922300:	320002b5 	orr	w21, w21, #0x1
  922304:	17ffffe8 	b	9222a4 <gicv3_secure_spis_config_props+0x80>

0000000000922308 <gicv3_ppi_sgi_config_defaults>:
  922308:	d2803001 	mov	x1, #0x180                 	// #384
  92230c:	12800002 	mov	w2, #0xffffffff            	// #-1
  922310:	f2a00021 	movk	x1, #0x1, lsl #16
  922314:	b8216802 	str	w2, [x0, x1]
  922318:	b9400001 	ldr	w1, [x0]
  92231c:	371fffe1 	tbnz	w1, #3, 922318 <gicv3_ppi_sgi_config_defaults+0x10>
  922320:	d2801001 	mov	x1, #0x80                  	// #128
  922324:	12800002 	mov	w2, #0xffffffff            	// #-1
  922328:	f2a00021 	movk	x1, #0x1, lsl #16
  92232c:	3201c3e3 	mov	w3, #0x80808080            	// #-2139062144
  922330:	b8216802 	str	w2, [x0, x1]
  922334:	91404001 	add	x1, x0, #0x10, lsl #12
  922338:	91404002 	add	x2, x0, #0x10, lsl #12
  92233c:	91100021 	add	x1, x1, #0x400
  922340:	91108042 	add	x2, x2, #0x420
  922344:	b8004423 	str	w3, [x1], #4
  922348:	eb02003f 	cmp	x1, x2
  92234c:	54ffffc1 	b.ne	922344 <gicv3_ppi_sgi_config_defaults+0x3c>  // b.any
  922350:	d2818081 	mov	x1, #0xc04                 	// #3076
  922354:	f2a00021 	movk	x1, #0x1, lsl #16
  922358:	b821681f 	str	wzr, [x0, x1]
  92235c:	d65f03c0 	ret

0000000000922360 <gicv3_secure_ppi_sgi_config_props>:
  922360:	9140400a 	add	x10, x0, #0x10, lsl #12
  922364:	aa0003e7 	mov	x7, x0
  922368:	aa0103e6 	mov	x6, x1
  92236c:	8b224829 	add	x9, x1, w2, uxtw #2
  922370:	9110014a 	add	x10, x10, #0x400
  922374:	52800008 	mov	w8, #0x0                   	// #0
  922378:	eb0900df 	cmp	x6, x9
  92237c:	540005a1 	b.ne	922430 <gicv3_secure_ppi_sgi_config_props+0xd0>  // b.any
  922380:	2a0803e0 	mov	w0, w8
  922384:	d65f03c0 	ret
  922388:	794000c1 	ldrh	w1, [x6]
  92238c:	12002421 	and	w1, w1, #0x3ff
  922390:	71007c3f 	cmp	w1, #0x1f
  922394:	540003c8 	b.hi	92240c <gicv3_secure_ppi_sgi_config_props+0xac>  // b.pmore
  922398:	aa0703e0 	mov	x0, x7
  92239c:	97ffff26 	bl	922034 <gicr_clr_igroupr0>
  9223a0:	394008c0 	ldrb	w0, [x6, #2]
  9223a4:	794000c1 	ldrh	w1, [x6]
  9223a8:	721e041f 	tst	w0, #0xc
  9223ac:	aa0703e0 	mov	x0, x7
  9223b0:	12002421 	and	w1, w1, #0x3ff
  9223b4:	54000381 	b.ne	922424 <gicv3_secure_ppi_sgi_config_props+0xc4>  // b.any
  9223b8:	97ffff27 	bl	922054 <gicr_set_igrpmodr0>
  9223bc:	321e0108 	orr	w8, w8, #0x4
  9223c0:	794000c0 	ldrh	w0, [x6]
  9223c4:	b94000c1 	ldr	w1, [x6]
  9223c8:	92402400 	and	x0, x0, #0x3ff
  9223cc:	d34a4421 	ubfx	x1, x1, #10, #8
  9223d0:	38206941 	strb	w1, [x10, x0]
  9223d4:	794000c1 	ldrh	w1, [x6]
  9223d8:	12002421 	and	w1, w1, #0x3ff
  9223dc:	110fc020 	add	w0, w1, #0x3f0
  9223e0:	12002400 	and	w0, w0, #0x3ff
  9223e4:	71003c1f 	cmp	w0, #0xf
  9223e8:	540000a8 	b.hi	9223fc <gicv3_secure_ppi_sgi_config_props+0x9c>  // b.pmore
  9223ec:	394008c2 	ldrb	w2, [x6, #2]
  9223f0:	aa0703e0 	mov	x0, x7
  9223f4:	d3441442 	ubfx	x2, x2, #4, #2
  9223f8:	97ffff2d 	bl	9220ac <gicr_set_icfgr1>
  9223fc:	794000c1 	ldrh	w1, [x6]
  922400:	aa0703e0 	mov	x0, x7
  922404:	12002421 	and	w1, w1, #0x3ff
  922408:	97ffff23 	bl	922094 <gicr_set_isenabler0>
  92240c:	910010c6 	add	x6, x6, #0x4
  922410:	eb0900df 	cmp	x6, x9
  922414:	54fffba1 	b.ne	922388 <gicv3_secure_ppi_sgi_config_props+0x28>  // b.any
  922418:	2a0803e0 	mov	w0, w8
  92241c:	a8c17bfd 	ldp	x29, x30, [sp], #16
  922420:	d65f03c0 	ret
  922424:	97ffff14 	bl	922074 <gicr_clr_igrpmodr0>
  922428:	32000108 	orr	w8, w8, #0x1
  92242c:	17ffffe5 	b	9223c0 <gicv3_secure_ppi_sgi_config_props+0x60>
  922430:	794000c1 	ldrh	w1, [x6]
  922434:	12002421 	and	w1, w1, #0x3ff
  922438:	71007c3f 	cmp	w1, #0x1f
  92243c:	54000069 	b.ls	922448 <gicv3_secure_ppi_sgi_config_props+0xe8>  // b.plast
  922440:	910010c6 	add	x6, x6, #0x4
  922444:	17ffffcd 	b	922378 <gicv3_secure_ppi_sgi_config_props+0x18>
  922448:	a9bf7bfd 	stp	x29, x30, [sp, #-16]!
  92244c:	910003fd 	mov	x29, sp
  922450:	17ffffd2 	b	922398 <gicv3_secure_ppi_sgi_config_props+0x38>

0000000000922454 <arm_gicv3_distif_pre_save>:
  922454:	d0000061 	adrp	x1, 930000 <psci_ns_context+0x620>
  922458:	f9415021 	ldr	x1, [x1, #672]
  92245c:	f9401021 	ldr	x1, [x1, #32]
  922460:	f8605820 	ldr	x0, [x1, w0, uxtw #3]
  922464:	91005002 	add	x2, x0, #0x14
  922468:	b9401401 	ldr	w1, [x0, #20]
  92246c:	32000021 	orr	w1, w1, #0x1
  922470:	b9001401 	str	w1, [x0, #20]
  922474:	b9400040 	ldr	w0, [x2]
  922478:	36ffffe0 	tbz	w0, #31, 922474 <arm_gicv3_distif_pre_save+0x20>
  92247c:	d65f03c0 	ret

0000000000922480 <arm_gicv3_distif_post_restore>:
  922480:	d0000061 	adrp	x1, 930000 <psci_ns_context+0x620>
  922484:	f9415021 	ldr	x1, [x1, #672]
  922488:	f9401021 	ldr	x1, [x1, #32]
  92248c:	f8605820 	ldr	x0, [x1, w0, uxtw #3]
  922490:	91005002 	add	x2, x0, #0x14
  922494:	b9401401 	ldr	w1, [x0, #20]
  922498:	360000c1 	tbz	w1, #0, 9224b0 <arm_gicv3_distif_post_restore+0x30>
  92249c:	b9401401 	ldr	w1, [x0, #20]
  9224a0:	121f7821 	and	w1, w1, #0xfffffffe
  9224a4:	b9001401 	str	w1, [x0, #20]
  9224a8:	b9400040 	ldr	w0, [x2]
  9224ac:	37ffffe0 	tbnz	w0, #31, 9224a8 <arm_gicv3_distif_post_restore+0x28>
  9224b0:	d65f03c0 	ret

00000000009224b4 <gicv3_distif_pre_save>:
  9224b4:	17ffffe8 	b	922454 <arm_gicv3_distif_pre_save>

00000000009224b8 <gicv3_distif_post_restore>:
  9224b8:	17fffff2 	b	922480 <arm_gicv3_distif_post_restore>

00000000009224bc <gicr_wait_for_pending_write>:
  9224bc:	b9400001 	ldr	w1, [x0]
  9224c0:	371fffe1 	tbnz	w1, #3, 9224bc <gicr_wait_for_pending_write>
  9224c4:	d65f03c0 	ret

00000000009224c8 <gicv3_driver_init>:
  9224c8:	a9be7bfd 	stp	x29, x30, [sp, #-32]!
  9224cc:	d29ffd01 	mov	x1, #0xffe8                	// #65512
  9224d0:	910003fd 	mov	x29, sp
  9224d4:	a90153f3 	stp	x19, x20, [sp, #16]
  9224d8:	aa0003f3 	mov	x19, x0
  9224dc:	a9400800 	ldp	x0, x2, [x0]
  9224e0:	d0000074 	adrp	x20, 930000 <psci_ns_context+0x620>
  9224e4:	f9401663 	ldr	x3, [x19, #40]
  9224e8:	b8616801 	ldr	w1, [x0, x1]
  9224ec:	b9400000 	ldr	w0, [x0]
  9224f0:	b9401e61 	ldr	w1, [x19, #28]
  9224f4:	f9401260 	ldr	x0, [x19, #32]
  9224f8:	97ffff0e 	bl	922130 <gicv3_rdistif_base_addrs_probe>
  9224fc:	f9015293 	str	x19, [x20, #672]
  922500:	910a8280 	add	x0, x20, #0x2a0
  922504:	d2800101 	mov	x1, #0x8                   	// #8
  922508:	940015e4 	bl	927c98 <flush_dcache_range>
  92250c:	f9415280 	ldr	x0, [x20, #672]
  922510:	d2800601 	mov	x1, #0x30                  	// #48
  922514:	a94153f3 	ldp	x19, x20, [sp, #16]
  922518:	a8c27bfd 	ldp	x29, x30, [sp], #32
  92251c:	140015df 	b	927c98 <flush_dcache_range>

0000000000922520 <gicv3_distif_init>:
  922520:	a9be7bfd 	stp	x29, x30, [sp, #-32]!
  922524:	910003fd 	mov	x29, sp
  922528:	f9000bf3 	str	x19, [sp, #16]
  92252c:	d0000073 	adrp	x19, 930000 <psci_ns_context+0x620>
  922530:	f9415260 	ldr	x0, [x19, #672]
  922534:	f9400000 	ldr	x0, [x0]
  922538:	b9400001 	ldr	w1, [x0]
  92253c:	121d7021 	and	w1, w1, #0xfffffff8
  922540:	b9000001 	str	w1, [x0]
  922544:	b9400001 	ldr	w1, [x0]
  922548:	37ffffe1 	tbnz	w1, #31, 922544 <gicv3_distif_init+0x24>
  92254c:	b9400001 	ldr	w1, [x0]
  922550:	321c0421 	orr	w1, w1, #0x30
  922554:	b9000001 	str	w1, [x0]
  922558:	b9400001 	ldr	w1, [x0]
  92255c:	37ffffe1 	tbnz	w1, #31, 922558 <gicv3_distif_init+0x38>
  922560:	97ffff0a 	bl	922188 <gicv3_spis_config_defaults>
  922564:	f9415260 	ldr	x0, [x19, #672]
  922568:	b9401802 	ldr	w2, [x0, #24]
  92256c:	f9400801 	ldr	x1, [x0, #16]
  922570:	f9400000 	ldr	x0, [x0]
  922574:	97ffff2c 	bl	922224 <gicv3_secure_spis_config_props>
  922578:	f9415261 	ldr	x1, [x19, #672]
  92257c:	f9400021 	ldr	x1, [x1]
  922580:	b9400022 	ldr	w2, [x1]
  922584:	2a020000 	orr	w0, w0, w2
  922588:	b9000020 	str	w0, [x1]
  92258c:	b9400020 	ldr	w0, [x1]
  922590:	37ffffe0 	tbnz	w0, #31, 92258c <gicv3_distif_init+0x6c>
  922594:	f9400bf3 	ldr	x19, [sp, #16]
  922598:	a8c27bfd 	ldp	x29, x30, [sp], #32
  92259c:	d65f03c0 	ret

00000000009225a0 <gicv3_rdistif_on>:
  9225a0:	d65f03c0 	ret

00000000009225a4 <gicv3_rdistif_init>:
  9225a4:	a9bd7bfd 	stp	x29, x30, [sp, #-48]!
  9225a8:	910003fd 	mov	x29, sp
  9225ac:	a90153f3 	stp	x19, x20, [sp, #16]
  9225b0:	d0000073 	adrp	x19, 930000 <psci_ns_context+0x620>
  9225b4:	2a0003f4 	mov	w20, w0
  9225b8:	f9415261 	ldr	x1, [x19, #672]
  9225bc:	f9400021 	ldr	x1, [x1]
  9225c0:	f90013f5 	str	x21, [sp, #32]
  9225c4:	b9400035 	ldr	w21, [x1]
  9225c8:	97fffff6 	bl	9225a0 <gicv3_rdistif_on>
  9225cc:	f9415260 	ldr	x0, [x19, #672]
  9225d0:	f9401000 	ldr	x0, [x0, #32]
  9225d4:	f8745814 	ldr	x20, [x0, w20, uxtw #3]
  9225d8:	aa1403e0 	mov	x0, x20
  9225dc:	97ffff4b 	bl	922308 <gicv3_ppi_sgi_config_defaults>
  9225e0:	f9415260 	ldr	x0, [x19, #672]
  9225e4:	b9401802 	ldr	w2, [x0, #24]
  9225e8:	f9400801 	ldr	x1, [x0, #16]
  9225ec:	aa1403e0 	mov	x0, x20
  9225f0:	97ffff5c 	bl	922360 <gicv3_secure_ppi_sgi_config_props>
  9225f4:	6a35001f 	bics	wzr, w0, w21
  9225f8:	54000100 	b.eq	922618 <gicv3_rdistif_init+0x74>  // b.none
  9225fc:	f9415261 	ldr	x1, [x19, #672]
  922600:	f9400021 	ldr	x1, [x1]
  922604:	b9400022 	ldr	w2, [x1]
  922608:	2a020000 	orr	w0, w0, w2
  92260c:	b9000020 	str	w0, [x1]
  922610:	b9400020 	ldr	w0, [x1]
  922614:	37ffffe0 	tbnz	w0, #31, 922610 <gicv3_rdistif_init+0x6c>
  922618:	a94153f3 	ldp	x19, x20, [sp, #16]
  92261c:	f94013f5 	ldr	x21, [sp, #32]
  922620:	a8c37bfd 	ldp	x29, x30, [sp], #48
  922624:	d65f03c0 	ret

0000000000922628 <gicv3_cpuif_enable>:
  922628:	a9bf7bfd 	stp	x29, x30, [sp, #-16]!
  92262c:	d0000061 	adrp	x1, 930000 <psci_ns_context+0x620>
  922630:	910003fd 	mov	x29, sp
  922634:	f9415021 	ldr	x1, [x1, #672]
  922638:	f9401021 	ldr	x1, [x1, #32]
  92263c:	f8605820 	ldr	x0, [x1, w0, uxtw #3]
  922640:	97fffea7 	bl	9220dc <gicv3_rdistif_mark_core_awake>
  922644:	d53ecca0 	mrs	x0, s3_6_c12_c12_5
  922648:	b2400c00 	orr	x0, x0, #0xf
  92264c:	d51ecca0 	msr	s3_6_c12_c12_5, x0
  922650:	d53e1100 	mrs	x0, scr_el3
  922654:	32000001 	orr	w1, w0, #0x1
  922658:	d51e1101 	msr	scr_el3, x1
  92265c:	d5033fdf 	isb
  922660:	d53cc9a1 	mrs	x1, s3_4_c12_c9_5
  922664:	b2400c21 	orr	x1, x1, #0xf
  922668:	d51cc9a1 	msr	s3_4_c12_c9_5, x1
  92266c:	d2800021 	mov	x1, #0x1                   	// #1
  922670:	d518cca1 	msr	s3_0_c12_c12_5, x1
  922674:	d5033fdf 	isb
  922678:	927f7800 	and	x0, x0, #0xfffffffe
  92267c:	d51e1100 	msr	scr_el3, x0
  922680:	d5033fdf 	isb
  922684:	d2801fe0 	mov	x0, #0xff                  	// #255
  922688:	d5184600 	msr	s3_0_c4_c6_0, x0
  92268c:	d518ccc1 	msr	s3_0_c12_c12_6, x1
  922690:	d53ecce0 	mrs	x0, s3_6_c12_c12_7
  922694:	b27f0000 	orr	x0, x0, #0x2
  922698:	d51ecce0 	msr	s3_6_c12_c12_7, x0
  92269c:	d518cca1 	msr	s3_0_c12_c12_5, x1
  9226a0:	d5033fdf 	isb
  9226a4:	a8c17bfd 	ldp	x29, x30, [sp], #16
  9226a8:	d65f03c0 	ret

00000000009226ac <gicv3_cpuif_disable>:
  9226ac:	d53ecca1 	mrs	x1, s3_6_c12_c12_5
  9226b0:	b27f0421 	orr	x1, x1, #0x6
  9226b4:	d51ecca1 	msr	s3_6_c12_c12_5, x1
  9226b8:	d538ccc1 	mrs	x1, s3_0_c12_c12_6
  9226bc:	927f7821 	and	x1, x1, #0xfffffffe
  9226c0:	d518ccc1 	msr	s3_0_c12_c12_6, x1
  9226c4:	d53ecce1 	mrs	x1, s3_6_c12_c12_7
  9226c8:	927e7421 	and	x1, x1, #0xfffffffc
  9226cc:	d51ecce1 	msr	s3_6_c12_c12_7, x1
  9226d0:	d5033fdf 	isb
  9226d4:	d0000061 	adrp	x1, 930000 <psci_ns_context+0x620>
  9226d8:	f9415021 	ldr	x1, [x1, #672]
  9226dc:	f9401021 	ldr	x1, [x1, #32]
  9226e0:	f8605820 	ldr	x0, [x1, w0, uxtw #3]
  9226e4:	17fffe8c 	b	922114 <gicv3_rdistif_mark_core_asleep>

00000000009226e8 <gicv3_get_pending_interrupt_type>:
  9226e8:	d538c840 	mrs	x0, s3_0_c12_c8_2
  9226ec:	12005c00 	and	w0, w0, #0xffffff
  9226f0:	d65f03c0 	ret

00000000009226f4 <gicv3_rdistif_save>:
  9226f4:	a9bd7bfd 	stp	x29, x30, [sp, #-48]!
  9226f8:	910003fd 	mov	x29, sp
  9226fc:	a9025bf5 	stp	x21, x22, [sp, #32]
  922700:	2a0003f6 	mov	w22, w0
  922704:	d0000060 	adrp	x0, 930000 <psci_ns_context+0x620>
  922708:	a90153f3 	stp	x19, x20, [sp, #16]
  92270c:	aa0103f4 	mov	x20, x1
  922710:	52800015 	mov	w21, #0x0                   	// #0
  922714:	f9415000 	ldr	x0, [x0, #672]
  922718:	f9401000 	ldr	x0, [x0, #32]
  92271c:	f8765813 	ldr	x19, [x0, w22, uxtw #3]
  922720:	aa1303e0 	mov	x0, x19
  922724:	97ffff66 	bl	9224bc <gicr_wait_for_pending_write>
  922728:	b9400260 	ldr	w0, [x19]
  92272c:	b9001280 	str	w0, [x20, #16]
  922730:	f9403a60 	ldr	x0, [x19, #112]
  922734:	f9000280 	str	x0, [x20]
  922738:	f9403e60 	ldr	x0, [x19, #120]
  92273c:	f9000680 	str	x0, [x20, #8]
  922740:	d2801000 	mov	x0, #0x80                  	// #128
  922744:	f2a00020 	movk	x0, #0x1, lsl #16
  922748:	b8606a60 	ldr	w0, [x19, x0]
  92274c:	b9001680 	str	w0, [x20, #20]
  922750:	d2802000 	mov	x0, #0x100                 	// #256
  922754:	f2a00020 	movk	x0, #0x1, lsl #16
  922758:	b8606a60 	ldr	w0, [x19, x0]
  92275c:	b9001a80 	str	w0, [x20, #24]
  922760:	d2804000 	mov	x0, #0x200                 	// #512
  922764:	f2a00020 	movk	x0, #0x1, lsl #16
  922768:	b8606a60 	ldr	w0, [x19, x0]
  92276c:	b9001e80 	str	w0, [x20, #28]
  922770:	d2806000 	mov	x0, #0x300                 	// #768
  922774:	f2a00020 	movk	x0, #0x1, lsl #16
  922778:	b8606a60 	ldr	w0, [x19, x0]
  92277c:	b9002280 	str	w0, [x20, #32]
  922780:	d2818000 	mov	x0, #0xc00                 	// #3072
  922784:	f2a00020 	movk	x0, #0x1, lsl #16
  922788:	b8606a60 	ldr	w0, [x19, x0]
  92278c:	b9004680 	str	w0, [x20, #68]
  922790:	d2818080 	mov	x0, #0xc04                 	// #3076
  922794:	f2a00020 	movk	x0, #0x1, lsl #16
  922798:	b8606a60 	ldr	w0, [x19, x0]
  92279c:	b9004a80 	str	w0, [x20, #72]
  9227a0:	d281a000 	mov	x0, #0xd00                 	// #3328
  9227a4:	f2a00020 	movk	x0, #0x1, lsl #16
  9227a8:	b8606a60 	ldr	w0, [x19, x0]
  9227ac:	b9004e80 	str	w0, [x20, #76]
  9227b0:	d281c000 	mov	x0, #0xe00                 	// #3584
  9227b4:	f2a00020 	movk	x0, #0x1, lsl #16
  9227b8:	b8606a60 	ldr	w0, [x19, x0]
  9227bc:	b9005280 	str	w0, [x20, #80]
  9227c0:	2a1503e1 	mov	w1, w21
  9227c4:	aa1303e0 	mov	x0, x19
  9227c8:	97fffe11 	bl	92200c <gicr_read_ipriorityr>
  9227cc:	927e76a1 	and	x1, x21, #0xfffffffc
  9227d0:	110012b5 	add	w21, w21, #0x4
  9227d4:	8b010281 	add	x1, x20, x1
  9227d8:	710082bf 	cmp	w21, #0x20
  9227dc:	b9002420 	str	w0, [x1, #36]
  9227e0:	54ffff01 	b.ne	9227c0 <gicv3_rdistif_save+0xcc>  // b.any
  9227e4:	2a1603e0 	mov	w0, w22
  9227e8:	a94153f3 	ldp	x19, x20, [sp, #16]
  9227ec:	a9425bf5 	ldp	x21, x22, [sp, #32]
  9227f0:	a8c37bfd 	ldp	x29, x30, [sp], #48
  9227f4:	17ffff30 	b	9224b4 <gicv3_distif_pre_save>

00000000009227f8 <gicv3_rdistif_init_restore>:
  9227f8:	a9bd7bfd 	stp	x29, x30, [sp, #-48]!
  9227fc:	910003fd 	mov	x29, sp
  922800:	a90153f3 	stp	x19, x20, [sp, #16]
  922804:	aa0103f4 	mov	x20, x1
  922808:	d0000061 	adrp	x1, 930000 <psci_ns_context+0x620>
  92280c:	f9415021 	ldr	x1, [x1, #672]
  922810:	f9401021 	ldr	x1, [x1, #32]
  922814:	f90013f5 	str	x21, [sp, #32]
  922818:	2a0003f5 	mov	w21, w0
  92281c:	f8755833 	ldr	x19, [x1, w21, uxtw #3]
  922820:	97ffff60 	bl	9225a0 <gicv3_rdistif_on>
  922824:	2a1503e0 	mov	w0, w21
  922828:	97ffff24 	bl	9224b8 <gicv3_distif_post_restore>
  92282c:	d2803000 	mov	x0, #0x180                 	// #384
  922830:	12800001 	mov	w1, #0xffffffff            	// #-1
  922834:	f2a00020 	movk	x0, #0x1, lsl #16
  922838:	52800015 	mov	w21, #0x0                   	// #0
  92283c:	b8206a61 	str	w1, [x19, x0]
  922840:	aa1303e0 	mov	x0, x19
  922844:	97ffff1e 	bl	9224bc <gicr_wait_for_pending_write>
  922848:	b9401280 	ldr	w0, [x20, #16]
  92284c:	121f7800 	and	w0, w0, #0xfffffffe
  922850:	b9000260 	str	w0, [x19]
  922854:	f9400280 	ldr	x0, [x20]
  922858:	b9401681 	ldr	w1, [x20, #20]
  92285c:	f9003a60 	str	x0, [x19, #112]
  922860:	f9400680 	ldr	x0, [x20, #8]
  922864:	f9003e60 	str	x0, [x19, #120]
  922868:	d2801000 	mov	x0, #0x80                  	// #128
  92286c:	f2a00020 	movk	x0, #0x1, lsl #16
  922870:	b8206a61 	str	w1, [x19, x0]
  922874:	927e76a0 	and	x0, x21, #0xfffffffc
  922878:	2a1503e1 	mov	w1, w21
  92287c:	8b000280 	add	x0, x20, x0
  922880:	110012b5 	add	w21, w21, #0x4
  922884:	b9402402 	ldr	w2, [x0, #36]
  922888:	aa1303e0 	mov	x0, x19
  92288c:	97fffde5 	bl	922020 <gicr_write_ipriorityr>
  922890:	710082bf 	cmp	w21, #0x20
  922894:	54ffff01 	b.ne	922874 <gicv3_rdistif_init_restore+0x7c>  // b.any
  922898:	d2818000 	mov	x0, #0xc00                 	// #3072
  92289c:	b9404681 	ldr	w1, [x20, #68]
  9228a0:	f2a00020 	movk	x0, #0x1, lsl #16
  9228a4:	b8206a61 	str	w1, [x19, x0]
  9228a8:	91001000 	add	x0, x0, #0x4
  9228ac:	b9404a81 	ldr	w1, [x20, #72]
  9228b0:	b8206a61 	str	w1, [x19, x0]
  9228b4:	9103f000 	add	x0, x0, #0xfc
  9228b8:	b9404e81 	ldr	w1, [x20, #76]
  9228bc:	b8206a61 	str	w1, [x19, x0]
  9228c0:	91040000 	add	x0, x0, #0x100
  9228c4:	b9405281 	ldr	w1, [x20, #80]
  9228c8:	b8206a61 	str	w1, [x19, x0]
  9228cc:	d2804000 	mov	x0, #0x200                 	// #512
  9228d0:	f2a00020 	movk	x0, #0x1, lsl #16
  9228d4:	b9401e81 	ldr	w1, [x20, #28]
  9228d8:	b8206a61 	str	w1, [x19, x0]
  9228dc:	91040000 	add	x0, x0, #0x100
  9228e0:	b9402281 	ldr	w1, [x20, #32]
  9228e4:	b8206a61 	str	w1, [x19, x0]
  9228e8:	b9400260 	ldr	w0, [x19]
  9228ec:	37ffffe0 	tbnz	w0, #31, 9228e8 <gicv3_rdistif_init_restore+0xf0>
  9228f0:	d2802000 	mov	x0, #0x100                 	// #256
  9228f4:	b9401a81 	ldr	w1, [x20, #24]
  9228f8:	f2a00020 	movk	x0, #0x1, lsl #16
  9228fc:	f94013f5 	ldr	x21, [sp, #32]
  922900:	b8206a61 	str	w1, [x19, x0]
  922904:	b9401280 	ldr	w0, [x20, #16]
  922908:	b9000260 	str	w0, [x19]
  92290c:	aa1303e0 	mov	x0, x19
  922910:	a94153f3 	ldp	x19, x20, [sp, #16]
  922914:	a8c37bfd 	ldp	x29, x30, [sp], #48
  922918:	17fffee9 	b	9224bc <gicr_wait_for_pending_write>

000000000092291c <gicv3_distif_save>:
  92291c:	a9bd7bfd 	stp	x29, x30, [sp, #-48]!
  922920:	910003fd 	mov	x29, sp
  922924:	a9025bf5 	stp	x21, x22, [sp, #32]
  922928:	aa0003f5 	mov	x21, x0
  92292c:	d0000060 	adrp	x0, 930000 <psci_ns_context+0x620>
  922930:	a90153f3 	stp	x19, x20, [sp, #16]
  922934:	f9415000 	ldr	x0, [x0, #672]
  922938:	f9400014 	ldr	x20, [x0]
  92293c:	b9400693 	ldr	w19, [x20, #4]
  922940:	531b1273 	ubfiz	w19, w19, #5, #5
  922944:	11008273 	add	w19, w19, #0x20
  922948:	b9400280 	ldr	w0, [x20]
  92294c:	37ffffe0 	tbnz	w0, #31, 922948 <gicv3_distif_save+0x2c>
  922950:	b9400280 	ldr	w0, [x20]
  922954:	52800416 	mov	w22, #0x20                  	// #32
  922958:	b91ee2a0 	str	w0, [x21, #7904]
  92295c:	6b1302df 	cmp	w22, w19
  922960:	54000423 	b.cc	9229e4 <gicv3_distif_save+0xc8>  // b.lo, b.ul, b.last
  922964:	52800416 	mov	w22, #0x20                  	// #32
  922968:	6b1302df 	cmp	w22, w19
  92296c:	540004e3 	b.cc	922a08 <gicv3_distif_save+0xec>  // b.lo, b.ul, b.last
  922970:	52800416 	mov	w22, #0x20                  	// #32
  922974:	6b1302df 	cmp	w22, w19
  922978:	540005a3 	b.cc	922a2c <gicv3_distif_save+0x110>  // b.lo, b.ul, b.last
  92297c:	52800416 	mov	w22, #0x20                  	// #32
  922980:	6b1302df 	cmp	w22, w19
  922984:	54000663 	b.cc	922a50 <gicv3_distif_save+0x134>  // b.lo, b.ul, b.last
  922988:	52800416 	mov	w22, #0x20                  	// #32
  92298c:	6b1302df 	cmp	w22, w19
  922990:	54000723 	b.cc	922a74 <gicv3_distif_save+0x158>  // b.lo, b.ul, b.last
  922994:	52800416 	mov	w22, #0x20                  	// #32
  922998:	6b1302df 	cmp	w22, w19
  92299c:	540007e3 	b.cc	922a98 <gicv3_distif_save+0x17c>  // b.lo, b.ul, b.last
  9229a0:	52800416 	mov	w22, #0x20                  	// #32
  9229a4:	6b1302df 	cmp	w22, w19
  9229a8:	540008a3 	b.cc	922abc <gicv3_distif_save+0x1a0>  // b.lo, b.ul, b.last
  9229ac:	52800416 	mov	w22, #0x20                  	// #32
  9229b0:	6b1302df 	cmp	w22, w19
  9229b4:	54000963 	b.cc	922ae0 <gicv3_distif_save+0x1c4>  // b.lo, b.ul, b.last
  9229b8:	51008273 	sub	w19, w19, #0x20
  9229bc:	d28c2000 	mov	x0, #0x6100                	// #24832
  9229c0:	8b000280 	add	x0, x20, x0
  9229c4:	928c1fe2 	mov	x2, #0xffffffffffff9f00    	// #-24832
  9229c8:	8b334c13 	add	x19, x0, w19, uxtw #3
  9229cc:	eb13001f 	cmp	x0, x19
  9229d0:	540009a1 	b.ne	922b04 <gicv3_distif_save+0x1e8>  // b.any
  9229d4:	a94153f3 	ldp	x19, x20, [sp, #16]
  9229d8:	a9425bf5 	ldp	x21, x22, [sp, #32]
  9229dc:	a8c37bfd 	ldp	x29, x30, [sp], #48
  9229e0:	d65f03c0 	ret
  9229e4:	2a1603e1 	mov	w1, w22
  9229e8:	aa1403e0 	mov	x0, x20
  9229ec:	940000d5 	bl	922d40 <gicd_read_igroupr>
  9229f0:	510082c1 	sub	w1, w22, #0x20
  9229f4:	110082d6 	add	w22, w22, #0x20
  9229f8:	53057c21 	lsr	w1, w1, #5
  9229fc:	8b010aa1 	add	x1, x21, x1, lsl #2
  922a00:	b91ee420 	str	w0, [x1, #7908]
  922a04:	17ffffd6 	b	92295c <gicv3_distif_save+0x40>
  922a08:	2a1603e1 	mov	w1, w22
  922a0c:	aa1403e0 	mov	x0, x20
  922a10:	940000d1 	bl	922d54 <gicd_read_isenabler>
  922a14:	510082c1 	sub	w1, w22, #0x20
  922a18:	110082d6 	add	w22, w22, #0x20
  922a1c:	53057c21 	lsr	w1, w1, #5
  922a20:	911f6021 	add	x1, x1, #0x7d8
  922a24:	b8217aa0 	str	w0, [x21, x1, lsl #2]
  922a28:	17ffffd0 	b	922968 <gicv3_distif_save+0x4c>
  922a2c:	2a1603e1 	mov	w1, w22
  922a30:	aa1403e0 	mov	x0, x20
  922a34:	940000cd 	bl	922d68 <gicd_read_ispendr>
  922a38:	510082c1 	sub	w1, w22, #0x20
  922a3c:	110082d6 	add	w22, w22, #0x20
  922a40:	53057c21 	lsr	w1, w1, #5
  922a44:	8b010aa1 	add	x1, x21, x1, lsl #2
  922a48:	b91fdc20 	str	w0, [x1, #8156]
  922a4c:	17ffffca 	b	922974 <gicv3_distif_save+0x58>
  922a50:	2a1603e1 	mov	w1, w22
  922a54:	aa1403e0 	mov	x0, x20
  922a58:	940000c9 	bl	922d7c <gicd_read_isactiver>
  922a5c:	510082c1 	sub	w1, w22, #0x20
  922a60:	110082d6 	add	w22, w22, #0x20
  922a64:	53057c21 	lsr	w1, w1, #5
  922a68:	8b010aa1 	add	x1, x21, x1, lsl #2
  922a6c:	b9205820 	str	w0, [x1, #8280]
  922a70:	17ffffc4 	b	922980 <gicv3_distif_save+0x64>
  922a74:	2a1603e1 	mov	w1, w22
  922a78:	aa1403e0 	mov	x0, x20
  922a7c:	940000c5 	bl	922d90 <gicd_read_ipriorityr>
  922a80:	510082c1 	sub	w1, w22, #0x20
  922a84:	110012d6 	add	w22, w22, #0x4
  922a88:	927e7421 	and	x1, x1, #0xfffffffc
  922a8c:	8b0102a1 	add	x1, x21, x1
  922a90:	b920d420 	str	w0, [x1, #8404]
  922a94:	17ffffbe 	b	92298c <gicv3_distif_save+0x70>
  922a98:	2a1603e1 	mov	w1, w22
  922a9c:	aa1403e0 	mov	x0, x20
  922aa0:	940000c0 	bl	922da0 <gicd_read_icfgr>
  922aa4:	510082c1 	sub	w1, w22, #0x20
  922aa8:	110042d6 	add	w22, w22, #0x10
  922aac:	53047c21 	lsr	w1, w1, #4
  922ab0:	9124b021 	add	x1, x1, #0x92c
  922ab4:	b8217aa0 	str	w0, [x21, x1, lsl #2]
  922ab8:	17ffffb8 	b	922998 <gicv3_distif_save+0x7c>
  922abc:	2a1603e1 	mov	w1, w22
  922ac0:	aa1403e0 	mov	x0, x20
  922ac4:	97fffd30 	bl	921f84 <gicd_read_igrpmodr>
  922ac8:	510082c1 	sub	w1, w22, #0x20
  922acc:	110082d6 	add	w22, w22, #0x20
  922ad0:	53057c21 	lsr	w1, w1, #5
  922ad4:	8b010aa1 	add	x1, x21, x1, lsl #2
  922ad8:	b925a820 	str	w0, [x1, #9640]
  922adc:	17ffffb2 	b	9229a4 <gicv3_distif_save+0x88>
  922ae0:	2a1603e1 	mov	w1, w22
  922ae4:	aa1403e0 	mov	x0, x20
  922ae8:	940000b3 	bl	922db4 <gicd_read_nsacr>
  922aec:	510082c1 	sub	w1, w22, #0x20
  922af0:	110042d6 	add	w22, w22, #0x10
  922af4:	53047c21 	lsr	w1, w1, #4
  922af8:	8b010aa1 	add	x1, x21, x1, lsl #2
  922afc:	b9262420 	str	w0, [x1, #9764]
  922b00:	17ffffac 	b	9229b0 <gicv3_distif_save+0x94>
  922b04:	cb140001 	sub	x1, x0, x20
  922b08:	f9400003 	ldr	x3, [x0]
  922b0c:	8b020021 	add	x1, x1, x2
  922b10:	91002000 	add	x0, x0, #0x8
  922b14:	f8216aa3 	str	x3, [x21, x1]
  922b18:	17ffffad 	b	9229cc <gicv3_distif_save+0xb0>

0000000000922b1c <gicv3_distif_init_restore>:
  922b1c:	a9bd7bfd 	stp	x29, x30, [sp, #-48]!
  922b20:	910003fd 	mov	x29, sp
  922b24:	a9025bf5 	stp	x21, x22, [sp, #32]
  922b28:	aa0003f5 	mov	x21, x0
  922b2c:	d0000060 	adrp	x0, 930000 <psci_ns_context+0x620>
  922b30:	a90153f3 	stp	x19, x20, [sp, #16]
  922b34:	f9415000 	ldr	x0, [x0, #672]
  922b38:	f9400013 	ldr	x19, [x0]
  922b3c:	b9400260 	ldr	w0, [x19]
  922b40:	121d7000 	and	w0, w0, #0xfffffff8
  922b44:	b9000260 	str	w0, [x19]
  922b48:	b9400260 	ldr	w0, [x19]
  922b4c:	37ffffe0 	tbnz	w0, #31, 922b48 <gicv3_distif_init_restore+0x2c>
  922b50:	b9400260 	ldr	w0, [x19]
  922b54:	321c0400 	orr	w0, w0, #0x30
  922b58:	b9000260 	str	w0, [x19]
  922b5c:	b9400260 	ldr	w0, [x19]
  922b60:	37ffffe0 	tbnz	w0, #31, 922b5c <gicv3_distif_init_restore+0x40>
  922b64:	b9400674 	ldr	w20, [x19, #4]
  922b68:	52800416 	mov	w22, #0x20                  	// #32
  922b6c:	531b1294 	ubfiz	w20, w20, #5, #5
  922b70:	11008294 	add	w20, w20, #0x20
  922b74:	6b1402df 	cmp	w22, w20
  922b78:	540004a3 	b.cc	922c0c <gicv3_distif_init_restore+0xf0>  // b.lo, b.ul, b.last
  922b7c:	52800416 	mov	w22, #0x20                  	// #32
  922b80:	6b1402df 	cmp	w22, w20
  922b84:	54000563 	b.cc	922c30 <gicv3_distif_init_restore+0x114>  // b.lo, b.ul, b.last
  922b88:	52800416 	mov	w22, #0x20                  	// #32
  922b8c:	6b1402df 	cmp	w22, w20
  922b90:	54000623 	b.cc	922c54 <gicv3_distif_init_restore+0x138>  // b.lo, b.ul, b.last
  922b94:	52800416 	mov	w22, #0x20                  	// #32
  922b98:	6b1402df 	cmp	w22, w20
  922b9c:	540006e3 	b.cc	922c78 <gicv3_distif_init_restore+0x15c>  // b.lo, b.ul, b.last
  922ba0:	52800416 	mov	w22, #0x20                  	// #32
  922ba4:	6b1402df 	cmp	w22, w20
  922ba8:	540007a3 	b.cc	922c9c <gicv3_distif_init_restore+0x180>  // b.lo, b.ul, b.last
  922bac:	51008281 	sub	w1, w20, #0x20
  922bb0:	d28c2000 	mov	x0, #0x6100                	// #24832
  922bb4:	8b000260 	add	x0, x19, x0
  922bb8:	928c1fe3 	mov	x3, #0xffffffffffff9f00    	// #-24832
  922bbc:	8b214c01 	add	x1, x0, w1, uxtw #3
  922bc0:	eb01001f 	cmp	x0, x1
  922bc4:	540007e1 	b.ne	922cc0 <gicv3_distif_init_restore+0x1a4>  // b.any
  922bc8:	52800416 	mov	w22, #0x20                  	// #32
  922bcc:	6b1402df 	cmp	w22, w20
  922bd0:	54000823 	b.cc	922cd4 <gicv3_distif_init_restore+0x1b8>  // b.lo, b.ul, b.last
  922bd4:	52800416 	mov	w22, #0x20                  	// #32
  922bd8:	6b1402df 	cmp	w22, w20
  922bdc:	540008e3 	b.cc	922cf8 <gicv3_distif_init_restore+0x1dc>  // b.lo, b.ul, b.last
  922be0:	52800416 	mov	w22, #0x20                  	// #32
  922be4:	6b1402df 	cmp	w22, w20
  922be8:	540009a3 	b.cc	922d1c <gicv3_distif_init_restore+0x200>  // b.lo, b.ul, b.last
  922bec:	b95ee2a0 	ldr	w0, [x21, #7904]
  922bf0:	b9000260 	str	w0, [x19]
  922bf4:	b9400260 	ldr	w0, [x19]
  922bf8:	37ffffe0 	tbnz	w0, #31, 922bf4 <gicv3_distif_init_restore+0xd8>
  922bfc:	a94153f3 	ldp	x19, x20, [sp, #16]
  922c00:	a9425bf5 	ldp	x21, x22, [sp, #32]
  922c04:	a8c37bfd 	ldp	x29, x30, [sp], #48
  922c08:	d65f03c0 	ret
  922c0c:	510082c0 	sub	w0, w22, #0x20
  922c10:	2a1603e1 	mov	w1, w22
  922c14:	110082d6 	add	w22, w22, #0x20
  922c18:	53057c00 	lsr	w0, w0, #5
  922c1c:	8b000aa0 	add	x0, x21, x0, lsl #2
  922c20:	b95ee402 	ldr	w2, [x0, #7908]
  922c24:	aa1303e0 	mov	x0, x19
  922c28:	94000068 	bl	922dc8 <gicd_write_igroupr>
  922c2c:	17ffffd2 	b	922b74 <gicv3_distif_init_restore+0x58>
  922c30:	510082c0 	sub	w0, w22, #0x20
  922c34:	2a1603e1 	mov	w1, w22
  922c38:	927e7400 	and	x0, x0, #0xfffffffc
  922c3c:	110012d6 	add	w22, w22, #0x4
  922c40:	8b0002a0 	add	x0, x21, x0
  922c44:	b960d402 	ldr	w2, [x0, #8404]
  922c48:	aa1303e0 	mov	x0, x19
  922c4c:	94000073 	bl	922e18 <gicd_write_ipriorityr>
  922c50:	17ffffcc 	b	922b80 <gicv3_distif_init_restore+0x64>
  922c54:	510082c0 	sub	w0, w22, #0x20
  922c58:	2a1603e1 	mov	w1, w22
  922c5c:	110042d6 	add	w22, w22, #0x10
  922c60:	53047c00 	lsr	w0, w0, #4
  922c64:	9124b000 	add	x0, x0, #0x92c
  922c68:	b8607aa2 	ldr	w2, [x21, x0, lsl #2]
  922c6c:	aa1303e0 	mov	x0, x19
  922c70:	9400006e 	bl	922e28 <gicd_write_icfgr>
  922c74:	17ffffc6 	b	922b8c <gicv3_distif_init_restore+0x70>
  922c78:	510082c0 	sub	w0, w22, #0x20
  922c7c:	2a1603e1 	mov	w1, w22
  922c80:	110082d6 	add	w22, w22, #0x20
  922c84:	53057c00 	lsr	w0, w0, #5
  922c88:	8b000aa0 	add	x0, x21, x0, lsl #2
  922c8c:	b965a802 	ldr	w2, [x0, #9640]
  922c90:	aa1303e0 	mov	x0, x19
  922c94:	97fffcc1 	bl	921f98 <gicd_write_igrpmodr>
  922c98:	17ffffc0 	b	922b98 <gicv3_distif_init_restore+0x7c>
  922c9c:	510082c0 	sub	w0, w22, #0x20
  922ca0:	2a1603e1 	mov	w1, w22
  922ca4:	110042d6 	add	w22, w22, #0x10
  922ca8:	53047c00 	lsr	w0, w0, #4
  922cac:	8b000aa0 	add	x0, x21, x0, lsl #2
  922cb0:	b9662402 	ldr	w2, [x0, #9764]
  922cb4:	aa1303e0 	mov	x0, x19
  922cb8:	94000061 	bl	922e3c <gicd_write_nsacr>
  922cbc:	17ffffba 	b	922ba4 <gicv3_distif_init_restore+0x88>
  922cc0:	cb130002 	sub	x2, x0, x19
  922cc4:	8b030042 	add	x2, x2, x3
  922cc8:	f8626aa2 	ldr	x2, [x21, x2]
  922ccc:	f8008402 	str	x2, [x0], #8
  922cd0:	17ffffbc 	b	922bc0 <gicv3_distif_init_restore+0xa4>
  922cd4:	510082c0 	sub	w0, w22, #0x20
  922cd8:	2a1603e1 	mov	w1, w22
  922cdc:	110082d6 	add	w22, w22, #0x20
  922ce0:	53057c00 	lsr	w0, w0, #5
  922ce4:	911f6000 	add	x0, x0, #0x7d8
  922ce8:	b8607aa2 	ldr	w2, [x21, x0, lsl #2]
  922cec:	aa1303e0 	mov	x0, x19
  922cf0:	9400003b 	bl	922ddc <gicd_write_isenabler>
  922cf4:	17ffffb6 	b	922bcc <gicv3_distif_init_restore+0xb0>
  922cf8:	510082c0 	sub	w0, w22, #0x20
  922cfc:	2a1603e1 	mov	w1, w22
  922d00:	110082d6 	add	w22, w22, #0x20
  922d04:	53057c00 	lsr	w0, w0, #5
  922d08:	8b000aa0 	add	x0, x21, x0, lsl #2
  922d0c:	b95fdc02 	ldr	w2, [x0, #8156]
  922d10:	aa1303e0 	mov	x0, x19
  922d14:	94000037 	bl	922df0 <gicd_write_ispendr>
  922d18:	17ffffb0 	b	922bd8 <gicv3_distif_init_restore+0xbc>
  922d1c:	510082c0 	sub	w0, w22, #0x20
  922d20:	2a1603e1 	mov	w1, w22
  922d24:	110082d6 	add	w22, w22, #0x20
  922d28:	53057c00 	lsr	w0, w0, #5
  922d2c:	8b000aa0 	add	x0, x21, x0, lsl #2
  922d30:	b9605802 	ldr	w2, [x0, #8280]
  922d34:	aa1303e0 	mov	x0, x19
  922d38:	94000033 	bl	922e04 <gicd_write_isactiver>
  922d3c:	17ffffaa 	b	922be4 <gicv3_distif_init_restore+0xc8>

0000000000922d40 <gicd_read_igroupr>:
  922d40:	53057c21 	lsr	w1, w1, #5
  922d44:	91020000 	add	x0, x0, #0x80
  922d48:	d37e6821 	ubfiz	x1, x1, #2, #27
  922d4c:	b8606820 	ldr	w0, [x1, x0]
  922d50:	d65f03c0 	ret

0000000000922d54 <gicd_read_isenabler>:
  922d54:	53057c21 	lsr	w1, w1, #5
  922d58:	91040000 	add	x0, x0, #0x100
  922d5c:	d37e6821 	ubfiz	x1, x1, #2, #27
  922d60:	b8606820 	ldr	w0, [x1, x0]
  922d64:	d65f03c0 	ret

0000000000922d68 <gicd_read_ispendr>:
  922d68:	53057c21 	lsr	w1, w1, #5
  922d6c:	91080000 	add	x0, x0, #0x200
  922d70:	d37e6821 	ubfiz	x1, x1, #2, #27
  922d74:	b8606820 	ldr	w0, [x1, x0]
  922d78:	d65f03c0 	ret

0000000000922d7c <gicd_read_isactiver>:
  922d7c:	53057c21 	lsr	w1, w1, #5
  922d80:	910c0000 	add	x0, x0, #0x300
  922d84:	d37e6821 	ubfiz	x1, x1, #2, #27
  922d88:	b8606820 	ldr	w0, [x1, x0]
  922d8c:	d65f03c0 	ret

0000000000922d90 <gicd_read_ipriorityr>:
  922d90:	927e7421 	and	x1, x1, #0xfffffffc
  922d94:	91100000 	add	x0, x0, #0x400
  922d98:	b8606820 	ldr	w0, [x1, x0]
  922d9c:	d65f03c0 	ret

0000000000922da0 <gicd_read_icfgr>:
  922da0:	53047c21 	lsr	w1, w1, #4
  922da4:	91300000 	add	x0, x0, #0xc00
  922da8:	d37e6c21 	ubfiz	x1, x1, #2, #28
  922dac:	b8606820 	ldr	w0, [x1, x0]
  922db0:	d65f03c0 	ret

0000000000922db4 <gicd_read_nsacr>:
  922db4:	53047c21 	lsr	w1, w1, #4
  922db8:	91380000 	add	x0, x0, #0xe00
  922dbc:	d37e6c21 	ubfiz	x1, x1, #2, #28
  922dc0:	b8606820 	ldr	w0, [x1, x0]
  922dc4:	d65f03c0 	ret

0000000000922dc8 <gicd_write_igroupr>:
  922dc8:	53057c21 	lsr	w1, w1, #5
  922dcc:	91020000 	add	x0, x0, #0x80
  922dd0:	d37e6821 	ubfiz	x1, x1, #2, #27
  922dd4:	b8206822 	str	w2, [x1, x0]
  922dd8:	d65f03c0 	ret

0000000000922ddc <gicd_write_isenabler>:
  922ddc:	53057c21 	lsr	w1, w1, #5
  922de0:	91040000 	add	x0, x0, #0x100
  922de4:	d37e6821 	ubfiz	x1, x1, #2, #27
  922de8:	b8206822 	str	w2, [x1, x0]
  922dec:	d65f03c0 	ret

0000000000922df0 <gicd_write_ispendr>:
  922df0:	53057c21 	lsr	w1, w1, #5
  922df4:	91080000 	add	x0, x0, #0x200
  922df8:	d37e6821 	ubfiz	x1, x1, #2, #27
  922dfc:	b8206822 	str	w2, [x1, x0]
  922e00:	d65f03c0 	ret

0000000000922e04 <gicd_write_isactiver>:
  922e04:	53057c21 	lsr	w1, w1, #5
  922e08:	910c0000 	add	x0, x0, #0x300
  922e0c:	d37e6821 	ubfiz	x1, x1, #2, #27
  922e10:	b8206822 	str	w2, [x1, x0]
  922e14:	d65f03c0 	ret

0000000000922e18 <gicd_write_ipriorityr>:
  922e18:	927e7421 	and	x1, x1, #0xfffffffc
  922e1c:	91100000 	add	x0, x0, #0x400
  922e20:	b8206822 	str	w2, [x1, x0]
  922e24:	d65f03c0 	ret

0000000000922e28 <gicd_write_icfgr>:
  922e28:	53047c21 	lsr	w1, w1, #4
  922e2c:	91300000 	add	x0, x0, #0xc00
  922e30:	d37e6c21 	ubfiz	x1, x1, #2, #28
  922e34:	b8206822 	str	w2, [x1, x0]
  922e38:	d65f03c0 	ret

0000000000922e3c <gicd_write_nsacr>:
  922e3c:	53047c21 	lsr	w1, w1, #4
  922e40:	91380000 	add	x0, x0, #0xe00
  922e44:	d37e6c21 	ubfiz	x1, x1, #2, #28
  922e48:	b8206822 	str	w2, [x1, x0]
  922e4c:	d65f03c0 	ret

0000000000922e50 <gicd_clr_igroupr>:
  922e50:	2a0103e3 	mov	w3, w1
  922e54:	aa0003e4 	mov	x4, x0
  922e58:	a9bf7bfd 	stp	x29, x30, [sp, #-16]!
  922e5c:	910003fd 	mov	x29, sp
  922e60:	97ffffb8 	bl	922d40 <gicd_read_igroupr>
  922e64:	2a0303e1 	mov	w1, w3
  922e68:	a8c17bfd 	ldp	x29, x30, [sp], #16
  922e6c:	52800022 	mov	w2, #0x1                   	// #1
  922e70:	1ac32042 	lsl	w2, w2, w3
  922e74:	0a220002 	bic	w2, w0, w2
  922e78:	aa0403e0 	mov	x0, x4
  922e7c:	17ffffd3 	b	922dc8 <gicd_write_igroupr>

0000000000922e80 <gicd_set_isenabler>:
  922e80:	52800022 	mov	w2, #0x1                   	// #1
  922e84:	1ac12042 	lsl	w2, w2, w1
  922e88:	17ffffd5 	b	922ddc <gicd_write_isenabler>

0000000000922e8c <gicd_set_ipriorityr>:
  922e8c:	91100000 	add	x0, x0, #0x400
  922e90:	2a0103e1 	mov	w1, w1
  922e94:	12001c42 	and	w2, w2, #0xff
  922e98:	38216802 	strb	w2, [x0, x1]
  922e9c:	d65f03c0 	ret

0000000000922ea0 <gicd_set_icfgr>:
  922ea0:	531f0c24 	ubfiz	w4, w1, #1, #4
  922ea4:	2a0103e3 	mov	w3, w1
  922ea8:	aa0003e5 	mov	x5, x0
  922eac:	a9bf7bfd 	stp	x29, x30, [sp, #-16]!
  922eb0:	910003fd 	mov	x29, sp
  922eb4:	97ffffbb 	bl	922da0 <gicd_read_icfgr>
  922eb8:	12000442 	and	w2, w2, #0x3
  922ebc:	a8c17bfd 	ldp	x29, x30, [sp], #16
  922ec0:	52800061 	mov	w1, #0x3                   	// #3
  922ec4:	1ac42021 	lsl	w1, w1, w4
  922ec8:	0a210000 	bic	w0, w0, w1
  922ecc:	1ac42042 	lsl	w2, w2, w4
  922ed0:	2a0303e1 	mov	w1, w3
  922ed4:	2a000042 	orr	w2, w2, w0
  922ed8:	aa0503e0 	mov	x0, x5
  922edc:	17ffffd3 	b	922e28 <gicd_write_icfgr>

0000000000922ee0 <plat_ic_get_pending_interrupt_type>:
  922ee0:	a9bf7bfd 	stp	x29, x30, [sp, #-16]!
  922ee4:	910003fd 	mov	x29, sp
  922ee8:	97fffe00 	bl	9226e8 <gicv3_get_pending_interrupt_type>
  922eec:	510ff000 	sub	w0, w0, #0x3fc
  922ef0:	71000c1f 	cmp	w0, #0x3
  922ef4:	540000c8 	b.hi	922f0c <plat_ic_get_pending_interrupt_type+0x2c>  // b.pmore
  922ef8:	d0000021 	adrp	x1, 928000 <unsigned_num_print+0x1c>
  922efc:	911b1021 	add	x1, x1, #0x6c4
  922f00:	38604820 	ldrb	w0, [x1, w0, uxtw]
  922f04:	a8c17bfd 	ldp	x29, x30, [sp], #16
  922f08:	d65f03c0 	ret
  922f0c:	52800020 	mov	w0, #0x1                   	// #1
  922f10:	17fffffd 	b	922f04 <plat_ic_get_pending_interrupt_type+0x24>

0000000000922f14 <plat_interrupt_type_to_line>:
  922f14:	7100041f 	cmp	w0, #0x1
  922f18:	540001e0 	b.eq	922f54 <plat_interrupt_type_to_line+0x40>  // b.none
  922f1c:	340000e0 	cbz	w0, 922f38 <plat_interrupt_type_to_line+0x24>
  922f20:	7100081f 	cmp	w0, #0x2
  922f24:	54000120 	b.eq	922f48 <plat_interrupt_type_to_line+0x34>  // b.none
  922f28:	a9bf7bfd 	stp	x29, x30, [sp, #-16]!
  922f2c:	910003fd 	mov	x29, sp
  922f30:	940011af 	bl	9275ec <console_flush>
  922f34:	9400134e 	bl	927c6c <do_panic>
  922f38:	7100003f 	cmp	w1, #0x0
  922f3c:	1a9f07e0 	cset	w0, ne  // ne = any
  922f40:	11000400 	add	w0, w0, #0x1
  922f44:	d65f03c0 	ret
  922f48:	7100003f 	cmp	w1, #0x0
  922f4c:	1a9f0400 	csinc	w0, w0, wzr, eq  // eq = none
  922f50:	d65f03c0 	ret
  922f54:	52800040 	mov	w0, #0x2                   	// #2
  922f58:	d65f03c0 	ret

0000000000922f5c <plat_imx_mpidr_to_core_pos>:
  922f5c:	17fffa92 	b	9219a4 <plat_core_pos_by_mpidr>

0000000000922f60 <plat_gic_driver_init>:
  922f60:	d0000020 	adrp	x0, 928000 <unsigned_num_print+0x1c>
  922f64:	911b2000 	add	x0, x0, #0x6c8
  922f68:	17fffd58 	b	9224c8 <gicv3_driver_init>

0000000000922f6c <plat_gic_init>:
  922f6c:	a9bf7bfd 	stp	x29, x30, [sp, #-16]!
  922f70:	910003fd 	mov	x29, sp
  922f74:	97fffd6b 	bl	922520 <gicv3_distif_init>
  922f78:	94001147 	bl	927494 <plat_my_core_pos>
  922f7c:	97fffd8a 	bl	9225a4 <gicv3_rdistif_init>
  922f80:	94001145 	bl	927494 <plat_my_core_pos>
  922f84:	a8c17bfd 	ldp	x29, x30, [sp], #16
  922f88:	17fffda8 	b	922628 <gicv3_cpuif_enable>

0000000000922f8c <plat_gic_cpuif_enable>:
  922f8c:	a9bf7bfd 	stp	x29, x30, [sp, #-16]!
  922f90:	910003fd 	mov	x29, sp
  922f94:	94001140 	bl	927494 <plat_my_core_pos>
  922f98:	a8c17bfd 	ldp	x29, x30, [sp], #16
  922f9c:	17fffda3 	b	922628 <gicv3_cpuif_enable>

0000000000922fa0 <plat_gic_cpuif_disable>:
  922fa0:	a9bf7bfd 	stp	x29, x30, [sp, #-16]!
  922fa4:	910003fd 	mov	x29, sp
  922fa8:	9400113b 	bl	927494 <plat_my_core_pos>
  922fac:	a8c17bfd 	ldp	x29, x30, [sp], #16
  922fb0:	17fffdbf 	b	9226ac <gicv3_cpuif_disable>

0000000000922fb4 <plat_gic_pcpu_init>:
  922fb4:	a9bf7bfd 	stp	x29, x30, [sp, #-16]!
  922fb8:	910003fd 	mov	x29, sp
  922fbc:	94001136 	bl	927494 <plat_my_core_pos>
  922fc0:	a8c17bfd 	ldp	x29, x30, [sp], #16
  922fc4:	17fffd78 	b	9225a4 <gicv3_rdistif_init>

0000000000922fc8 <plat_gic_save>:
  922fc8:	a9bd7bfd 	stp	x29, x30, [sp, #-48]!
  922fcc:	910003fd 	mov	x29, sp
  922fd0:	a90153f3 	stp	x19, x20, [sp, #16]
  922fd4:	aa0103f4 	mov	x20, x1
  922fd8:	f90013f5 	str	x21, [sp, #32]
  922fdc:	aa0103f5 	mov	x21, x1
  922fe0:	52800013 	mov	w19, #0x0                   	// #0
  922fe4:	aa1403e1 	mov	x1, x20
  922fe8:	2a1303e0 	mov	w0, w19
  922fec:	11000673 	add	w19, w19, #0x1
  922ff0:	97fffdc1 	bl	9226f4 <gicv3_rdistif_save>
  922ff4:	91016294 	add	x20, x20, #0x58
  922ff8:	7100127f 	cmp	w19, #0x4
  922ffc:	54ffff41 	b.ne	922fe4 <plat_gic_save+0x1c>  // b.any
  923000:	910582a0 	add	x0, x21, #0x160
  923004:	f94013f5 	ldr	x21, [sp, #32]
  923008:	a94153f3 	ldp	x19, x20, [sp, #16]
  92300c:	a8c37bfd 	ldp	x29, x30, [sp], #48
  923010:	17fffe43 	b	92291c <gicv3_distif_save>

0000000000923014 <plat_gic_restore>:
  923014:	a9be7bfd 	stp	x29, x30, [sp, #-32]!
  923018:	91058020 	add	x0, x1, #0x160
  92301c:	910003fd 	mov	x29, sp
  923020:	a90153f3 	stp	x19, x20, [sp, #16]
  923024:	52800014 	mov	w20, #0x0                   	// #0
  923028:	aa0103f3 	mov	x19, x1
  92302c:	97fffebc 	bl	922b1c <gicv3_distif_init_restore>
  923030:	aa1303e1 	mov	x1, x19
  923034:	2a1403e0 	mov	w0, w20
  923038:	11000694 	add	w20, w20, #0x1
  92303c:	97fffdef 	bl	9227f8 <gicv3_rdistif_init_restore>
  923040:	91016273 	add	x19, x19, #0x58
  923044:	7100129f 	cmp	w20, #0x4
  923048:	54ffff41 	b.ne	923030 <plat_gic_restore+0x1c>  // b.any
  92304c:	a94153f3 	ldp	x19, x20, [sp, #16]
  923050:	a8c27bfd 	ldp	x29, x30, [sp], #32
  923054:	d65f03c0 	ret

0000000000923058 <dram_umctl2_init>:
  923058:	90000060 	adrp	x0, 92f000 <imx_gicv3_ctx+0x21d0>
  92305c:	f944ac00 	ldr	x0, [x0, #2392]
  923060:	b9400802 	ldr	w2, [x0, #8]
  923064:	f9400001 	ldr	x1, [x0]
  923068:	52800000 	mov	w0, #0x0                   	// #0
  92306c:	6b02001f 	cmp	w0, w2
  923070:	540000ab 	b.lt	923084 <dram_umctl2_init+0x2c>  // b.tstop
  923074:	d2800500 	mov	x0, #0x28                  	// #40
  923078:	f2a7a800 	movk	x0, #0x3d40, lsl #16
  92307c:	b900001f 	str	wzr, [x0]
  923080:	d65f03c0 	ret
  923084:	b9400424 	ldr	w4, [x1, #4]
  923088:	11000400 	add	w0, w0, #0x1
  92308c:	b8408423 	ldr	w3, [x1], #8
  923090:	b9000064 	str	w4, [x3]
  923094:	17fffff6 	b	92306c <dram_umctl2_init+0x14>

0000000000923098 <dram_phy_init>:
  923098:	90000060 	adrp	x0, 92f000 <imx_gicv3_ctx+0x21d0>
  92309c:	52800002 	mov	w2, #0x0                   	// #0
  9230a0:	52a1e005 	mov	w5, #0xf000000             	// #251658240
  9230a4:	f944ac00 	ldr	x0, [x0, #2392]
  9230a8:	b9401804 	ldr	w4, [x0, #24]
  9230ac:	f9400803 	ldr	x3, [x0, #16]
  9230b0:	6b04005f 	cmp	w2, w4
  9230b4:	540001cb 	b.lt	9230ec <dram_phy_init+0x54>  // b.tstop
  9230b8:	b9403804 	ldr	w4, [x0, #56]
  9230bc:	52800002 	mov	w2, #0x0                   	// #0
  9230c0:	f9401803 	ldr	x3, [x0, #48]
  9230c4:	52a1e005 	mov	w5, #0xf000000             	// #251658240
  9230c8:	6b04005f 	cmp	w2, w4
  9230cc:	540001eb 	b.lt	923108 <dram_phy_init+0x70>  // b.tstop
  9230d0:	b9404803 	ldr	w3, [x0, #72]
  9230d4:	52800001 	mov	w1, #0x0                   	// #0
  9230d8:	f9402002 	ldr	x2, [x0, #64]
  9230dc:	52a1e004 	mov	w4, #0xf000000             	// #251658240
  9230e0:	6b03003f 	cmp	w1, w3
  9230e4:	5400020b 	b.lt	923124 <dram_phy_init+0x8c>  // b.tstop
  9230e8:	d65f03c0 	ret
  9230ec:	b9400466 	ldr	w6, [x3, #4]
  9230f0:	11000442 	add	w2, w2, #0x1
  9230f4:	b8408461 	ldr	w1, [x3], #8
  9230f8:	0b050021 	add	w1, w1, w5
  9230fc:	531e7421 	lsl	w1, w1, #2
  923100:	b9000026 	str	w6, [x1]
  923104:	17ffffeb 	b	9230b0 <dram_phy_init+0x18>
  923108:	b9400466 	ldr	w6, [x3, #4]
  92310c:	11000442 	add	w2, w2, #0x1
  923110:	b8408461 	ldr	w1, [x3], #8
  923114:	0b050021 	add	w1, w1, w5
  923118:	531e7421 	lsl	w1, w1, #2
  92311c:	b9000026 	str	w6, [x1]
  923120:	17ffffea 	b	9230c8 <dram_phy_init+0x30>
  923124:	b9400445 	ldr	w5, [x2, #4]
  923128:	11000421 	add	w1, w1, #0x1
  92312c:	b8408440 	ldr	w0, [x2], #8
  923130:	0b040000 	add	w0, w0, w4
  923134:	531e7400 	lsl	w0, w0, #2
  923138:	b9000005 	str	w5, [x0]
  92313c:	17ffffe9 	b	9230e0 <dram_phy_init+0x48>

0000000000923140 <dram_info_init>:
  923140:	a9bd7bfd 	stp	x29, x30, [sp, #-48]!
  923144:	d2a7a801 	mov	x1, #0x3d400000            	// #1027604480
  923148:	910003fd 	mov	x29, sp
  92314c:	b9400021 	ldr	w1, [x1]
  923150:	a90153f3 	stp	x19, x20, [sp, #16]
  923154:	90000073 	adrp	x19, 92f000 <imx_gicv3_ctx+0x21d0>
  923158:	91252263 	add	x3, x19, #0x948
  92315c:	12001422 	and	w2, w1, #0x3f
  923160:	f90013f5 	str	x21, [sp, #32]
  923164:	d3586421 	ubfx	x1, x1, #24, #2
  923168:	b9094a62 	str	w2, [x19, #2376]
  92316c:	b9000461 	str	w1, [x3, #4]
  923170:	d2803601 	mov	x1, #0x1b0                 	// #432
  923174:	f2a7a801 	movk	x1, #0x3d40, lsl #16
  923178:	b9400021 	ldr	w1, [x1]
  92317c:	d3482c21 	ubfx	x1, x1, #8, #4
  923180:	29010461 	stp	w1, w1, [x3, #8]
  923184:	b9405003 	ldr	w3, [x0, #80]
  923188:	710a687f 	cmp	w3, #0x29a
  92318c:	540003a8 	b.hi	923200 <dram_info_init+0xc0>  // b.pmore
  923190:	b9405403 	ldr	w3, [x0, #84]
  923194:	710a687f 	cmp	w3, #0x29a
  923198:	1a9f87e3 	cset	w3, ls  // ls = plast
  92319c:	91252273 	add	x19, x19, #0x948
  9231a0:	f0000035 	adrp	x21, 92a000 <__RO_END__>
  9231a4:	7100003f 	cmp	w1, #0x0
  9231a8:	390452a3 	strb	w3, [x21, #276]
  9231ac:	f9000a60 	str	x0, [x19, #16]
  9231b0:	1a9f07e0 	cset	w0, ne  // ne = any
  9231b4:	7100805f 	cmp	w2, #0x20
  9231b8:	7a400804 	ccmp	w0, #0x0, #0x4, eq  // eq = none
  9231bc:	54000260 	b.eq	923208 <dram_info_init+0xc8>  // b.none
  9231c0:	f0000034 	adrp	x20, 92a000 <__RO_END__>
  9231c4:	d2800040 	mov	x0, #0x2                   	// #2
  9231c8:	94001315 	bl	927e1c <dcsw_op_all>
  9231cc:	394452a3 	ldrb	w3, [x21, #276]
  9231d0:	aa1303e0 	mov	x0, x19
  9231d4:	b9411a81 	ldr	w1, [x20, #280]
  9231d8:	52800002 	mov	w2, #0x0                   	// #0
  9231dc:	940002af 	bl	923c98 <lpddr4_swffc>
  9231e0:	b9411a80 	ldr	w0, [x20, #280]
  9231e4:	2a2003e0 	mvn	w0, w0
  9231e8:	12000000 	and	w0, w0, #0x1
  9231ec:	b9011a80 	str	w0, [x20, #280]
  9231f0:	a94153f3 	ldp	x19, x20, [sp, #16]
  9231f4:	f94013f5 	ldr	x21, [sp, #32]
  9231f8:	a8c37bfd 	ldp	x29, x30, [sp], #48
  9231fc:	d65f03c0 	ret
  923200:	52800003 	mov	w3, #0x0                   	// #0
  923204:	17ffffe6 	b	92319c <dram_info_init+0x5c>
  923208:	7100001f 	cmp	w0, #0x0
  92320c:	7a501840 	ccmp	w2, #0x10, #0x0, ne  // ne = any
  923210:	54ffff01 	b.ne	9231f0 <dram_info_init+0xb0>  // b.any
  923214:	d2800040 	mov	x0, #0x2                   	// #2
  923218:	94001301 	bl	927e1c <dcsw_op_all>
  92321c:	aa1303e0 	mov	x0, x19
  923220:	f94013f5 	ldr	x21, [sp, #32]
  923224:	a94153f3 	ldp	x19, x20, [sp, #16]
  923228:	52800001 	mov	w1, #0x0                   	// #0
  92322c:	a8c37bfd 	ldp	x29, x30, [sp], #48
  923230:	140005c1 	b	924934 <ddr4_swffc>

0000000000923234 <dram_enter_retention>:
  923234:	90000060 	adrp	x0, 92f000 <imx_gicv3_ctx+0x21d0>
  923238:	b9494800 	ldr	w0, [x0, #2376]
  92323c:	7100801f 	cmp	w0, #0x20
  923240:	54000041 	b.ne	923248 <dram_enter_retention+0x14>  // b.any
  923244:	1400009c 	b	9234b4 <lpddr4_enter_retention>
  923248:	7100401f 	cmp	w0, #0x10
  92324c:	54000041 	b.ne	923254 <dram_enter_retention+0x20>  // b.any
  923250:	14000178 	b	923830 <ddr4_enter_retention>
  923254:	d65f03c0 	ret

0000000000923258 <dram_exit_retention>:
  923258:	90000060 	adrp	x0, 92f000 <imx_gicv3_ctx+0x21d0>
  92325c:	b9494800 	ldr	w0, [x0, #2376]
  923260:	7100801f 	cmp	w0, #0x20
  923264:	54000041 	b.ne	92326c <dram_exit_retention+0x14>  // b.any
  923268:	140000e4 	b	9235f8 <lpddr4_exit_retention>
  92326c:	7100401f 	cmp	w0, #0x10
  923270:	54000041 	b.ne	923278 <dram_exit_retention+0x20>  // b.any
  923274:	140001e0 	b	9239f4 <ddr4_exit_retention>
  923278:	d65f03c0 	ret

000000000092327c <dram_dvfs_handler>:
  92327c:	a9bd7bfd 	stp	x29, x30, [sp, #-48]!
  923280:	910003fd 	mov	x29, sp
  923284:	a90153f3 	stp	x19, x20, [sp, #16]
  923288:	a9025bf5 	stp	x21, x22, [sp, #32]
  92328c:	d53800a5 	mrs	x5, mpidr_el1
  923290:	12001ca5 	and	w5, w5, #0xff
  923294:	52800023 	mov	w3, #0x1                   	// #1
  923298:	71003c3f 	cmp	w1, #0xf
  92329c:	f0000034 	adrp	x20, 92a000 <__RO_END__>
  9232a0:	531d70b3 	lsl	w19, w5, #3
  9232a4:	1ad32073 	lsl	w19, w3, w19
  9232a8:	540002a1 	b.ne	9232fc <dram_dvfs_handler+0x80>  // b.any
  9232ac:	b0000075 	adrp	x21, 930000 <psci_ns_context+0x620>
  9232b0:	910b22b5 	add	x21, x21, #0x2c8
  9232b4:	aa1503e0 	mov	x0, x21
  9232b8:	94001195 	bl	92790c <spin_lock>
  9232bc:	90000060 	adrp	x0, 92f000 <imx_gicv3_ctx+0x21d0>
  9232c0:	91047294 	add	x20, x20, #0x11c
  9232c4:	b9496002 	ldr	w2, [x0, #2400]
  9232c8:	2a020273 	orr	w19, w19, w2
  9232cc:	b9096013 	str	w19, [x0, #2400]
  9232d0:	aa1503e0 	mov	x0, x21
  9232d4:	94001196 	bl	92792c <spin_unlock>
  9232d8:	d503205f 	wfe
  9232dc:	39400280 	ldrb	w0, [x20]
  9232e0:	72001c1f 	tst	w0, #0xff
  9232e4:	54ffffa1 	b.ne	9232d8 <dram_dvfs_handler+0x5c>  // b.any
  9232e8:	52800000 	mov	w0, #0x0                   	// #0
  9232ec:	a94153f3 	ldp	x19, x20, [sp, #16]
  9232f0:	a9425bf5 	ldp	x21, x22, [sp, #32]
  9232f4:	a8c37bfd 	ldp	x29, x30, [sp], #48
  9232f8:	d65f03c0 	ret
  9232fc:	aa0103f6 	mov	x22, x1
  923300:	52801027 	mov	w7, #0x81                  	// #129
  923304:	b0000021 	adrp	x1, 928000 <unsigned_num_print+0x1c>
  923308:	2a0203e6 	mov	w6, w2
  92330c:	911c0021 	add	x1, x1, #0x700
  923310:	39047283 	strb	w3, [x20, #284]
  923314:	d2800000 	mov	x0, #0x0                   	// #0
  923318:	72a1c407 	movk	w7, #0xe20, lsl #16
  92331c:	6b05001f 	cmp	w0, w5
  923320:	54000140 	b.eq	923348 <dram_dvfs_handler+0xcc>  // b.none
  923324:	531d7004 	lsl	w4, w0, #3
  923328:	1ac42064 	lsl	w4, w3, w4
  92332c:	6a06009f 	tst	w4, w6
  923330:	540000c0 	b.eq	923348 <dram_dvfs_handler+0xcc>  // b.none
  923334:	b8607824 	ldr	w4, [x1, x0, lsl #2]
  923338:	1ac42068 	lsl	w8, w3, w4
  92333c:	0b4414e4 	add	w4, w7, w4, lsr #5
  923340:	d37e7084 	ubfiz	x4, x4, #2, #29
  923344:	b9000088 	str	w8, [x4]
  923348:	91000400 	add	x0, x0, #0x1
  92334c:	f100101f 	cmp	x0, #0x4
  923350:	54fffe61 	b.ne	92331c <dram_dvfs_handler+0xa0>  // b.any
  923354:	90000075 	adrp	x21, 92f000 <imx_gicv3_ctx+0x21d0>
  923358:	0a330053 	bic	w19, w2, w19
  92335c:	912582a1 	add	x1, x21, #0x960
  923360:	b9400020 	ldr	w0, [x1]
  923364:	6b13001f 	cmp	w0, w19
  923368:	54ffffc1 	b.ne	923360 <dram_dvfs_handler+0xe4>  // b.any
  92336c:	d2800040 	mov	x0, #0x2                   	// #2
  923370:	940012ab 	bl	927e1c <dcsw_op_all>
  923374:	90000061 	adrp	x1, 92f000 <imx_gicv3_ctx+0x21d0>
  923378:	91252020 	add	x0, x1, #0x948
  92337c:	b9494821 	ldr	w1, [x1, #2376]
  923380:	7100803f 	cmp	w1, #0x20
  923384:	54000221 	b.ne	9233c8 <dram_dvfs_handler+0x14c>  // b.any
  923388:	f0000033 	adrp	x19, 92a000 <__RO_END__>
  92338c:	f0000021 	adrp	x1, 92a000 <__RO_END__>
  923390:	2a1603e2 	mov	w2, w22
  923394:	39445023 	ldrb	w3, [x1, #276]
  923398:	b9411a61 	ldr	w1, [x19, #280]
  92339c:	9400023f 	bl	923c98 <lpddr4_swffc>
  9233a0:	b9411a60 	ldr	w0, [x19, #280]
  9233a4:	2a2003e0 	mvn	w0, w0
  9233a8:	12000000 	and	w0, w0, #0x1
  9233ac:	b9011a60 	str	w0, [x19, #280]
  9233b0:	3904729f 	strb	wzr, [x20, #284]
  9233b4:	b90962bf 	str	wzr, [x21, #2400]
  9233b8:	d5033f9f 	dsb	sy
  9233bc:	d503209f 	sev
  9233c0:	d5033fdf 	isb
  9233c4:	17ffffc9 	b	9232e8 <dram_dvfs_handler+0x6c>
  9233c8:	7100403f 	cmp	w1, #0x10
  9233cc:	54ffff21 	b.ne	9233b0 <dram_dvfs_handler+0x134>  // b.any
  9233d0:	2a1603e1 	mov	w1, w22
  9233d4:	94000558 	bl	924934 <ddr4_swffc>
  9233d8:	17fffff6 	b	9233b0 <dram_dvfs_handler+0x134>

00000000009233dc <ddr_pll_bypass_100mts>:
  9233dc:	d2940101 	mov	x1, #0xa008                	// #40968
  9233e0:	52a0e0e0 	mov	w0, #0x7070000             	// #117899264
  9233e4:	f2a60701 	movk	x1, #0x3038, lsl #16
  9233e8:	52a04002 	mov	w2, #0x2000000             	// #33554432
  9233ec:	b9000020 	str	w0, [x1]
  9233f0:	d2940081 	mov	x1, #0xa004                	// #40964
  9233f4:	f2a60701 	movk	x1, #0x3038, lsl #16
  9233f8:	b9000022 	str	w2, [x1]
  9233fc:	b9008420 	str	w0, [x1, #132]
  923400:	d2941080 	mov	x0, #0xa084                	// #41092
  923404:	f2a60700 	movk	x0, #0x3038, lsl #16
  923408:	52a04021 	mov	w1, #0x2010000             	// #33619968
  92340c:	b9000001 	str	w1, [x0]
  923410:	d2930080 	mov	x0, #0x9804                	// #38916
  923414:	f2a60700 	movk	x0, #0x3038, lsl #16
  923418:	52a02001 	mov	w1, #0x1000000             	// #16777216
  92341c:	b9000001 	str	w1, [x0]
  923420:	d65f03c0 	ret

0000000000923424 <ddr_pll_bypass_400mts>:
  923424:	d2940101 	mov	x1, #0xa008                	// #40968
  923428:	52a0e0e0 	mov	w0, #0x7070000             	// #117899264
  92342c:	f2a60701 	movk	x1, #0x3038, lsl #16
  923430:	52a02022 	mov	w2, #0x1010000             	// #16842752
  923434:	b9000020 	str	w0, [x1]
  923438:	d2940081 	mov	x1, #0xa004                	// #40964
  92343c:	f2a60701 	movk	x1, #0x3038, lsl #16
  923440:	b9000022 	str	w2, [x1]
  923444:	b9008420 	str	w0, [x1, #132]
  923448:	d2941080 	mov	x0, #0xa084                	// #41092
  92344c:	f2a60700 	movk	x0, #0x3038, lsl #16
  923450:	52a06021 	mov	w1, #0x3010000             	// #50397184
  923454:	b9000001 	str	w1, [x0]
  923458:	d2930080 	mov	x0, #0x9804                	// #38916
  92345c:	f2a60700 	movk	x0, #0x3038, lsl #16
  923460:	52a02001 	mov	w1, #0x1000000             	// #16777216
  923464:	b9000001 	str	w1, [x0]
  923468:	d65f03c0 	ret

000000000092346c <ddr_pll_bypass_dis>:
  92346c:	d2930100 	mov	x0, #0x9808                	// #38920
  923470:	52a02001 	mov	w1, #0x1000000             	// #16777216
  923474:	f2a60700 	movk	x0, #0x3038, lsl #16
  923478:	b9000001 	str	w1, [x0]
  92347c:	52a0e0e1 	mov	w1, #0x7070000             	// #117899264
  923480:	b9088001 	str	w1, [x0, #2176]
  923484:	d2941080 	mov	x0, #0xa084                	// #41092
  923488:	f2a60700 	movk	x0, #0x3038, lsl #16
  92348c:	52a08081 	mov	w1, #0x4040000             	// #67371008
  923490:	b9000001 	str	w1, [x0]
  923494:	d65f03c0 	ret

0000000000923498 <dram_clock_switch>:
  923498:	7100081f 	cmp	w0, #0x2
  92349c:	54000041 	b.ne	9234a4 <dram_clock_switch+0xc>  // b.any
  9234a0:	17ffffcf 	b	9233dc <ddr_pll_bypass_100mts>
  9234a4:	7100041f 	cmp	w0, #0x1
  9234a8:	54000041 	b.ne	9234b0 <dram_clock_switch+0x18>  // b.any
  9234ac:	17ffffde 	b	923424 <ddr_pll_bypass_400mts>
  9234b0:	17ffffef 	b	92346c <ddr_pll_bypass_dis>

00000000009234b4 <lpddr4_enter_retention>:
  9234b4:	d2806102 	mov	x2, #0x308                 	// #776
  9234b8:	52a6c000 	mov	w0, #0x36000000            	// #905969664
  9234bc:	f2a7a802 	movk	x2, #0x3d40, lsl #16
  9234c0:	b9400041 	ldr	w1, [x2]
  9234c4:	6b00003f 	cmp	w1, w0
  9234c8:	54ffffc1 	b.ne	9234c0 <lpddr4_enter_retention+0xc>  // b.any
  9234cc:	d2809200 	mov	x0, #0x490                 	// #1168
  9234d0:	d2807f81 	mov	x1, #0x3fc                 	// #1020
  9234d4:	f2a7a800 	movk	x0, #0x3d40, lsl #16
  9234d8:	f2a7a801 	movk	x1, #0x3d40, lsl #16
  9234dc:	b900001f 	str	wzr, [x0]
  9234e0:	b9400020 	ldr	w0, [x1]
  9234e4:	7200801f 	tst	w0, #0x10001
  9234e8:	54ffffc1 	b.ne	9234e0 <lpddr4_enter_retention+0x2c>  // b.any
  9234ec:	d2800600 	mov	x0, #0x30                  	// #48
  9234f0:	52801541 	mov	w1, #0xaa                  	// #170
  9234f4:	f2a7a800 	movk	x0, #0x3d40, lsl #16
  9234f8:	d2800082 	mov	x2, #0x4                   	// #4
  9234fc:	f2a7a802 	movk	x2, #0x3d40, lsl #16
  923500:	b9000001 	str	w1, [x0]
  923504:	528067e1 	mov	w1, #0x33f                 	// #831
  923508:	b9400040 	ldr	w0, [x2]
  92350c:	0a010000 	and	w0, w0, w1
  923510:	71088c1f 	cmp	w0, #0x223
  923514:	54ffffa1 	b.ne	923508 <lpddr4_enter_retention+0x54>  // b.any
  923518:	d2803601 	mov	x1, #0x1b0                 	// #432
  92351c:	d2806400 	mov	x0, #0x320                 	// #800
  923520:	f2a7a801 	movk	x1, #0x3d40, lsl #16
  923524:	f2a7a800 	movk	x0, #0x3d40, lsl #16
  923528:	5283e002 	mov	w2, #0x1f00                	// #7936
  92352c:	5283e403 	mov	w3, #0x1f20                	// #7968
  923530:	b900003f 	str	wzr, [x1]
  923534:	b900001f 	str	wzr, [x0]
  923538:	b9000022 	str	w2, [x1]
  92353c:	b9000023 	str	w3, [x1]
  923540:	b9000022 	str	w2, [x1]
  923544:	d2803782 	mov	x2, #0x1bc                 	// #444
  923548:	f2a7a802 	movk	x2, #0x3d40, lsl #16
  92354c:	b9400041 	ldr	w1, [x2]
  923550:	3607ffe1 	tbz	w1, #0, 92354c <lpddr4_enter_retention+0x98>
  923554:	52800021 	mov	w1, #0x1                   	// #1
  923558:	b9000001 	str	w1, [x0]
  92355c:	d2a78680 	mov	x0, #0x3c340000            	// #1010040832
  923560:	d2801402 	mov	x2, #0xa0                  	// #160
  923564:	f2a78482 	movk	x2, #0x3c24, lsl #16
  923568:	b900001f 	str	wzr, [x0]
  92356c:	b9400042 	ldr	w2, [x2]
  923570:	b9000001 	str	w1, [x0]
  923574:	d2803f80 	mov	x0, #0x1fc                 	// #508
  923578:	f2a60740 	movk	x0, #0x303a, lsl #16
  92357c:	b9400001 	ldr	w1, [x0]
  923580:	121d7821 	and	w1, w1, #0xfffffffb
  923584:	b9000001 	str	w1, [x0]
  923588:	b9400001 	ldr	w1, [x0]
  92358c:	37a7ffe1 	tbnz	w1, #20, 923588 <lpddr4_enter_retention+0xd4>
  923590:	b9400001 	ldr	w1, [x0]
  923594:	321e0021 	orr	w1, w1, #0x4
  923598:	b9000001 	str	w1, [x0]
  92359c:	d2820000 	mov	x0, #0x1000                	// #4096
  9235a0:	52800101 	mov	w1, #0x8                   	// #8
  9235a4:	f2a60720 	movk	x0, #0x3039, lsl #16
  9235a8:	72b1e001 	movk	w1, #0x8f00, lsl #16
  9235ac:	b9000001 	str	w1, [x0]
  9235b0:	d2880a00 	mov	x0, #0x4050                	// #16464
  9235b4:	f2a60700 	movk	x0, #0x3038, lsl #16
  9235b8:	52800041 	mov	w1, #0x2                   	// #2
  9235bc:	b900001f 	str	wzr, [x0]
  9235c0:	d2811e00 	mov	x0, #0x8f0                 	// #2288
  9235c4:	f2a60700 	movk	x0, #0x3038, lsl #16
  9235c8:	b9000001 	str	w1, [x0]
  9235cc:	d281a801 	mov	x1, #0xd40                 	// #3392
  9235d0:	f2a60741 	movk	x1, #0x303a, lsl #16
  9235d4:	b9400020 	ldr	w0, [x1]
  9235d8:	32000000 	orr	w0, w0, #0x1
  9235dc:	b9000020 	str	w0, [x1]
  9235e0:	d2802081 	mov	x1, #0x104                 	// #260
  9235e4:	f2a60741 	movk	x1, #0x303a, lsl #16
  9235e8:	b9400020 	ldr	w0, [x1]
  9235ec:	321b0000 	orr	w0, w0, #0x20
  9235f0:	b9000020 	str	w0, [x1]
  9235f4:	d65f03c0 	ret

00000000009235f8 <lpddr4_exit_retention>:
  9235f8:	a9be7bfd 	stp	x29, x30, [sp, #-32]!
  9235fc:	d2820000 	mov	x0, #0x1000                	// #4096
  923600:	f2a60720 	movk	x0, #0x3039, lsl #16
  923604:	528003e1 	mov	w1, #0x1f                  	// #31
  923608:	910003fd 	mov	x29, sp
  92360c:	f9000bf3 	str	x19, [sp, #16]
  923610:	72b1e001 	movk	w1, #0x8f00, lsl #16
  923614:	d2880a02 	mov	x2, #0x4050                	// #16464
  923618:	b9000001 	str	w1, [x0]
  92361c:	f2a60702 	movk	x2, #0x3038, lsl #16
  923620:	528001e1 	mov	w1, #0xf                   	// #15
  923624:	72b1e001 	movk	w1, #0x8f00, lsl #16
  923628:	b9000001 	str	w1, [x0]
  92362c:	52800041 	mov	w1, #0x2                   	// #2
  923630:	b9000041 	str	w1, [x2]
  923634:	d2811e02 	mov	x2, #0x8f0                 	// #2288
  923638:	f2a60702 	movk	x2, #0x3038, lsl #16
  92363c:	b9000041 	str	w1, [x2]
  923640:	d2941101 	mov	x1, #0xa088                	// #41096
  923644:	f2a60701 	movk	x1, #0x3038, lsl #16
  923648:	52a0e0e2 	mov	w2, #0x7070000             	// #117899264
  92364c:	b9000022 	str	w2, [x1]
  923650:	d2941081 	mov	x1, #0xa084                	// #41092
  923654:	f2a60701 	movk	x1, #0x3038, lsl #16
  923658:	52a08062 	mov	w2, #0x4030000             	// #67305472
  92365c:	b9000022 	str	w2, [x1]
  923660:	d2801d81 	mov	x1, #0xec                  	// #236
  923664:	f2a60741 	movk	x1, #0x303a, lsl #16
  923668:	529fffe2 	mov	w2, #0xffff                	// #65535
  92366c:	b9000022 	str	w2, [x1]
  923670:	d2801f02 	mov	x2, #0xf8                  	// #248
  923674:	f2a60742 	movk	x2, #0x303a, lsl #16
  923678:	b9400041 	ldr	w1, [x2]
  92367c:	321b0021 	orr	w1, w1, #0x20
  923680:	b9000041 	str	w1, [x2]
  923684:	528000c1 	mov	w1, #0x6                   	// #6
  923688:	72b1e001 	movk	w1, #0x8f00, lsl #16
  92368c:	b9000001 	str	w1, [x0]
  923690:	d2800a01 	mov	x1, #0x50                  	// #80
  923694:	f2a606c1 	movk	x1, #0x3036, lsl #16
  923698:	b9400020 	ldr	w0, [x1]
  92369c:	36ffffe0 	tbz	w0, #31, 923698 <lpddr4_exit_retention+0xa0>
  9236a0:	97fffe6e 	bl	923058 <dram_umctl2_init>
  9236a4:	d2806413 	mov	x19, #0x320                 	// #800
  9236a8:	d2801a01 	mov	x1, #0xd0                  	// #208
  9236ac:	f2a7a813 	movk	x19, #0x3d40, lsl #16
  9236b0:	f2a7a801 	movk	x1, #0x3d40, lsl #16
  9236b4:	b9400020 	ldr	w0, [x1]
  9236b8:	32020400 	orr	w0, w0, #0xc0000000
  9236bc:	b9000020 	str	w0, [x1]
  9236c0:	d2800500 	mov	x0, #0x28                  	// #40
  9236c4:	52801541 	mov	w1, #0xaa                  	// #170
  9236c8:	f2a7a800 	movk	x0, #0x3d40, lsl #16
  9236cc:	b900001f 	str	wzr, [x0]
  9236d0:	b9000801 	str	w1, [x0, #8]
  9236d4:	d2820000 	mov	x0, #0x1000                	// #4096
  9236d8:	f2a60720 	movk	x0, #0x3039, lsl #16
  9236dc:	52800081 	mov	w1, #0x4                   	// #4
  9236e0:	72b1e001 	movk	w1, #0x8f00, lsl #16
  9236e4:	b9000001 	str	w1, [x0]
  9236e8:	52b1e001 	mov	w1, #0x8f000000            	// #-1895825408
  9236ec:	b9000001 	str	w1, [x0]
  9236f0:	d2806080 	mov	x0, #0x304                 	// #772
  9236f4:	f2a7a800 	movk	x0, #0x3d40, lsl #16
  9236f8:	52800021 	mov	w1, #0x1                   	// #1
  9236fc:	b900001f 	str	wzr, [x0]
  923700:	d2a7a000 	mov	x0, #0x3d000000            	// #1023410176
  923704:	b900027f 	str	wzr, [x19]
  923708:	b9000001 	str	w1, [x0]
  92370c:	d2803600 	mov	x0, #0x1b0                 	// #432
  923710:	f2a7a800 	movk	x0, #0x3d40, lsl #16
  923714:	b900001f 	str	wzr, [x0]
  923718:	97fffe60 	bl	923098 <dram_phy_init>
  92371c:	d2a78680 	mov	x0, #0x3c340000            	// #1010040832
  923720:	d2804b81 	mov	x1, #0x25c                 	// #604
  923724:	f2a78101 	movk	x1, #0x3c08, lsl #16
  923728:	b900001f 	str	wzr, [x0]
  92372c:	b9400020 	ldr	w0, [x1]
  923730:	35ffffe0 	cbnz	w0, 92372c <lpddr4_exit_retention+0x134>
  923734:	d2a78680 	mov	x0, #0x3c340000            	// #1010040832
  923738:	52800021 	mov	w1, #0x1                   	// #1
  92373c:	d2803782 	mov	x2, #0x1bc                 	// #444
  923740:	b9000001 	str	w1, [x0]
  923744:	d2803600 	mov	x0, #0x1b0                 	// #432
  923748:	f2a7a800 	movk	x0, #0x3d40, lsl #16
  92374c:	b900027f 	str	wzr, [x19]
  923750:	52800401 	mov	w1, #0x20                  	// #32
  923754:	f2a7a802 	movk	x2, #0x3d40, lsl #16
  923758:	b9000001 	str	w1, [x0]
  92375c:	b9400041 	ldr	w1, [x2]
  923760:	3607ffe1 	tbz	w1, #0, 92375c <lpddr4_exit_retention+0x164>
  923764:	b900001f 	str	wzr, [x0]
  923768:	52800021 	mov	w1, #0x1                   	// #1
  92376c:	b9000001 	str	w1, [x0]
  923770:	d2806400 	mov	x0, #0x320                 	// #800
  923774:	f2a7a800 	movk	x0, #0x3d40, lsl #16
  923778:	b9000001 	str	w1, [x0]
  92377c:	d2806481 	mov	x1, #0x324                 	// #804
  923780:	f2a7a801 	movk	x1, #0x3d40, lsl #16
  923784:	b9400020 	ldr	w0, [x1]
  923788:	3607ffe0 	tbz	w0, #0, 923784 <lpddr4_exit_retention+0x18c>
  92378c:	d2800600 	mov	x0, #0x30                  	// #48
  923790:	52801541 	mov	w1, #0xaa                  	// #170
  923794:	f2a7a800 	movk	x0, #0x3d40, lsl #16
  923798:	d2803603 	mov	x3, #0x1b0                 	// #432
  92379c:	f2a7a803 	movk	x3, #0x3d40, lsl #16
  9237a0:	52800022 	mov	w2, #0x1                   	// #1
  9237a4:	b9000001 	str	w1, [x0]
  9237a8:	d2806401 	mov	x1, #0x320                 	// #800
  9237ac:	f2a7a801 	movk	x1, #0x3d40, lsl #16
  9237b0:	b900003f 	str	wzr, [x1]
  9237b4:	b9000062 	str	w2, [x3]
  9237b8:	b9000022 	str	w2, [x1]
  9237bc:	d2806482 	mov	x2, #0x324                 	// #804
  9237c0:	f2a7a802 	movk	x2, #0x3d40, lsl #16
  9237c4:	b9400041 	ldr	w1, [x2]
  9237c8:	3607ffe1 	tbz	w1, #0, 9237c4 <lpddr4_exit_retention+0x1cc>
  9237cc:	52801101 	mov	w1, #0x88                  	// #136
  9237d0:	b9000001 	str	w1, [x0]
  9237d4:	d2800081 	mov	x1, #0x4                   	// #4
  9237d8:	f2a7a801 	movk	x1, #0x3d40, lsl #16
  9237dc:	b9400020 	ldr	w0, [x1]
  9237e0:	12000800 	and	w0, w0, #0x7
  9237e4:	7100041f 	cmp	w0, #0x1
  9237e8:	54ffffa1 	b.ne	9237dc <lpddr4_exit_retention+0x1e4>  // b.any
  9237ec:	d2800401 	mov	x1, #0x20                  	// #32
  9237f0:	f9400bf3 	ldr	x19, [sp, #16]
  9237f4:	f2a7a801 	movk	x1, #0x3d40, lsl #16
  9237f8:	52806042 	mov	w2, #0x302                 	// #770
  9237fc:	b9000022 	str	w2, [x1]
  923800:	d2801402 	mov	x2, #0xa0                  	// #160
  923804:	b9047020 	str	w0, [x1, #1136]
  923808:	d2800c01 	mov	x1, #0x60                  	// #96
  92380c:	f2a7a801 	movk	x1, #0x3d40, lsl #16
  923810:	f2a78482 	movk	x2, #0x3c24, lsl #16
  923814:	b900003f 	str	wzr, [x1]
  923818:	d2a78681 	mov	x1, #0x3c340000            	// #1010040832
  92381c:	b900003f 	str	wzr, [x1]
  923820:	b9400042 	ldr	w2, [x2]
  923824:	b9000020 	str	w0, [x1]
  923828:	a8c27bfd 	ldp	x29, x30, [sp], #32
  92382c:	d65f03c0 	ret

0000000000923830 <ddr4_enter_retention>:
  923830:	d2806102 	mov	x2, #0x308                 	// #776
  923834:	a9be7bfd 	stp	x29, x30, [sp, #-32]!
  923838:	f2a7a802 	movk	x2, #0x3d40, lsl #16
  92383c:	52a6c000 	mov	w0, #0x36000000            	// #905969664
  923840:	910003fd 	mov	x29, sp
  923844:	b9400041 	ldr	w1, [x2]
  923848:	b9001fa1 	str	w1, [x29, #28]
  92384c:	b9401fa1 	ldr	w1, [x29, #28]
  923850:	6b00003f 	cmp	w1, w0
  923854:	54ffff81 	b.ne	923844 <ddr4_enter_retention+0x14>  // b.any
  923858:	d2809200 	mov	x0, #0x490                 	// #1168
  92385c:	d2807f81 	mov	x1, #0x3fc                 	// #1020
  923860:	f2a7a800 	movk	x0, #0x3d40, lsl #16
  923864:	f2a7a801 	movk	x1, #0x3d40, lsl #16
  923868:	b900001f 	str	wzr, [x0]
  92386c:	b9400020 	ldr	w0, [x1]
  923870:	b9001fa0 	str	w0, [x29, #28]
  923874:	b9401fa0 	ldr	w0, [x29, #28]
  923878:	7200801f 	tst	w0, #0x10001
  92387c:	54ffff81 	b.ne	92386c <ddr4_enter_retention+0x3c>  // b.any
  923880:	d2800600 	mov	x0, #0x30                  	// #48
  923884:	52801541 	mov	w1, #0xaa                  	// #170
  923888:	f2a7a800 	movk	x0, #0x3d40, lsl #16
  92388c:	b9000001 	str	w1, [x0]
  923890:	d2800081 	mov	x1, #0x4                   	// #4
  923894:	f2a7a801 	movk	x1, #0x3d40, lsl #16
  923898:	b9001fbf 	str	wzr, [x29, #28]
  92389c:	b9401fa0 	ldr	w0, [x29, #28]
  9238a0:	71008c1f 	cmp	w0, #0x23
  9238a4:	540009a1 	b.ne	9239d8 <ddr4_enter_retention+0x1a8>  // b.any
  9238a8:	d2803600 	mov	x0, #0x1b0                 	// #432
  9238ac:	d2806401 	mov	x1, #0x320                 	// #800
  9238b0:	f2a7a800 	movk	x0, #0x3d40, lsl #16
  9238b4:	f2a7a801 	movk	x1, #0x3d40, lsl #16
  9238b8:	b900001f 	str	wzr, [x0]
  9238bc:	b900003f 	str	wzr, [x1]
  9238c0:	5283e001 	mov	w1, #0x1f00                	// #7936
  9238c4:	b9000001 	str	w1, [x0]
  9238c8:	5283e401 	mov	w1, #0x1f20                	// #7968
  9238cc:	b9000001 	str	w1, [x0]
  9238d0:	d2803781 	mov	x1, #0x1bc                 	// #444
  9238d4:	f2a7a801 	movk	x1, #0x3d40, lsl #16
  9238d8:	aa0103e2 	mov	x2, x1
  9238dc:	b9400023 	ldr	w3, [x1]
  9238e0:	3707ffe3 	tbnz	w3, #0, 9238dc <ddr4_enter_retention+0xac>
  9238e4:	5283e001 	mov	w1, #0x1f00                	// #7936
  9238e8:	b9000001 	str	w1, [x0]
  9238ec:	b9400040 	ldr	w0, [x2]
  9238f0:	3607ffe0 	tbz	w0, #0, 9238ec <ddr4_enter_retention+0xbc>
  9238f4:	d2806400 	mov	x0, #0x320                 	// #800
  9238f8:	52800021 	mov	w1, #0x1                   	// #1
  9238fc:	f2a7a800 	movk	x0, #0x3d40, lsl #16
  923900:	b9000001 	str	w1, [x0]
  923904:	d2a78680 	mov	x0, #0x3c340000            	// #1010040832
  923908:	b900001f 	str	wzr, [x0]
  92390c:	d2801400 	mov	x0, #0xa0                  	// #160
  923910:	f2a78480 	movk	x0, #0x3c24, lsl #16
  923914:	b9400000 	ldr	w0, [x0]
  923918:	b9001fa0 	str	w0, [x29, #28]
  92391c:	b9401fa0 	ldr	w0, [x29, #28]
  923920:	0a010000 	and	w0, w0, w1
  923924:	b9001fa0 	str	w0, [x29, #28]
  923928:	b9401fa0 	ldr	w0, [x29, #28]
  92392c:	340005e0 	cbz	w0, 9239e8 <ddr4_enter_retention+0x1b8>
  923930:	b0000020 	adrp	x0, 928000 <unsigned_num_print+0x1c>
  923934:	911c4000 	add	x0, x0, #0x710
  923938:	940012db 	bl	9284a4 <printf>
  92393c:	d2a78680 	mov	x0, #0x3c340000            	// #1010040832
  923940:	52800021 	mov	w1, #0x1                   	// #1
  923944:	b9000001 	str	w1, [x0]
  923948:	d2803f80 	mov	x0, #0x1fc                 	// #508
  92394c:	f2a60740 	movk	x0, #0x303a, lsl #16
  923950:	b9400001 	ldr	w1, [x0]
  923954:	121d7821 	and	w1, w1, #0xfffffffb
  923958:	b9000001 	str	w1, [x0]
  92395c:	b9400001 	ldr	w1, [x0]
  923960:	b9001fa1 	str	w1, [x29, #28]
  923964:	b9401fa1 	ldr	w1, [x29, #28]
  923968:	37a7ffa1 	tbnz	w1, #20, 92395c <ddr4_enter_retention+0x12c>
  92396c:	b9400001 	ldr	w1, [x0]
  923970:	321e0021 	orr	w1, w1, #0x4
  923974:	b9000001 	str	w1, [x0]
  923978:	d2820000 	mov	x0, #0x1000                	// #4096
  92397c:	52800101 	mov	w1, #0x8                   	// #8
  923980:	f2a60720 	movk	x0, #0x3039, lsl #16
  923984:	72b1e001 	movk	w1, #0x8f00, lsl #16
  923988:	b9000001 	str	w1, [x0]
  92398c:	d2880a00 	mov	x0, #0x4050                	// #16464
  923990:	f2a60700 	movk	x0, #0x3038, lsl #16
  923994:	52800041 	mov	w1, #0x2                   	// #2
  923998:	b900001f 	str	wzr, [x0]
  92399c:	d2811e00 	mov	x0, #0x8f0                 	// #2288
  9239a0:	f2a60700 	movk	x0, #0x3038, lsl #16
  9239a4:	b9000001 	str	w1, [x0]
  9239a8:	d281a801 	mov	x1, #0xd40                 	// #3392
  9239ac:	f2a60741 	movk	x1, #0x303a, lsl #16
  9239b0:	b9400020 	ldr	w0, [x1]
  9239b4:	32000000 	orr	w0, w0, #0x1
  9239b8:	b9000020 	str	w0, [x1]
  9239bc:	d2802081 	mov	x1, #0x104                 	// #260
  9239c0:	f2a60741 	movk	x1, #0x303a, lsl #16
  9239c4:	b9400020 	ldr	w0, [x1]
  9239c8:	321b0000 	orr	w0, w0, #0x20
  9239cc:	b9000020 	str	w0, [x1]
  9239d0:	a8c27bfd 	ldp	x29, x30, [sp], #32
  9239d4:	d65f03c0 	ret
  9239d8:	b9400020 	ldr	w0, [x1]
  9239dc:	12001400 	and	w0, w0, #0x3f
  9239e0:	b9001fa0 	str	w0, [x29, #28]
  9239e4:	17ffffae 	b	92389c <ddr4_enter_retention+0x6c>
  9239e8:	b0000020 	adrp	x0, 928000 <unsigned_num_print+0x1c>
  9239ec:	911c8400 	add	x0, x0, #0x721
  9239f0:	17ffffd2 	b	923938 <ddr4_enter_retention+0x108>

00000000009239f4 <ddr4_exit_retention>:
  9239f4:	a9bd7bfd 	stp	x29, x30, [sp, #-48]!
  9239f8:	910003fd 	mov	x29, sp
  9239fc:	f9000bf3 	str	x19, [sp, #16]
  923a00:	b9002fbf 	str	wzr, [x29, #44]
  923a04:	b9402fa0 	ldr	w0, [x29, #44]
  923a08:	71004c1f 	cmp	w0, #0x13
  923a0c:	54001189 	b.ls	923c3c <ddr4_exit_retention+0x248>  // b.plast
  923a10:	d2820013 	mov	x19, #0x1000                	// #4096
  923a14:	528007e0 	mov	w0, #0x3f                  	// #63
  923a18:	f2a60733 	movk	x19, #0x3039, lsl #16
  923a1c:	72b1e000 	movk	w0, #0x8f00, lsl #16
  923a20:	d2880a01 	mov	x1, #0x4050                	// #16464
  923a24:	b9000260 	str	w0, [x19]
  923a28:	f2a60701 	movk	x1, #0x3038, lsl #16
  923a2c:	528001e0 	mov	w0, #0xf                   	// #15
  923a30:	72b1e000 	movk	w0, #0x8f00, lsl #16
  923a34:	b9000260 	str	w0, [x19]
  923a38:	52800040 	mov	w0, #0x2                   	// #2
  923a3c:	b9000020 	str	w0, [x1]
  923a40:	d2811e01 	mov	x1, #0x8f0                 	// #2288
  923a44:	f2a60701 	movk	x1, #0x3038, lsl #16
  923a48:	b9000020 	str	w0, [x1]
  923a4c:	b0000020 	adrp	x0, 928000 <unsigned_num_print+0x1c>
  923a50:	911ca800 	add	x0, x0, #0x72a
  923a54:	94001294 	bl	9284a4 <printf>
  923a58:	d2801d80 	mov	x0, #0xec                  	// #236
  923a5c:	529fffe1 	mov	w1, #0xffff                	// #65535
  923a60:	f2a60740 	movk	x0, #0x303a, lsl #16
  923a64:	b9000001 	str	w1, [x0]
  923a68:	d2801f01 	mov	x1, #0xf8                  	// #248
  923a6c:	f2a60741 	movk	x1, #0x303a, lsl #16
  923a70:	b9400020 	ldr	w0, [x1]
  923a74:	321b0000 	orr	w0, w0, #0x20
  923a78:	b9000020 	str	w0, [x1]
  923a7c:	528000c0 	mov	w0, #0x6                   	// #6
  923a80:	d2800a01 	mov	x1, #0x50                  	// #80
  923a84:	72b1e000 	movk	w0, #0x8f00, lsl #16
  923a88:	f2a606c1 	movk	x1, #0x3036, lsl #16
  923a8c:	b9000260 	str	w0, [x19]
  923a90:	b9400020 	ldr	w0, [x1]
  923a94:	36ffffe0 	tbz	w0, #31, 923a90 <ddr4_exit_retention+0x9c>
  923a98:	d2806081 	mov	x1, #0x304                 	// #772
  923a9c:	52800020 	mov	w0, #0x1                   	// #1
  923aa0:	f2a7a801 	movk	x1, #0x3d40, lsl #16
  923aa4:	b9000020 	str	w0, [x1]
  923aa8:	d2800601 	mov	x1, #0x30                  	// #48
  923aac:	f2a7a801 	movk	x1, #0x3d40, lsl #16
  923ab0:	b9000020 	str	w0, [x1]
  923ab4:	d2800081 	mov	x1, #0x4                   	// #4
  923ab8:	f2a7a801 	movk	x1, #0x3d40, lsl #16
  923abc:	b9400020 	ldr	w0, [x1]
  923ac0:	f240081f 	tst	x0, #0x7
  923ac4:	54ffffc1 	b.ne	923abc <ddr4_exit_retention+0xc8>  // b.any
  923ac8:	97fffd64 	bl	923058 <dram_umctl2_init>
  923acc:	d2801a01 	mov	x1, #0xd0                  	// #208
  923ad0:	f2a7a801 	movk	x1, #0x3d40, lsl #16
  923ad4:	b9400020 	ldr	w0, [x1]
  923ad8:	32020400 	orr	w0, w0, #0xc0000000
  923adc:	b9000020 	str	w0, [x1]
  923ae0:	d2800500 	mov	x0, #0x28                  	// #40
  923ae4:	52803501 	mov	w1, #0x1a8                 	// #424
  923ae8:	f2a7a800 	movk	x0, #0x3d40, lsl #16
  923aec:	b900001f 	str	wzr, [x0]
  923af0:	b9000801 	str	w1, [x0, #8]
  923af4:	d2803601 	mov	x1, #0x1b0                 	// #432
  923af8:	f2a7a801 	movk	x1, #0x3d40, lsl #16
  923afc:	b9400020 	ldr	w0, [x1]
  923b00:	121f7800 	and	w0, w0, #0xfffffffe
  923b04:	b9000020 	str	w0, [x1]
  923b08:	d2820000 	mov	x0, #0x1000                	// #4096
  923b0c:	52800081 	mov	w1, #0x4                   	// #4
  923b10:	f2a60720 	movk	x0, #0x3039, lsl #16
  923b14:	72b1e001 	movk	w1, #0x8f00, lsl #16
  923b18:	b9000001 	str	w1, [x0]
  923b1c:	52b1e001 	mov	w1, #0x8f000000            	// #-1895825408
  923b20:	b9000001 	str	w1, [x0]
  923b24:	d2806080 	mov	x0, #0x304                 	// #772
  923b28:	f2a7a800 	movk	x0, #0x3d40, lsl #16
  923b2c:	b900001f 	str	wzr, [x0]
  923b30:	97fffd5a 	bl	923098 <dram_phy_init>
  923b34:	d2804b81 	mov	x1, #0x25c                 	// #604
  923b38:	f2a78101 	movk	x1, #0x3c08, lsl #16
  923b3c:	b9400020 	ldr	w0, [x1]
  923b40:	b9002ba0 	str	w0, [x29, #40]
  923b44:	b9402ba0 	ldr	w0, [x29, #40]
  923b48:	35ffffa0 	cbnz	w0, 923b3c <ddr4_exit_retention+0x148>
  923b4c:	d2806400 	mov	x0, #0x320                 	// #800
  923b50:	d2803782 	mov	x2, #0x1bc                 	// #444
  923b54:	f2a7a800 	movk	x0, #0x3d40, lsl #16
  923b58:	52800401 	mov	w1, #0x20                  	// #32
  923b5c:	f2a7a802 	movk	x2, #0x3d40, lsl #16
  923b60:	b900001f 	str	wzr, [x0]
  923b64:	d2803600 	mov	x0, #0x1b0                 	// #432
  923b68:	f2a7a800 	movk	x0, #0x3d40, lsl #16
  923b6c:	b9000001 	str	w1, [x0]
  923b70:	b9400041 	ldr	w1, [x2]
  923b74:	3607ffe1 	tbz	w1, #0, 923b70 <ddr4_exit_retention+0x17c>
  923b78:	b900001f 	str	wzr, [x0]
  923b7c:	b9400001 	ldr	w1, [x0]
  923b80:	32000021 	orr	w1, w1, #0x1
  923b84:	b9000001 	str	w1, [x0]
  923b88:	d2800601 	mov	x1, #0x30                  	// #48
  923b8c:	f2a7a801 	movk	x1, #0x3d40, lsl #16
  923b90:	b9400020 	ldr	w0, [x1]
  923b94:	121a7800 	and	w0, w0, #0xffffffdf
  923b98:	b9000020 	str	w0, [x1]
  923b9c:	d2806400 	mov	x0, #0x320                 	// #800
  923ba0:	52800021 	mov	w1, #0x1                   	// #1
  923ba4:	f2a7a800 	movk	x0, #0x3d40, lsl #16
  923ba8:	b9000001 	str	w1, [x0]
  923bac:	d2806481 	mov	x1, #0x324                 	// #804
  923bb0:	f2a7a801 	movk	x1, #0x3d40, lsl #16
  923bb4:	b9400020 	ldr	w0, [x1]
  923bb8:	3607ffe0 	tbz	w0, #0, 923bb4 <ddr4_exit_retention+0x1c0>
  923bbc:	d2800081 	mov	x1, #0x4                   	// #4
  923bc0:	f2a7a801 	movk	x1, #0x3d40, lsl #16
  923bc4:	b9400020 	ldr	w0, [x1]
  923bc8:	12000800 	and	w0, w0, #0x7
  923bcc:	7100041f 	cmp	w0, #0x1
  923bd0:	54ffffa1 	b.ne	923bc4 <ddr4_exit_retention+0x1d0>  // b.any
  923bd4:	d2809201 	mov	x1, #0x490                 	// #1168
  923bd8:	f2a7a801 	movk	x1, #0x3d40, lsl #16
  923bdc:	b9000020 	str	w0, [x1]
  923be0:	d2800c00 	mov	x0, #0x60                  	// #96
  923be4:	f2a7a800 	movk	x0, #0x3d40, lsl #16
  923be8:	b900001f 	str	wzr, [x0]
  923bec:	d2a78680 	mov	x0, #0x3c340000            	// #1010040832
  923bf0:	b900001f 	str	wzr, [x0]
  923bf4:	d2801400 	mov	x0, #0xa0                  	// #160
  923bf8:	f2a78480 	movk	x0, #0x3c24, lsl #16
  923bfc:	b9400000 	ldr	w0, [x0]
  923c00:	b90027a0 	str	w0, [x29, #36]
  923c04:	b94027a0 	ldr	w0, [x29, #36]
  923c08:	12000000 	and	w0, w0, #0x1
  923c0c:	b90027a0 	str	w0, [x29, #36]
  923c10:	b94027a0 	ldr	w0, [x29, #36]
  923c14:	350001c0 	cbnz	w0, 923c4c <ddr4_exit_retention+0x258>
  923c18:	b0000020 	adrp	x0, 928000 <unsigned_num_print+0x1c>
  923c1c:	911d1800 	add	x0, x0, #0x746
  923c20:	94001221 	bl	9284a4 <printf>
  923c24:	f9400bf3 	ldr	x19, [sp, #16]
  923c28:	d2a78680 	mov	x0, #0x3c340000            	// #1010040832
  923c2c:	52800021 	mov	w1, #0x1                   	// #1
  923c30:	b9000001 	str	w1, [x0]
  923c34:	a8c37bfd 	ldp	x29, x30, [sp], #48
  923c38:	d65f03c0 	ret
  923c3c:	b9402fa0 	ldr	w0, [x29, #44]
  923c40:	11000400 	add	w0, w0, #0x1
  923c44:	b9002fa0 	str	w0, [x29, #44]
  923c48:	17ffff6f 	b	923a04 <ddr4_exit_retention+0x10>
  923c4c:	b0000020 	adrp	x0, 928000 <unsigned_num_print+0x1c>
  923c50:	911c8400 	add	x0, x0, #0x721
  923c54:	17fffff3 	b	923c20 <ddr4_exit_retention+0x22c>

0000000000923c58 <lpddr4_mr_write>:
  923c58:	d2800304 	mov	x4, #0x18                  	// #24
  923c5c:	f2a7a804 	movk	x4, #0x3d40, lsl #16
  923c60:	b9400083 	ldr	w3, [x4]
  923c64:	3707ffe3 	tbnz	w3, #0, 923c60 <lpddr4_mr_write+0x8>
  923c68:	d2800203 	mov	x3, #0x10                  	// #16
  923c6c:	531c6c00 	lsl	w0, w0, #4
  923c70:	f2a7a803 	movk	x3, #0x3d40, lsl #16
  923c74:	2a012041 	orr	w1, w2, w1, lsl #8
  923c78:	b9000060 	str	w0, [x3]
  923c7c:	d2800280 	mov	x0, #0x14                  	// #20
  923c80:	f2a7a800 	movk	x0, #0x3d40, lsl #16
  923c84:	b9000001 	str	w1, [x0]
  923c88:	b9400060 	ldr	w0, [x3]
  923c8c:	32010000 	orr	w0, w0, #0x80000000
  923c90:	b9000060 	str	w0, [x3]
  923c94:	d65f03c0 	ret

0000000000923c98 <lpddr4_swffc>:
  923c98:	a9ba7bfd 	stp	x29, x30, [sp, #-96]!
  923c9c:	910003fd 	mov	x29, sp
  923ca0:	a90153f3 	stp	x19, x20, [sp, #16]
  923ca4:	2a0103f3 	mov	w19, w1
  923ca8:	a9025bf5 	stp	x21, x22, [sp, #32]
  923cac:	2a0203f5 	mov	w21, w2
  923cb0:	a90363f7 	stp	x23, x24, [sp, #48]
  923cb4:	a9046bf9 	stp	x25, x26, [sp, #64]
  923cb8:	a90573fb 	stp	x27, x28, [sp, #80]
  923cbc:	35002462 	cbnz	w2, 924148 <lpddr4_swffc+0x4b0>
  923cc0:	d2801b80 	mov	x0, #0xdc                  	// #220
  923cc4:	d2801d01 	mov	x1, #0xe8                  	// #232
  923cc8:	f2a7a800 	movk	x0, #0x3d40, lsl #16
  923ccc:	91001000 	add	x0, x0, #0x4
  923cd0:	b85fc01c 	ldur	w28, [x0, #-4]
  923cd4:	b85fc01b 	ldur	w27, [x0, #-4]
  923cd8:	b940001a 	ldr	w26, [x0]
  923cdc:	b9400000 	ldr	w0, [x0]
  923ce0:	53107f9c 	lsr	w28, w28, #16
  923ce4:	12003f7b 	and	w27, w27, #0xffff
  923ce8:	53107f5a 	lsr	w26, w26, #16
  923cec:	12003c00 	and	w0, w0, #0xffff
  923cf0:	f2a7a801 	movk	x1, #0x3d40, lsl #16
  923cf4:	7100067f 	cmp	w19, #0x1
  923cf8:	52801014 	mov	w20, #0x80                  	// #128
  923cfc:	12001400 	and	w0, w0, #0x3f
  923d00:	b9400039 	ldr	w25, [x1]
  923d04:	5281a002 	mov	w2, #0xd00                 	// #3328
  923d08:	b9400038 	ldr	w24, [x1]
  923d0c:	b9400437 	ldr	w23, [x1, #4]
  923d10:	b9400436 	ldr	w22, [x1, #4]
  923d14:	52800801 	mov	w1, #0x40                  	// #64
  923d18:	1a810294 	csel	w20, w20, w1, eq  // eq = none
  923d1c:	d2800601 	mov	x1, #0x30                  	// #48
  923d20:	f2a7a801 	movk	x1, #0x3d40, lsl #16
  923d24:	2a140014 	orr	w20, w0, w20
  923d28:	2a020282 	orr	w2, w20, w2
  923d2c:	53107f39 	lsr	w25, w25, #16
  923d30:	b9400020 	ldr	w0, [x1]
  923d34:	12003f18 	and	w24, w24, #0xffff
  923d38:	12003ed6 	and	w22, w22, #0xffff
  923d3c:	53107ef7 	lsr	w23, w23, #16
  923d40:	121c6c00 	and	w0, w0, #0xfffffff0
  923d44:	b9000020 	str	w0, [x1]
  923d48:	d2803880 	mov	x0, #0x1c4                 	// #452
  923d4c:	528001a1 	mov	w1, #0xd                   	// #13
  923d50:	f2a7a800 	movk	x0, #0x3d40, lsl #16
  923d54:	b900001f 	str	wzr, [x0]
  923d58:	52800060 	mov	w0, #0x3                   	// #3
  923d5c:	97ffffbf 	bl	923c58 <lpddr4_mr_write>
  923d60:	2a1c03e2 	mov	w2, w28
  923d64:	52800021 	mov	w1, #0x1                   	// #1
  923d68:	52800060 	mov	w0, #0x3                   	// #3
  923d6c:	97ffffbb 	bl	923c58 <lpddr4_mr_write>
  923d70:	2a1b03e2 	mov	w2, w27
  923d74:	52800041 	mov	w1, #0x2                   	// #2
  923d78:	52800060 	mov	w0, #0x3                   	// #3
  923d7c:	97ffffb7 	bl	923c58 <lpddr4_mr_write>
  923d80:	52800061 	mov	w1, #0x3                   	// #3
  923d84:	2a1a03e2 	mov	w2, w26
  923d88:	2a0103e0 	mov	w0, w1
  923d8c:	97ffffb3 	bl	923c58 <lpddr4_mr_write>
  923d90:	2a1903e2 	mov	w2, w25
  923d94:	52800161 	mov	w1, #0xb                   	// #11
  923d98:	52800060 	mov	w0, #0x3                   	// #3
  923d9c:	97ffffaf 	bl	923c58 <lpddr4_mr_write>
  923da0:	2a1803e2 	mov	w2, w24
  923da4:	52800181 	mov	w1, #0xc                   	// #12
  923da8:	52800060 	mov	w0, #0x3                   	// #3
  923dac:	97ffffab 	bl	923c58 <lpddr4_mr_write>
  923db0:	2a1603e2 	mov	w2, w22
  923db4:	528001c1 	mov	w1, #0xe                   	// #14
  923db8:	52800060 	mov	w0, #0x3                   	// #3
  923dbc:	97ffffa7 	bl	923c58 <lpddr4_mr_write>
  923dc0:	528002c1 	mov	w1, #0x16                  	// #22
  923dc4:	2a1703e2 	mov	w2, w23
  923dc8:	52800060 	mov	w0, #0x3                   	// #3
  923dcc:	97ffffa3 	bl	923c58 <lpddr4_mr_write>
  923dd0:	d2800301 	mov	x1, #0x18                  	// #24
  923dd4:	f2a7a801 	movk	x1, #0x3d40, lsl #16
  923dd8:	b9400020 	ldr	w0, [x1]
  923ddc:	3707ffe0 	tbnz	w0, #0, 923dd8 <lpddr4_swffc+0x140>
  923de0:	d2809200 	mov	x0, #0x490                 	// #1168
  923de4:	d2807f81 	mov	x1, #0x3fc                 	// #1020
  923de8:	f2a7a800 	movk	x0, #0x3d40, lsl #16
  923dec:	f2a7a801 	movk	x1, #0x3d40, lsl #16
  923df0:	b900001f 	str	wzr, [x0]
  923df4:	b9400020 	ldr	w0, [x1]
  923df8:	35ffffe0 	cbnz	w0, 923df4 <lpddr4_swffc+0x15c>
  923dfc:	d2800081 	mov	x1, #0x4                   	// #4
  923e00:	f2a7a801 	movk	x1, #0x3d40, lsl #16
  923e04:	b9400020 	ldr	w0, [x1]
  923e08:	12000800 	and	w0, w0, #0x7
  923e0c:	51000400 	sub	w0, w0, #0x1
  923e10:	7100041f 	cmp	w0, #0x1
  923e14:	54ffff88 	b.hi	923e04 <lpddr4_swffc+0x16c>  // b.pmore
  923e18:	d2800401 	mov	x1, #0x20                  	// #32
  923e1c:	d2800082 	mov	x2, #0x4                   	// #4
  923e20:	f2a7a801 	movk	x1, #0x3d40, lsl #16
  923e24:	f2a7a802 	movk	x2, #0x3d40, lsl #16
  923e28:	aa0203e3 	mov	x3, x2
  923e2c:	b9400020 	ldr	w0, [x1]
  923e30:	121f7800 	and	w0, w0, #0xfffffffe
  923e34:	b9000020 	str	w0, [x1]
  923e38:	b9600020 	ldr	w0, [x1, #8192]
  923e3c:	121f7800 	and	w0, w0, #0xfffffffe
  923e40:	b9200020 	str	w0, [x1, #8192]
  923e44:	b9700020 	ldr	w0, [x1, #12288]
  923e48:	121f7800 	and	w0, w0, #0xfffffffe
  923e4c:	b9300020 	str	w0, [x1, #12288]
  923e50:	d2803001 	mov	x1, #0x180                 	// #384
  923e54:	f2a7a801 	movk	x1, #0x3d40, lsl #16
  923e58:	b9400020 	ldr	w0, [x1]
  923e5c:	32010000 	orr	w0, w0, #0x80000000
  923e60:	b9000020 	str	w0, [x1]
  923e64:	b9600020 	ldr	w0, [x1, #8192]
  923e68:	32010000 	orr	w0, w0, #0x80000000
  923e6c:	b9200020 	str	w0, [x1, #8192]
  923e70:	b9700020 	ldr	w0, [x1, #12288]
  923e74:	32010000 	orr	w0, w0, #0x80000000
  923e78:	b9300020 	str	w0, [x1, #12288]
  923e7c:	d2800600 	mov	x0, #0x30                  	// #48
  923e80:	f2a7a800 	movk	x0, #0x3d40, lsl #16
  923e84:	b9400001 	ldr	w1, [x0]
  923e88:	121f7821 	and	w1, w1, #0xfffffffe
  923e8c:	b9000001 	str	w1, [x0]
  923e90:	b9400041 	ldr	w1, [x2]
  923e94:	12000821 	and	w1, w1, #0x7
  923e98:	51000421 	sub	w1, w1, #0x1
  923e9c:	7100043f 	cmp	w1, #0x1
  923ea0:	54ffff88 	b.hi	923e90 <lpddr4_swffc+0x1f8>  // b.pmore
  923ea4:	b9400001 	ldr	w1, [x0]
  923ea8:	321b0421 	orr	w1, w1, #0x60
  923eac:	b9000001 	str	w1, [x0]
  923eb0:	b9400060 	ldr	w0, [x3]
  923eb4:	12180400 	and	w0, w0, #0x300
  923eb8:	7104001f 	cmp	w0, #0x100
  923ebc:	54ffffa1 	b.ne	923eb0 <lpddr4_swffc+0x218>  // b.any
  923ec0:	d2806081 	mov	x1, #0x304                 	// #772
  923ec4:	d2806102 	mov	x2, #0x308                 	// #776
  923ec8:	f2a7a801 	movk	x1, #0x3d40, lsl #16
  923ecc:	f2a7a802 	movk	x2, #0x3d40, lsl #16
  923ed0:	b9400020 	ldr	w0, [x1]
  923ed4:	32000000 	orr	w0, w0, #0x1
  923ed8:	b9000020 	str	w0, [x1]
  923edc:	52a60001 	mov	w1, #0x30000000            	// #805306368
  923ee0:	b9400040 	ldr	w0, [x2]
  923ee4:	12040400 	and	w0, w0, #0x30000000
  923ee8:	6b01001f 	cmp	w0, w1
  923eec:	54ffffa1 	b.ne	923ee0 <lpddr4_swffc+0x248>  // b.any
  923ef0:	f240027f 	tst	x19, #0x1
  923ef4:	52801113 	mov	w19, #0x88                  	// #136
  923ef8:	52800102 	mov	w2, #0x8                   	// #8
  923efc:	1a820262 	csel	w2, w19, w2, eq  // eq = none
  923f00:	52800ef3 	mov	w19, #0x77                  	// #119
  923f04:	0a130293 	and	w19, w20, w19
  923f08:	2a020273 	orr	w19, w19, w2
  923f0c:	528001a1 	mov	w1, #0xd                   	// #13
  923f10:	52800060 	mov	w0, #0x3                   	// #3
  923f14:	5281a002 	mov	w2, #0xd00                 	// #3328
  923f18:	2a020262 	orr	w2, w19, w2
  923f1c:	97ffff4f 	bl	923c58 <lpddr4_mr_write>
  923f20:	d2800601 	mov	x1, #0x30                  	// #48
  923f24:	f2a7a801 	movk	x1, #0x3d40, lsl #16
  923f28:	b9400020 	ldr	w0, [x1]
  923f2c:	12197400 	and	w0, w0, #0xffffff9f
  923f30:	321b0000 	orr	w0, w0, #0x20
  923f34:	b9000020 	str	w0, [x1]
  923f38:	d2800081 	mov	x1, #0x4                   	// #4
  923f3c:	f2a7a801 	movk	x1, #0x3d40, lsl #16
  923f40:	b9400020 	ldr	w0, [x1]
  923f44:	12180400 	and	w0, w0, #0x300
  923f48:	7108001f 	cmp	w0, #0x200
  923f4c:	54ffffa1 	b.ne	923f40 <lpddr4_swffc+0x2a8>  // b.any
  923f50:	d2806400 	mov	x0, #0x320                 	// #800
  923f54:	d2800c01 	mov	x1, #0x60                  	// #96
  923f58:	f2a7a800 	movk	x0, #0x3d40, lsl #16
  923f5c:	f2a7a801 	movk	x1, #0x3d40, lsl #16
  923f60:	b900001f 	str	wzr, [x0]
  923f64:	d2800500 	mov	x0, #0x28                  	// #40
  923f68:	f2a7a800 	movk	x0, #0x3d40, lsl #16
  923f6c:	b9000015 	str	w21, [x0]
  923f70:	b9400020 	ldr	w0, [x1]
  923f74:	521f0000 	eor	w0, w0, #0x2
  923f78:	b9000020 	str	w0, [x1]
  923f7c:	91054021 	add	x1, x1, #0x150
  923f80:	b9400020 	ldr	w0, [x1]
  923f84:	121f1800 	and	w0, w0, #0xfe
  923f88:	2a152000 	orr	w0, w0, w21, lsl #8
  923f8c:	b9000020 	str	w0, [x1]
  923f90:	321b0000 	orr	w0, w0, #0x20
  923f94:	b9000020 	str	w0, [x1]
  923f98:	d2803780 	mov	x0, #0x1bc                 	// #444
  923f9c:	aa0103f4 	mov	x20, x1
  923fa0:	f2a7a800 	movk	x0, #0x3d40, lsl #16
  923fa4:	aa0003f6 	mov	x22, x0
  923fa8:	b9400001 	ldr	w1, [x0]
  923fac:	3707ffe1 	tbnz	w1, #0, 923fa8 <lpddr4_swffc+0x310>
  923fb0:	2a1503e0 	mov	w0, w21
  923fb4:	97fffd39 	bl	923498 <dram_clock_switch>
  923fb8:	b9400280 	ldr	w0, [x20]
  923fbc:	121a7800 	and	w0, w0, #0xffffffdf
  923fc0:	b9000280 	str	w0, [x20]
  923fc4:	b94002c0 	ldr	w0, [x22]
  923fc8:	3607ffe0 	tbz	w0, #0, 923fc4 <lpddr4_swffc+0x32c>
  923fcc:	35000f75 	cbnz	w21, 9241b8 <lpddr4_swffc+0x520>
  923fd0:	d2803001 	mov	x1, #0x180                 	// #384
  923fd4:	f2a7a801 	movk	x1, #0x3d40, lsl #16
  923fd8:	b9400020 	ldr	w0, [x1]
  923fdc:	32020000 	orr	w0, w0, #0x40000000
  923fe0:	b9000020 	str	w0, [x1]
  923fe4:	d2800601 	mov	x1, #0x30                  	// #48
  923fe8:	f2a7a801 	movk	x1, #0x3d40, lsl #16
  923fec:	b9400020 	ldr	w0, [x1]
  923ff0:	12197400 	and	w0, w0, #0xffffff9f
  923ff4:	321a0000 	orr	w0, w0, #0x40
  923ff8:	b9000020 	str	w0, [x1]
  923ffc:	d2800081 	mov	x1, #0x4                   	// #4
  924000:	f2a7a801 	movk	x1, #0x3d40, lsl #16
  924004:	b9400020 	ldr	w0, [x1]
  924008:	12180400 	and	w0, w0, #0x300
  92400c:	710c001f 	cmp	w0, #0x300
  924010:	54ffffa1 	b.ne	924004 <lpddr4_swffc+0x36c>  // b.any
  924014:	52801ee2 	mov	w2, #0xf7                  	// #247
  924018:	0a020273 	and	w19, w19, w2
  92401c:	528001a1 	mov	w1, #0xd                   	// #13
  924020:	52800060 	mov	w0, #0x3                   	// #3
  924024:	5281a002 	mov	w2, #0xd00                 	// #3328
  924028:	2a020262 	orr	w2, w19, w2
  92402c:	97ffff0b 	bl	923c58 <lpddr4_mr_write>
  924030:	d2803880 	mov	x0, #0x1c4                 	// #452
  924034:	52800021 	mov	w1, #0x1                   	// #1
  924038:	f2a7a800 	movk	x0, #0x3d40, lsl #16
  92403c:	b9000001 	str	w1, [x0]
  924040:	d2806181 	mov	x1, #0x30c                 	// #780
  924044:	f2a7a801 	movk	x1, #0x3d40, lsl #16
  924048:	91001021 	add	x1, x1, #0x4
  92404c:	b85fc020 	ldur	w0, [x1, #-4]
  924050:	321c0000 	orr	w0, w0, #0x10
  924054:	b81fc020 	stur	w0, [x1, #-4]
  924058:	b9400020 	ldr	w0, [x1]
  92405c:	3727ffe0 	tbnz	w0, #4, 924058 <lpddr4_swffc+0x3c0>
  924060:	710006bf 	cmp	w21, #0x1
  924064:	54000b61 	b.ne	9241d0 <lpddr4_swffc+0x538>  // b.any
  924068:	d2843001 	mov	x1, #0x2180                	// #8576
  92406c:	f2a7a801 	movk	x1, #0x3d40, lsl #16
  924070:	b9400020 	ldr	w0, [x1]
  924074:	12017800 	and	w0, w0, #0xbfffffff
  924078:	b9000020 	str	w0, [x1]
  92407c:	d2806400 	mov	x0, #0x320                 	// #800
  924080:	52800021 	mov	w1, #0x1                   	// #1
  924084:	f2a7a800 	movk	x0, #0x3d40, lsl #16
  924088:	b9000001 	str	w1, [x0]
  92408c:	d2806481 	mov	x1, #0x324                 	// #804
  924090:	f2a7a801 	movk	x1, #0x3d40, lsl #16
  924094:	b9400020 	ldr	w0, [x1]
  924098:	3607ffe0 	tbz	w0, #0, 924094 <lpddr4_swffc+0x3fc>
  92409c:	d2800601 	mov	x1, #0x30                  	// #48
  9240a0:	f2a7a801 	movk	x1, #0x3d40, lsl #16
  9240a4:	b9400020 	ldr	w0, [x1]
  9240a8:	12197800 	and	w0, w0, #0xffffffbf
  9240ac:	b9000020 	str	w0, [x1]
  9240b0:	d2800081 	mov	x1, #0x4                   	// #4
  9240b4:	f2a7a801 	movk	x1, #0x3d40, lsl #16
  9240b8:	b9400020 	ldr	w0, [x1]
  9240bc:	7218041f 	tst	w0, #0x300
  9240c0:	54ffffc1 	b.ne	9240b8 <lpddr4_swffc+0x420>  // b.any
  9240c4:	d2806081 	mov	x1, #0x304                 	// #772
  9240c8:	710006bf 	cmp	w21, #0x1
  9240cc:	f2a7a801 	movk	x1, #0x3d40, lsl #16
  9240d0:	b9400020 	ldr	w0, [x1]
  9240d4:	121f7800 	and	w0, w0, #0xfffffffe
  9240d8:	b9000020 	str	w0, [x1]
  9240dc:	d2800601 	mov	x1, #0x30                  	// #48
  9240e0:	f2a7a801 	movk	x1, #0x3d40, lsl #16
  9240e4:	b9400020 	ldr	w0, [x1]
  9240e8:	32000000 	orr	w0, w0, #0x1
  9240ec:	b9000020 	str	w0, [x1]
  9240f0:	540007c1 	b.ne	9241e8 <lpddr4_swffc+0x550>  // b.any
  9240f4:	d2843001 	mov	x1, #0x2180                	// #8576
  9240f8:	f2a7a801 	movk	x1, #0x3d40, lsl #16
  9240fc:	a94153f3 	ldp	x19, x20, [sp, #16]
  924100:	b9400020 	ldr	w0, [x1]
  924104:	a9425bf5 	ldp	x21, x22, [sp, #32]
  924108:	12007800 	and	w0, w0, #0x7fffffff
  92410c:	a94363f7 	ldp	x23, x24, [sp, #48]
  924110:	a9446bf9 	ldp	x25, x26, [sp, #64]
  924114:	a94573fb 	ldp	x27, x28, [sp, #80]
  924118:	b9000020 	str	w0, [x1]
  92411c:	d2800401 	mov	x1, #0x20                  	// #32
  924120:	f2a7a801 	movk	x1, #0x3d40, lsl #16
  924124:	b9400020 	ldr	w0, [x1]
  924128:	121f7800 	and	w0, w0, #0xfffffffe
  92412c:	b9000020 	str	w0, [x1]
  924130:	d2809200 	mov	x0, #0x490                 	// #1168
  924134:	52800021 	mov	w1, #0x1                   	// #1
  924138:	f2a7a800 	movk	x0, #0x3d40, lsl #16
  92413c:	b9000001 	str	w1, [x0]
  924140:	a8c67bfd 	ldp	x29, x30, [sp], #96
  924144:	d65f03c0 	ret
  924148:	7100045f 	cmp	w2, #0x1
  92414c:	540001c1 	b.ne	924184 <lpddr4_swffc+0x4ec>  // b.any
  924150:	d2841b80 	mov	x0, #0x20dc                	// #8412
  924154:	d2841d01 	mov	x1, #0x20e8                	// #8424
  924158:	f2a7a800 	movk	x0, #0x3d40, lsl #16
  92415c:	91001000 	add	x0, x0, #0x4
  924160:	b85fc01c 	ldur	w28, [x0, #-4]
  924164:	b85fc01b 	ldur	w27, [x0, #-4]
  924168:	b940001a 	ldr	w26, [x0]
  92416c:	b9400000 	ldr	w0, [x0]
  924170:	53107f9c 	lsr	w28, w28, #16
  924174:	12003f7b 	and	w27, w27, #0xffff
  924178:	53107f5a 	lsr	w26, w26, #16
  92417c:	12003c00 	and	w0, w0, #0xffff
  924180:	17fffedc 	b	923cf0 <lpddr4_swffc+0x58>
  924184:	d2861b80 	mov	x0, #0x30dc                	// #12508
  924188:	d2861d01 	mov	x1, #0x30e8                	// #12520
  92418c:	f2a7a800 	movk	x0, #0x3d40, lsl #16
  924190:	91001000 	add	x0, x0, #0x4
  924194:	b85fc01c 	ldur	w28, [x0, #-4]
  924198:	b85fc01b 	ldur	w27, [x0, #-4]
  92419c:	b940001a 	ldr	w26, [x0]
  9241a0:	b9400000 	ldr	w0, [x0]
  9241a4:	53107f9c 	lsr	w28, w28, #16
  9241a8:	12003f7b 	and	w27, w27, #0xffff
  9241ac:	53107f5a 	lsr	w26, w26, #16
  9241b0:	12003c00 	and	w0, w0, #0xffff
  9241b4:	17fffecf 	b	923cf0 <lpddr4_swffc+0x58>
  9241b8:	710006bf 	cmp	w21, #0x1
  9241bc:	54000061 	b.ne	9241c8 <lpddr4_swffc+0x530>  // b.any
  9241c0:	d2843001 	mov	x1, #0x2180                	// #8576
  9241c4:	17ffff84 	b	923fd4 <lpddr4_swffc+0x33c>
  9241c8:	d2863001 	mov	x1, #0x3180                	// #12672
  9241cc:	17ffff82 	b	923fd4 <lpddr4_swffc+0x33c>
  9241d0:	71000abf 	cmp	w21, #0x2
  9241d4:	54000061 	b.ne	9241e0 <lpddr4_swffc+0x548>  // b.any
  9241d8:	d2863001 	mov	x1, #0x3180                	// #12672
  9241dc:	17ffffa4 	b	92406c <lpddr4_swffc+0x3d4>
  9241e0:	d2803001 	mov	x1, #0x180                 	// #384
  9241e4:	17ffffa2 	b	92406c <lpddr4_swffc+0x3d4>
  9241e8:	71000abf 	cmp	w21, #0x2
  9241ec:	54000061 	b.ne	9241f8 <lpddr4_swffc+0x560>  // b.any
  9241f0:	d2863001 	mov	x1, #0x3180                	// #12672
  9241f4:	17ffffc1 	b	9240f8 <lpddr4_swffc+0x460>
  9241f8:	d2803001 	mov	x1, #0x180                 	// #384
  9241fc:	17ffffbf 	b	9240f8 <lpddr4_swffc+0x460>

0000000000924200 <ddr4_mr_write>:
  924200:	d2800305 	mov	x5, #0x18                  	// #24
  924204:	f2a7a805 	movk	x5, #0x3d40, lsl #16
  924208:	b94000a4 	ldr	w4, [x5]
  92420c:	3707ffe4 	tbnz	w4, #0, 924208 <ddr4_mr_write+0x8>
  924210:	d2801e04 	mov	x4, #0xf0                  	// #240
  924214:	f2a7a804 	movk	x4, #0x3d40, lsl #16
  924218:	b9400084 	ldr	w4, [x4]
  92421c:	360803c4 	tbz	w4, #1, 924294 <ddr4_mr_write+0x94>
  924220:	7100087f 	cmp	w3, #0x2
  924224:	54000381 	b.ne	924294 <ddr4_mr_write+0x94>  // b.any
  924228:	d3410405 	ubfx	x5, x0, #1, #1
  92422c:	531f0004 	ubfiz	w4, w0, #1, #1
  924230:	53017c26 	lsr	w6, w1, #1
  924234:	2a050084 	orr	w4, w4, w5
  924238:	121e0000 	and	w0, w0, #0x4
  92423c:	531f7825 	lsl	w5, w1, #1
  924240:	121d00c7 	and	w7, w6, #0x8
  924244:	2a000080 	orr	w0, w4, w0
  924248:	121c00a4 	and	w4, w5, #0x10
  92424c:	121b00c8 	and	w8, w6, #0x20
  924250:	2a070084 	orr	w4, w4, w7
  924254:	121a00a7 	and	w7, w5, #0x40
  924258:	121900c6 	and	w6, w6, #0x80
  92425c:	2a0800e7 	orr	w7, w7, w8
  924260:	121800a5 	and	w5, w5, #0x100
  924264:	2a070084 	orr	w4, w4, w7
  924268:	2a0600a5 	orr	w5, w5, w6
  92426c:	53027c26 	lsr	w6, w1, #2
  924270:	2a050084 	orr	w4, w4, w5
  924274:	531e7425 	lsl	w5, w1, #2
  924278:	121300a5 	and	w5, w5, #0x2000
  92427c:	121500c6 	and	w6, w6, #0x800
  924280:	2a0600a5 	orr	w5, w5, w6
  924284:	2a050084 	orr	w4, w4, w5
  924288:	5282c0e5 	mov	w5, #0x1607                	// #5639
  92428c:	0a050021 	and	w1, w1, w5
  924290:	2a010081 	orr	w1, w4, w1
  924294:	2a031043 	orr	w3, w2, w3, lsl #4
  924298:	d2800202 	mov	x2, #0x10                  	// #16
  92429c:	f2a7a802 	movk	x2, #0x3d40, lsl #16
  9242a0:	2a003060 	orr	w0, w3, w0, lsl #12
  9242a4:	b9000040 	str	w0, [x2]
  9242a8:	d2800280 	mov	x0, #0x14                  	// #20
  9242ac:	f2a7a800 	movk	x0, #0x3d40, lsl #16
  9242b0:	b9000001 	str	w1, [x0]
  9242b4:	d2800301 	mov	x1, #0x18                  	// #24
  9242b8:	f2a7a801 	movk	x1, #0x3d40, lsl #16
  9242bc:	b9400040 	ldr	w0, [x2]
  9242c0:	32010000 	orr	w0, w0, #0x80000000
  9242c4:	b9000040 	str	w0, [x2]
  9242c8:	b9400020 	ldr	w0, [x1]
  9242cc:	35ffffe0 	cbnz	w0, 9242c8 <ddr4_mr_write+0xc8>
  9242d0:	d65f03c0 	ret

00000000009242d4 <dram_cfg_all_mr>:
  9242d4:	1100040c 	add	w12, w0, #0x1
  9242d8:	5280002a 	mov	w10, #0x1                   	// #1
  9242dc:	f000004b 	adrp	x11, 92f000 <imx_gicv3_ctx+0x21d0>
  9242e0:	6b0c015f 	cmp	w10, w12
  9242e4:	9125916b 	add	x11, x11, #0x964
  9242e8:	54000041 	b.ne	9242f0 <dram_cfg_all_mr+0x1c>  // b.any
  9242ec:	d65f03c0 	ret
  9242f0:	a9bf7bfd 	stp	x29, x30, [sp, #-16]!
  9242f4:	910003fd 	mov	x29, sp
  9242f8:	d2800009 	mov	x9, #0x0                   	// #0
  9242fc:	b8697961 	ldr	w1, [x11, x9, lsl #2]
  924300:	2a0903e0 	mov	w0, w9
  924304:	2a0a03e3 	mov	w3, w10
  924308:	52800002 	mov	w2, #0x0                   	// #0
  92430c:	97ffffbd 	bl	924200 <ddr4_mr_write>
  924310:	91000529 	add	x9, x9, #0x1
  924314:	f1001d3f 	cmp	x9, #0x7
  924318:	54ffff21 	b.ne	9242fc <dram_cfg_all_mr+0x28>  // b.any
  92431c:	1100054a 	add	w10, w10, #0x1
  924320:	6b0c015f 	cmp	w10, w12
  924324:	54fffea1 	b.ne	9242f8 <dram_cfg_all_mr+0x24>  // b.any
  924328:	a8c17bfd 	ldp	x29, x30, [sp], #16
  92432c:	d65f03c0 	ret

0000000000924330 <sw_pstate>:
  924330:	a9bd7bfd 	stp	x29, x30, [sp, #-48]!
  924334:	d2806401 	mov	x1, #0x320                 	// #800
  924338:	f2a7a801 	movk	x1, #0x3d40, lsl #16
  92433c:	d2a7a802 	mov	x2, #0x3d400000            	// #1027604480
  924340:	910003fd 	mov	x29, sp
  924344:	a90153f3 	stp	x19, x20, [sp, #16]
  924348:	b900003f 	str	wzr, [x1]
  92434c:	d2800501 	mov	x1, #0x28                  	// #40
  924350:	f2a7a801 	movk	x1, #0x3d40, lsl #16
  924354:	b9000020 	str	w0, [x1]
  924358:	b9400041 	ldr	w1, [x2]
  92435c:	32030021 	orr	w1, w1, #0x20000000
  924360:	b9000041 	str	w1, [x2]
  924364:	d2800c01 	mov	x1, #0x60                  	// #96
  924368:	f2a7a801 	movk	x1, #0x3d40, lsl #16
  92436c:	b9400022 	ldr	w2, [x1]
  924370:	b9002fa2 	str	w2, [x29, #44]
  924374:	b9402fa2 	ldr	w2, [x29, #44]
  924378:	36080642 	tbz	w2, #1, 924440 <sw_pstate+0x110>
  92437c:	b9402fa2 	ldr	w2, [x29, #44]
  924380:	121e7842 	and	w2, w2, #0xfffffffd
  924384:	b9000022 	str	w2, [x1]
  924388:	d2803601 	mov	x1, #0x1b0                 	// #432
  92438c:	f2a7a801 	movk	x1, #0x3d40, lsl #16
  924390:	53185c13 	lsl	w19, w0, #8
  924394:	321b0262 	orr	w2, w19, #0x20
  924398:	b9000033 	str	w19, [x1]
  92439c:	b9000022 	str	w2, [x1]
  9243a0:	d2803782 	mov	x2, #0x1bc                 	// #444
  9243a4:	f2a7a802 	movk	x2, #0x3d40, lsl #16
  9243a8:	aa0203f4 	mov	x20, x2
  9243ac:	b9400041 	ldr	w1, [x2]
  9243b0:	12000021 	and	w1, w1, #0x1
  9243b4:	b9002fa1 	str	w1, [x29, #44]
  9243b8:	b9402fa1 	ldr	w1, [x29, #44]
  9243bc:	35ffff81 	cbnz	w1, 9243ac <sw_pstate+0x7c>
  9243c0:	97fffc36 	bl	923498 <dram_clock_switch>
  9243c4:	d2803600 	mov	x0, #0x1b0                 	// #432
  9243c8:	f2a7a800 	movk	x0, #0x3d40, lsl #16
  9243cc:	b9000013 	str	w19, [x0]
  9243d0:	b9400280 	ldr	w0, [x20]
  9243d4:	12000000 	and	w0, w0, #0x1
  9243d8:	b9002fa0 	str	w0, [x29, #44]
  9243dc:	b9402fa0 	ldr	w0, [x29, #44]
  9243e0:	34ffff80 	cbz	w0, 9243d0 <sw_pstate+0xa0>
  9243e4:	90000034 	adrp	x20, 928000 <unsigned_num_print+0x1c>
  9243e8:	911e0694 	add	x20, x20, #0x781
  9243ec:	52800293 	mov	w19, #0x14                  	// #20
  9243f0:	aa1403e0 	mov	x0, x20
  9243f4:	9400102c 	bl	9284a4 <printf>
  9243f8:	71000673 	subs	w19, w19, #0x1
  9243fc:	54ffffa1 	b.ne	9243f0 <sw_pstate+0xc0>  // b.any
  924400:	d2800601 	mov	x1, #0x30                  	// #48
  924404:	f2a7a801 	movk	x1, #0x3d40, lsl #16
  924408:	b9400020 	ldr	w0, [x1]
  92440c:	121a7800 	and	w0, w0, #0xffffffdf
  924410:	b9000020 	str	w0, [x1]
  924414:	d2800081 	mov	x1, #0x4                   	// #4
  924418:	f2a7a801 	movk	x1, #0x3d40, lsl #16
  92441c:	b9400020 	ldr	w0, [x1]
  924420:	12001400 	and	w0, w0, #0x3f
  924424:	b9002fa0 	str	w0, [x29, #44]
  924428:	b9402fa0 	ldr	w0, [x29, #44]
  92442c:	71008c1f 	cmp	w0, #0x23
  924430:	54ffff60 	b.eq	92441c <sw_pstate+0xec>  // b.none
  924434:	a94153f3 	ldp	x19, x20, [sp, #16]
  924438:	a8c37bfd 	ldp	x29, x30, [sp], #48
  92443c:	d65f03c0 	ret
  924440:	b9402fa2 	ldr	w2, [x29, #44]
  924444:	321f0042 	orr	w2, w2, #0x2
  924448:	17ffffcf 	b	924384 <sw_pstate+0x54>

000000000092444c <ddr4_dll_change>:
  92444c:	a9bc7bfd 	stp	x29, x30, [sp, #-64]!
  924450:	7100003f 	cmp	w1, #0x0
  924454:	7a401840 	ccmp	w2, #0x0, #0x0, ne  // ne = any
  924458:	910003fd 	mov	x29, sp
  92445c:	a90153f3 	stp	x19, x20, [sp, #16]
  924460:	a9025bf5 	stp	x21, x22, [sp, #32]
  924464:	2a0003f6 	mov	w22, w0
  924468:	2a0103f5 	mov	w21, w1
  92446c:	54000ec0 	b.eq	924644 <ddr4_dll_change+0x1f8>  // b.none
  924470:	7100003f 	cmp	w1, #0x0
  924474:	7a400844 	ccmp	w2, #0x0, #0x4, eq  // eq = none
  924478:	1a9f07f3 	cset	w19, ne  // ne = any
  92447c:	531f7a73 	lsl	w19, w19, #1
  924480:	d2806400 	mov	x0, #0x320                 	// #800
  924484:	d2806081 	mov	x1, #0x304                 	// #772
  924488:	f2a7a800 	movk	x0, #0x3d40, lsl #16
  92448c:	f2a7a801 	movk	x1, #0x3d40, lsl #16
  924490:	d2806102 	mov	x2, #0x308                 	// #776
  924494:	b900001f 	str	wzr, [x0]
  924498:	f2a7a802 	movk	x2, #0x3d40, lsl #16
  92449c:	b901701f 	str	wzr, [x0, #368]
  9244a0:	b9400020 	ldr	w0, [x1]
  9244a4:	321f0000 	orr	w0, w0, #0x2
  9244a8:	b9000020 	str	w0, [x1]
  9244ac:	d2843001 	mov	x1, #0x2180                	// #8576
  9244b0:	f2a7a801 	movk	x1, #0x3d40, lsl #16
  9244b4:	b9400020 	ldr	w0, [x1]
  9244b8:	32010000 	orr	w0, w0, #0x80000000
  9244bc:	b9000020 	str	w0, [x1]
  9244c0:	b9500020 	ldr	w0, [x1, #4096]
  9244c4:	32010000 	orr	w0, w0, #0x80000000
  9244c8:	b9100020 	str	w0, [x1, #4096]
  9244cc:	d2803001 	mov	x1, #0x180                 	// #384
  9244d0:	f2a7a801 	movk	x1, #0x3d40, lsl #16
  9244d4:	b9400020 	ldr	w0, [x1]
  9244d8:	32010000 	orr	w0, w0, #0x80000000
  9244dc:	b9000020 	str	w0, [x1]
  9244e0:	d2800c01 	mov	x1, #0x60                  	// #96
  9244e4:	f2a7a801 	movk	x1, #0x3d40, lsl #16
  9244e8:	b9400020 	ldr	w0, [x1]
  9244ec:	32000000 	orr	w0, w0, #0x1
  9244f0:	b9000020 	str	w0, [x1]
  9244f4:	52a6c001 	mov	w1, #0x36000000            	// #905969664
  9244f8:	b9400040 	ldr	w0, [x2]
  9244fc:	0a010000 	and	w0, w0, w1
  924500:	b9003fa0 	str	w0, [x29, #60]
  924504:	b9403fa0 	ldr	w0, [x29, #60]
  924508:	6b01001f 	cmp	w0, w1
  92450c:	54ffff61 	b.ne	9244f8 <ddr4_dll_change+0xac>  // b.any
  924510:	f0000049 	adrp	x9, 92f000 <imx_gicv3_ctx+0x21d0>
  924514:	110006ca 	add	w10, w22, #0x1
  924518:	91259129 	add	x9, x9, #0x964
  92451c:	52800034 	mov	w20, #0x1                   	// #1
  924520:	529f1feb 	mov	w11, #0xf8ff                	// #63743
  924524:	6b0a029f 	cmp	w20, w10
  924528:	54000921 	b.ne	92464c <ddr4_dll_change+0x200>  // b.any
  92452c:	f000004a 	adrp	x10, 92f000 <imx_gicv3_ctx+0x21d0>
  924530:	9125914a 	add	x10, x10, #0x964
  924534:	52800029 	mov	w9, #0x1                   	// #1
  924538:	529fc7eb 	mov	w11, #0xfe3f                	// #65087
  92453c:	6b16013f 	cmp	w9, w22
  924540:	540009a3 	b.cc	924674 <ddr4_dll_change+0x228>  // b.lo, b.ul, b.last
  924544:	7100067f 	cmp	w19, #0x1
  924548:	54000da0 	b.eq	9246fc <ddr4_dll_change+0x2b0>  // b.none
  92454c:	d2800601 	mov	x1, #0x30                  	// #48
  924550:	f2a7a801 	movk	x1, #0x3d40, lsl #16
  924554:	b9400020 	ldr	w0, [x1]
  924558:	321b0000 	orr	w0, w0, #0x20
  92455c:	b9000020 	str	w0, [x1]
  924560:	d2800081 	mov	x1, #0x4                   	// #4
  924564:	f2a7a801 	movk	x1, #0x3d40, lsl #16
  924568:	b9400020 	ldr	w0, [x1]
  92456c:	12001400 	and	w0, w0, #0x3f
  924570:	b9003fa0 	str	w0, [x29, #60]
  924574:	b9403fa0 	ldr	w0, [x29, #60]
  924578:	71008c1f 	cmp	w0, #0x23
  92457c:	54ffff61 	b.ne	924568 <ddr4_dll_change+0x11c>  // b.any
  924580:	7100067f 	cmp	w19, #0x1
  924584:	54000c61 	b.ne	924710 <ddr4_dll_change+0x2c4>  // b.any
  924588:	d2a7a801 	mov	x1, #0x3d400000            	// #1027604480
  92458c:	b9400020 	ldr	w0, [x1]
  924590:	32110000 	orr	w0, w0, #0x8000
  924594:	b9000020 	str	w0, [x1]
  924598:	2a1503e0 	mov	w0, w21
  92459c:	97ffff65 	bl	924330 <sw_pstate>
  9245a0:	71000a7f 	cmp	w19, #0x2
  9245a4:	54000ee0 	b.eq	924780 <ddr4_dll_change+0x334>  // b.none
  9245a8:	2a1503e1 	mov	w1, w21
  9245ac:	2a1603e0 	mov	w0, w22
  9245b0:	97ffff49 	bl	9242d4 <dram_cfg_all_mr>
  9245b4:	d2843001 	mov	x1, #0x2180                	// #8576
  9245b8:	f2a7a801 	movk	x1, #0x3d40, lsl #16
  9245bc:	b9400020 	ldr	w0, [x1]
  9245c0:	12007800 	and	w0, w0, #0x7fffffff
  9245c4:	b9000020 	str	w0, [x1]
  9245c8:	b9500020 	ldr	w0, [x1, #4096]
  9245cc:	12007800 	and	w0, w0, #0x7fffffff
  9245d0:	b9100020 	str	w0, [x1, #4096]
  9245d4:	d2803001 	mov	x1, #0x180                 	// #384
  9245d8:	f2a7a801 	movk	x1, #0x3d40, lsl #16
  9245dc:	b9400020 	ldr	w0, [x1]
  9245e0:	12007800 	and	w0, w0, #0x7fffffff
  9245e4:	b9000020 	str	w0, [x1]
  9245e8:	d2800c01 	mov	x1, #0x60                  	// #96
  9245ec:	f2a7a801 	movk	x1, #0x3d40, lsl #16
  9245f0:	b9400020 	ldr	w0, [x1]
  9245f4:	121f7800 	and	w0, w0, #0xfffffffe
  9245f8:	b9000020 	str	w0, [x1]
  9245fc:	b942a420 	ldr	w0, [x1, #676]
  924600:	121e7800 	and	w0, w0, #0xfffffffd
  924604:	b902a420 	str	w0, [x1, #676]
  924608:	52800020 	mov	w0, #0x1                   	// #1
  92460c:	b9043020 	str	w0, [x1, #1072]
  924610:	d2806401 	mov	x1, #0x320                 	// #800
  924614:	f2a7a801 	movk	x1, #0x3d40, lsl #16
  924618:	91001021 	add	x1, x1, #0x4
  92461c:	b81fc020 	stur	w0, [x1, #-4]
  924620:	b9400020 	ldr	w0, [x1]
  924624:	12000000 	and	w0, w0, #0x1
  924628:	b9003fa0 	str	w0, [x29, #60]
  92462c:	b9403fa0 	ldr	w0, [x29, #60]
  924630:	34ffff80 	cbz	w0, 924620 <ddr4_dll_change+0x1d4>
  924634:	a94153f3 	ldp	x19, x20, [sp, #16]
  924638:	a9425bf5 	ldp	x21, x22, [sp, #32]
  92463c:	a8c47bfd 	ldp	x29, x30, [sp], #64
  924640:	d65f03c0 	ret
  924644:	52800033 	mov	w19, #0x1                   	// #1
  924648:	17ffff8e 	b	924480 <ddr4_dll_change+0x34>
  92464c:	b9400521 	ldr	w1, [x9, #4]
  924650:	7218083f 	tst	w1, #0x700
  924654:	540000c0 	b.eq	92466c <ddr4_dll_change+0x220>  // b.none
  924658:	2a1403e3 	mov	w3, w20
  92465c:	52800002 	mov	w2, #0x0                   	// #0
  924660:	0a0b0021 	and	w1, w1, w11
  924664:	52800020 	mov	w0, #0x1                   	// #1
  924668:	97fffee6 	bl	924200 <ddr4_mr_write>
  92466c:	11000694 	add	w20, w20, #0x1
  924670:	17ffffad 	b	924524 <ddr4_dll_change+0xd8>
  924674:	b9401541 	ldr	w1, [x10, #20]
  924678:	721a083f 	tst	w1, #0x1c0
  92467c:	540000c0 	b.eq	924694 <ddr4_dll_change+0x248>  // b.none
  924680:	2a0903e3 	mov	w3, w9
  924684:	52800002 	mov	w2, #0x0                   	// #0
  924688:	0a0b0021 	and	w1, w1, w11
  92468c:	528000a0 	mov	w0, #0x5                   	// #5
  924690:	97fffedc 	bl	924200 <ddr4_mr_write>
  924694:	11000529 	add	w9, w9, #0x1
  924698:	17ffffa9 	b	92453c <ddr4_dll_change+0xf0>
  92469c:	b9400941 	ldr	w1, [x10, #8]
  9246a0:	7217083f 	tst	w1, #0xe00
  9246a4:	540000c0 	b.eq	9246bc <ddr4_dll_change+0x270>  // b.none
  9246a8:	2a0903e3 	mov	w3, w9
  9246ac:	52800002 	mov	w2, #0x0                   	// #0
  9246b0:	0a0b0021 	and	w1, w1, w11
  9246b4:	52800040 	mov	w0, #0x2                   	// #2
  9246b8:	97fffed2 	bl	924200 <ddr4_mr_write>
  9246bc:	11000529 	add	w9, w9, #0x1
  9246c0:	6b09029f 	cmp	w20, w9
  9246c4:	54fffec1 	b.ne	92469c <ddr4_dll_change+0x250>  // b.any
  9246c8:	f000004b 	adrp	x11, 92f000 <imx_gicv3_ctx+0x21d0>
  9246cc:	9125916b 	add	x11, x11, #0x964
  9246d0:	5280002a 	mov	w10, #0x1                   	// #1
  9246d4:	6b0a013f 	cmp	w9, w10
  9246d8:	54fff3a0 	b.eq	92454c <ddr4_dll_change+0x100>  // b.none
  9246dc:	b9400561 	ldr	w1, [x11, #4]
  9246e0:	2a0a03e3 	mov	w3, w10
  9246e4:	52800002 	mov	w2, #0x0                   	// #0
  9246e8:	52800020 	mov	w0, #0x1                   	// #1
  9246ec:	121f3821 	and	w1, w1, #0xfffe
  9246f0:	97fffec4 	bl	924200 <ddr4_mr_write>
  9246f4:	1100054a 	add	w10, w10, #0x1
  9246f8:	17fffff7 	b	9246d4 <ddr4_dll_change+0x288>
  9246fc:	f000004a 	adrp	x10, 92f000 <imx_gicv3_ctx+0x21d0>
  924700:	2a1303e9 	mov	w9, w19
  924704:	9125914a 	add	x10, x10, #0x964
  924708:	529e3feb 	mov	w11, #0xf1ff                	// #61951
  92470c:	17ffffed 	b	9246c0 <ddr4_dll_change+0x274>
  924710:	71000a7f 	cmp	w19, #0x2
  924714:	54fff421 	b.ne	924598 <ddr4_dll_change+0x14c>  // b.any
