Archive member included to satisfy reference by file (symbol)

/home/uwe/git/ms/iot_core_tx8mmini/mu_platform_nxp/Build/TX8M_MINI_EVK_1GB/RELEASE_GCC5/AARCH64/MdePkg/Library/UefiApplicationEntryPoint/UefiApplicationEntryPoint/OUTPUT/UefiApplicationEntryPoint.lib(ApplicationEntryPoint.obj)
                              (_ModuleEntryPoint)
/home/uwe/git/ms/iot_core_tx8mmini/mu_platform_nxp/Build/TX8M_MINI_EVK_1GB/RELEASE_GCC5/AARCH64/ArmPkg/Library/CompilerIntrinsicsLib/CompilerIntrinsicsLib/OUTPUT/CompilerIntrinsicsLib.lib(memcpy.obj)
                              /home/uwe/git/ms/iot_core_tx8mmini/mu_platform_nxp/Silicon/ARM/MU_TIANO/ArmPkg/Library/GccLto/liblto-aarch64.a (memcpy)
/home/uwe/git/ms/iot_core_tx8mmini/mu_platform_nxp/Build/TX8M_MINI_EVK_1GB/RELEASE_GCC5/AARCH64/ArmPkg/Library/CompilerIntrinsicsLib/CompilerIntrinsicsLib/OUTPUT/CompilerIntrinsicsLib.lib(memset.obj)
                              /home/uwe/git/ms/iot_core_tx8mmini/mu_platform_nxp/Silicon/ARM/MU_TIANO/ArmPkg/Library/GccLto/liblto-aarch64.a (memset)
/home/uwe/git/ms/iot_core_tx8mmini/mu_platform_nxp/Build/TX8M_MINI_EVK_1GB/RELEASE_GCC5/AARCH64/MdePkg/Library/BaseStackCheckLib/BaseStackCheckLib/OUTPUT/BaseStackCheckLib.lib(BaseStackCheckGcc.obj)
                              /home/uwe/git/ms/iot_core_tx8mmini/mu_platform_nxp/Silicon/ARM/MU_TIANO/ArmPkg/Library/GccLto/liblto-aarch64.a (__stack_chk_fail)
/home/uwe/git/ms/iot_core_tx8mmini/mu_platform_nxp/Build/TX8M_MINI_EVK_1GB/RELEASE_GCC5/AARCH64/ShellPkg/Application/Shell/Shell/OUTPUT/Shell.lib(AutoGen.obj)
                              ApplicationEntryPoint.obj (symbol from plugin) (ProcessLibraryConstructorList)
/home/uwe/git/ms/iot_core_tx8mmini/mu_platform_nxp/Build/TX8M_MINI_EVK_1GB/RELEASE_GCC5/AARCH64/ShellPkg/Application/Shell/Shell/OUTPUT/Shell.lib(Shell.obj)
                              AutoGen.obj (symbol from plugin) (UefiMain)
/home/uwe/git/ms/iot_core_tx8mmini/mu_platform_nxp/Build/TX8M_MINI_EVK_1GB/RELEASE_GCC5/AARCH64/ShellPkg/Application/Shell/Shell/OUTPUT/Shell.lib(ShellParametersProtocol.obj)
                              Shell.obj (symbol from plugin) (GetNextParameter)
/home/uwe/git/ms/iot_core_tx8mmini/mu_platform_nxp/Build/TX8M_MINI_EVK_1GB/RELEASE_GCC5/AARCH64/ShellPkg/Application/Shell/Shell/OUTPUT/Shell.lib(ShellProtocol.obj)
                              Shell.obj (symbol from plugin) (EfiShellGetEnv)
/home/uwe/git/ms/iot_core_tx8mmini/mu_platform_nxp/Build/TX8M_MINI_EVK_1GB/RELEASE_GCC5/AARCH64/ShellPkg/Application/Shell/Shell/OUTPUT/Shell.lib(FileHandleWrappers.obj)
                              ShellParametersProtocol.obj (symbol from plugin) (CreateFileInterfaceEnv)
/home/uwe/git/ms/iot_core_tx8mmini/mu_platform_nxp/Build/TX8M_MINI_EVK_1GB/RELEASE_GCC5/AARCH64/ShellPkg/Application/Shell/Shell/OUTPUT/Shell.lib(ShellEnvVar.obj)
                              ShellProtocol.obj (symbol from plugin) (gShellEnvVarList)
/home/uwe/git/ms/iot_core_tx8mmini/mu_platform_nxp/Build/TX8M_MINI_EVK_1GB/RELEASE_GCC5/AARCH64/ShellPkg/Application/Shell/Shell/OUTPUT/Shell.lib(ShellManParser.obj)
                              ShellProtocol.obj (symbol from plugin) (ProcessManFile)
/home/uwe/git/ms/iot_core_tx8mmini/mu_platform_nxp/Build/TX8M_MINI_EVK_1GB/RELEASE_GCC5/AARCH64/ShellPkg/Application/Shell/Shell/OUTPUT/Shell.lib(ConsoleLogger.obj)
                              Shell.obj (symbol from plugin) (ConsoleLoggerUninstall)
/home/uwe/git/ms/iot_core_tx8mmini/mu_platform_nxp/Build/TX8M_MINI_EVK_1GB/RELEASE_GCC5/AARCH64/ShellPkg/Application/Shell/Shell/OUTPUT/Shell.lib(ConsoleWrappers.obj)
                              Shell.obj (symbol from plugin) (CreateSimpleTextInOnFile)
/home/uwe/git/ms/iot_core_tx8mmini/mu_platform_nxp/Build/TX8M_MINI_EVK_1GB/RELEASE_GCC5/AARCH64/MdePkg/Library/BaseMemoryLibOptDxe/BaseMemoryLibOptDxe/OUTPUT/BaseMemoryLibOptDxe.lib(MemLibGuid.obj)
                              ShellProtocol.obj (symbol from plugin) (CopyGuid)
/home/uwe/git/ms/iot_core_tx8mmini/mu_platform_nxp/Build/TX8M_MINI_EVK_1GB/RELEASE_GCC5/AARCH64/MdePkg/Library/BaseMemoryLibOptDxe/BaseMemoryLibOptDxe/OUTPUT/BaseMemoryLibOptDxe.lib(ZeroMemWrapper.obj)
                              ShellProtocol.obj (symbol from plugin) (ZeroMem)
/home/uwe/git/ms/iot_core_tx8mmini/mu_platform_nxp/Build/TX8M_MINI_EVK_1GB/RELEASE_GCC5/AARCH64/MdePkg/Library/BaseMemoryLibOptDxe/BaseMemoryLibOptDxe/OUTPUT/BaseMemoryLibOptDxe.lib(SetMem16Wrapper.obj)
                              ShellParametersProtocol.obj (symbol from plugin) (SetMem16)
/home/uwe/git/ms/iot_core_tx8mmini/mu_platform_nxp/Build/TX8M_MINI_EVK_1GB/RELEASE_GCC5/AARCH64/MdePkg/Library/BaseMemoryLibOptDxe/BaseMemoryLibOptDxe/OUTPUT/BaseMemoryLibOptDxe.lib(SetMemWrapper.obj)
                              FileHandleWrappers.obj (symbol from plugin) (SetMem)
/home/uwe/git/ms/iot_core_tx8mmini/mu_platform_nxp/Build/TX8M_MINI_EVK_1GB/RELEASE_GCC5/AARCH64/MdePkg/Library/BaseMemoryLibOptDxe/BaseMemoryLibOptDxe/OUTPUT/BaseMemoryLibOptDxe.lib(CopyMemWrapper.obj)
                              Shell.obj (symbol from plugin) (CopyMem)
/home/uwe/git/ms/iot_core_tx8mmini/mu_platform_nxp/Build/TX8M_MINI_EVK_1GB/RELEASE_GCC5/AARCH64/MdePkg/Library/BaseMemoryLibOptDxe/BaseMemoryLibOptDxe/OUTPUT/BaseMemoryLibOptDxe.lib(SetMem.obj)
                              SetMem16Wrapper.obj (symbol from plugin) (InternalMemSetMem16)
/home/uwe/git/ms/iot_core_tx8mmini/mu_platform_nxp/Build/TX8M_MINI_EVK_1GB/RELEASE_GCC5/AARCH64/MdePkg/Library/BaseMemoryLibOptDxe/BaseMemoryLibOptDxe/OUTPUT/BaseMemoryLibOptDxe.lib(CopyMem.obj)
                              MemLibGuid.obj (symbol from plugin) (InternalMemCopyMem)
/home/uwe/git/ms/iot_core_tx8mmini/mu_platform_nxp/Build/TX8M_MINI_EVK_1GB/RELEASE_GCC5/AARCH64/MdePkg/Library/BaseMemoryLibOptDxe/BaseMemoryLibOptDxe/OUTPUT/BaseMemoryLibOptDxe.lib(CompareGuid.obj)
                              MemLibGuid.obj (symbol from plugin) (InternalMemCompareGuid)
/home/uwe/git/ms/iot_core_tx8mmini/mu_platform_nxp/Build/TX8M_MINI_EVK_1GB/RELEASE_GCC5/AARCH64/MdePkg/Library/BaseMemoryLibOptDxe/BaseMemoryLibOptDxe/OUTPUT/BaseMemoryLibOptDxe.lib(SetMem64Wrapper.obj)
                              SetMemWrapper.obj (symbol from plugin) (SetMem64)
/home/uwe/git/ms/iot_core_tx8mmini/mu_platform_nxp/Build/TX8M_MINI_EVK_1GB/RELEASE_GCC5/AARCH64/MdePkg/Library/BaseLib/BaseLib/OUTPUT/BaseLib.lib(CpuDeadLoop.obj)
                              BaseStackCheckGcc.obj (symbol from plugin) (CpuDeadLoop)
/home/uwe/git/ms/iot_core_tx8mmini/mu_platform_nxp/Build/TX8M_MINI_EVK_1GB/RELEASE_GCC5/AARCH64/MdePkg/Library/BaseLib/BaseLib/OUTPUT/BaseLib.lib(LinkedList.obj)
                              Shell.obj (symbol from plugin) (InitializeListHead)
/home/uwe/git/ms/iot_core_tx8mmini/mu_platform_nxp/Build/TX8M_MINI_EVK_1GB/RELEASE_GCC5/AARCH64/MdePkg/Library/BaseLib/BaseLib/OUTPUT/BaseLib.lib(SafeString.obj)
                              Shell.obj (symbol from plugin) (StrCpyS)
/home/uwe/git/ms/iot_core_tx8mmini/mu_platform_nxp/Build/TX8M_MINI_EVK_1GB/RELEASE_GCC5/AARCH64/MdePkg/Library/BaseLib/BaseLib/OUTPUT/BaseLib.lib(String.obj)
                              Shell.obj (symbol from plugin) (StrLen)
/home/uwe/git/ms/iot_core_tx8mmini/mu_platform_nxp/Build/TX8M_MINI_EVK_1GB/RELEASE_GCC5/AARCH64/MdePkg/Library/BaseLib/BaseLib/OUTPUT/BaseLib.lib(FilePaths.obj)
                              Shell.obj (symbol from plugin) (PathRemoveLastItem)
/home/uwe/git/ms/iot_core_tx8mmini/mu_platform_nxp/Build/TX8M_MINI_EVK_1GB/RELEASE_GCC5/AARCH64/MdePkg/Library/BaseLib/BaseLib/OUTPUT/BaseLib.lib(CpuBreakpoint.obj)
                              BaseStackCheckGcc.obj (symbol from plugin) (CpuBreakpoint)
/home/uwe/git/ms/iot_core_tx8mmini/mu_platform_nxp/Build/TX8M_MINI_EVK_1GB/RELEASE_GCC5/AARCH64/MdePkg/Library/BaseLib/BaseLib/OUTPUT/BaseLib.lib(SwapBytes32.obj)
                              SafeString.obj (symbol from plugin) (SwapBytes32)
/home/uwe/git/ms/iot_core_tx8mmini/mu_platform_nxp/Build/TX8M_MINI_EVK_1GB/RELEASE_GCC5/AARCH64/MdePkg/Library/BaseLib/BaseLib/OUTPUT/BaseLib.lib(SwapBytes16.obj)
                              SafeString.obj (symbol from plugin) (SwapBytes16)
/home/uwe/git/ms/iot_core_tx8mmini/mu_platform_nxp/Build/TX8M_MINI_EVK_1GB/RELEASE_GCC5/AARCH64/MdePkg/Library/BaseLib/BaseLib/OUTPUT/BaseLib.lib(RShiftU64.obj)
                              SafeString.obj (symbol from plugin) (RShiftU64)
/home/uwe/git/ms/iot_core_tx8mmini/mu_platform_nxp/Build/TX8M_MINI_EVK_1GB/RELEASE_GCC5/AARCH64/MdePkg/Library/BaseLib/BaseLib/OUTPUT/BaseLib.lib(MultU64x32.obj)
                              SafeString.obj (symbol from plugin) (MultU64x32)
/home/uwe/git/ms/iot_core_tx8mmini/mu_platform_nxp/Build/TX8M_MINI_EVK_1GB/RELEASE_GCC5/AARCH64/MdePkg/Library/BaseLib/BaseLib/OUTPUT/BaseLib.lib(LShiftU64.obj)
                              SafeString.obj (symbol from plugin) (LShiftU64)
/home/uwe/git/ms/iot_core_tx8mmini/mu_platform_nxp/Build/TX8M_MINI_EVK_1GB/RELEASE_GCC5/AARCH64/MdePkg/Library/BaseLib/BaseLib/OUTPUT/BaseLib.lib(DivU64x32.obj)
                              SafeString.obj (symbol from plugin) (DivU64x32)
/home/uwe/git/ms/iot_core_tx8mmini/mu_platform_nxp/Build/TX8M_MINI_EVK_1GB/RELEASE_GCC5/AARCH64/MdePkg/Library/BaseLib/BaseLib/OUTPUT/BaseLib.lib(Math64.obj)
                              LShiftU64.obj (symbol from plugin) (InternalMathLShiftU64)
/home/uwe/git/ms/iot_core_tx8mmini/mu_platform_nxp/Build/TX8M_MINI_EVK_1GB/RELEASE_GCC5/AARCH64/MdePkg/Library/BasePrintLib/BasePrintLib/OUTPUT/BasePrintLib.lib(PrintLib.obj)
                              Shell.obj (symbol from plugin) (UnicodeSPrint)
/home/uwe/git/ms/iot_core_tx8mmini/mu_platform_nxp/Build/TX8M_MINI_EVK_1GB/RELEASE_GCC5/AARCH64/MdePkg/Library/BasePrintLib/BasePrintLib/OUTPUT/BasePrintLib.lib(PrintLibInternal.obj)
                              PrintLib.obj (symbol from plugin) (BasePrintLibConvertValueToString)
/home/uwe/git/ms/iot_core_tx8mmini/mu_platform_nxp/Build/TX8M_MINI_EVK_1GB/RELEASE_GCC5/AARCH64/MdePkg/Library/BaseDebugLibSerialPort/BaseDebugLibSerialPort/OUTPUT/BaseDebugLibSerialPort.lib(DebugLib.obj)
                              AutoGen.obj (symbol from plugin) (BaseDebugLibSerialPortConstructor)
/home/uwe/git/ms/iot_core_tx8mmini/mu_platform_nxp/Build/TX8M_MINI_EVK_1GB/RELEASE_GCC5/AARCH64/ArmPkg/Library/ArmArchTimerLib/ArmArchTimerLib/OUTPUT/ArmArchTimerLib.lib(ArmArchTimerLib.obj)
                              AutoGen.obj (symbol from plugin) (TimerConstructor)
/home/uwe/git/ms/iot_core_tx8mmini/mu_platform_nxp/Build/TX8M_MINI_EVK_1GB/RELEASE_GCC5/AARCH64/MdePkg/Library/UefiBootServicesTableLib/UefiBootServicesTableLib/OUTPUT/UefiBootServicesTableLib.lib(UefiBootServicesTableLib.obj)
                              AutoGen.obj (symbol from plugin) (UefiBootServicesTableLibConstructor)
/home/uwe/git/ms/iot_core_tx8mmini/mu_platform_nxp/Build/TX8M_MINI_EVK_1GB/RELEASE_GCC5/AARCH64/MdePkg/Library/UefiMemoryAllocationLib/UefiMemoryAllocationLib/OUTPUT/UefiMemoryAllocationLib.lib(MemoryAllocationLib.obj)
                              ShellProtocol.obj (symbol from plugin) (AllocatePool)
/home/uwe/git/ms/iot_core_tx8mmini/mu_platform_nxp/Build/TX8M_MINI_EVK_1GB/RELEASE_GCC5/AARCH64/MdePkg/Library/UefiDevicePathLib/UefiDevicePathLib/OUTPUT/UefiDevicePathLib.lib(DevicePathUtilities.obj)
                              ShellProtocol.obj (symbol from plugin) (DevicePathType)
/home/uwe/git/ms/iot_core_tx8mmini/mu_platform_nxp/Build/TX8M_MINI_EVK_1GB/RELEASE_GCC5/AARCH64/MdePkg/Library/UefiDevicePathLib/UefiDevicePathLib/OUTPUT/UefiDevicePathLib.lib(UefiDevicePathLib.obj)
                              DevicePathUtilities.obj (symbol from plugin) (GetDevicePathSize)
/home/uwe/git/ms/iot_core_tx8mmini/mu_platform_nxp/Build/TX8M_MINI_EVK_1GB/RELEASE_GCC5/AARCH64/MdePkg/Library/UefiDevicePathLib/UefiDevicePathLib/OUTPUT/UefiDevicePathLib.lib(DevicePathToText.obj)
                              UefiDevicePathLib.obj (symbol from plugin) (UefiDevicePathLibConvertDeviceNodeToText)
/home/uwe/git/ms/iot_core_tx8mmini/mu_platform_nxp/Build/TX8M_MINI_EVK_1GB/RELEASE_GCC5/AARCH64/MdePkg/Library/UefiDevicePathLib/UefiDevicePathLib/OUTPUT/UefiDevicePathLib.lib(DevicePathFromText.obj)
                              UefiDevicePathLib.obj (symbol from plugin) (UefiDevicePathLibConvertTextToDeviceNode)
/home/uwe/git/ms/iot_core_tx8mmini/mu_platform_nxp/Build/TX8M_MINI_EVK_1GB/RELEASE_GCC5/AARCH64/MdePkg/Library/UefiRuntimeServicesTableLib/UefiRuntimeServicesTableLib/OUTPUT/UefiRuntimeServicesTableLib.lib(UefiRuntimeServicesTableLib.obj)
                              AutoGen.obj (symbol from plugin) (UefiRuntimeServicesTableLibConstructor)
/home/uwe/git/ms/iot_core_tx8mmini/mu_platform_nxp/Build/TX8M_MINI_EVK_1GB/RELEASE_GCC5/AARCH64/MdeModulePkg/Library/UefiHiiServicesLib/UefiHiiServicesLib/OUTPUT/UefiHiiServicesLib.lib(UefiHiiServicesLib.obj)
                              AutoGen.obj (symbol from plugin) (UefiHiiServicesLibConstructor)
/home/uwe/git/ms/iot_core_tx8mmini/mu_platform_nxp/Build/TX8M_MINI_EVK_1GB/RELEASE_GCC5/AARCH64/MdePkg/Library/UefiLib/UefiLib/OUTPUT/UefiLib.lib(UefiLib.obj)
                              AutoGen.obj (symbol from plugin) (UefiLibConstructor)
/home/uwe/git/ms/iot_core_tx8mmini/mu_platform_nxp/Build/TX8M_MINI_EVK_1GB/RELEASE_GCC5/AARCH64/MdeModulePkg/Library/UefiSortLib/UefiSortLib/OUTPUT/UefiSortLib.lib(UefiSortLib.obj)
                              ShellProtocol.obj (symbol from plugin) (DevicePathCompare)
/home/uwe/git/ms/iot_core_tx8mmini/mu_platform_nxp/Build/TX8M_MINI_EVK_1GB/RELEASE_GCC5/AARCH64/MdeModulePkg/Library/UefiHiiLib/UefiHiiLib/OUTPUT/UefiHiiLib.lib(HiiLib.obj)
                              Shell.obj (symbol from plugin) (HiiAddPackages)
/home/uwe/git/ms/iot_core_tx8mmini/mu_platform_nxp/Build/TX8M_MINI_EVK_1GB/RELEASE_GCC5/AARCH64/MdeModulePkg/Library/UefiHiiLib/UefiHiiLib/OUTPUT/UefiHiiLib.lib(HiiString.obj)
                              ShellManParser.obj (symbol from plugin) (HiiGetString)
/home/uwe/git/ms/iot_core_tx8mmini/mu_platform_nxp/Build/TX8M_MINI_EVK_1GB/RELEASE_GCC5/AARCH64/MdeModulePkg/Library/UefiHiiLib/UefiHiiLib/OUTPUT/UefiHiiLib.lib(HiiLanguage.obj)
                              HiiString.obj (symbol from plugin) (HiiGetSupportedLanguages)
/home/uwe/git/ms/iot_core_tx8mmini/mu_platform_nxp/Build/TX8M_MINI_EVK_1GB/RELEASE_GCC5/AARCH64/MdePkg/Library/UefiFileHandleLib/UefiFileHandleLib/OUTPUT/UefiFileHandleLib.lib(UefiFileHandleLib.obj)
                              ShellProtocol.obj (symbol from plugin) (FileHandleGetInfo)
/home/uwe/git/ms/iot_core_tx8mmini/mu_platform_nxp/Build/TX8M_MINI_EVK_1GB/RELEASE_GCC5/AARCH64/MdePkg/Library/DxeServicesTableLib/DxeServicesTableLib/OUTPUT/DxeServicesTableLib.lib(DxeServicesTableLib.obj)
                              AutoGen.obj (symbol from plugin) (DxeServicesTableLibConstructor)
/home/uwe/git/ms/iot_core_tx8mmini/mu_platform_nxp/Build/TX8M_MINI_EVK_1GB/RELEASE_GCC5/AARCH64/MdePkg/Library/DxeHobLib/DxeHobLib/OUTPUT/DxeHobLib.lib(HobLib.obj)
                              AutoGen.obj (symbol from plugin) (HobLibConstructor)
/home/uwe/git/ms/iot_core_tx8mmini/mu_platform_nxp/Build/TX8M_MINI_EVK_1GB/RELEASE_GCC5/AARCH64/ShellPkg/Library/UefiShellLib/UefiShellLib/OUTPUT/UefiShellLib.lib(UefiShellLib.obj)
                              Shell.obj (symbol from plugin) (gEfiShellProtocol)
/home/uwe/git/ms/iot_core_tx8mmini/mu_platform_nxp/Build/TX8M_MINI_EVK_1GB/RELEASE_GCC5/AARCH64/ShellPkg/Library/UefiHandleParsingLib/UefiHandleParsingLib/OUTPUT/UefiHandleParsingLib.lib(UefiHandleParsingLib.obj)
                              AutoGen.obj (symbol from plugin) (HandleParsingLibConstructor)
/home/uwe/git/ms/iot_core_tx8mmini/mu_platform_nxp/Build/TX8M_MINI_EVK_1GB/RELEASE_GCC5/AARCH64/ShellPkg/Library/UefiHandleParsingLib/UefiHandleParsingLib/OUTPUT/UefiHandleParsingLib.lib(AutoGen.obj)
                              UefiHandleParsingLib.obj (symbol from plugin) (UefiHandleParsingLibStrings)
/home/uwe/git/ms/iot_core_tx8mmini/mu_platform_nxp/Build/TX8M_MINI_EVK_1GB/RELEASE_GCC5/AARCH64/ShellPkg/Library/UefiShellCommandLib/UefiShellCommandLib/OUTPUT/UefiShellCommandLib.lib(UefiShellCommandLib.obj)
                              ShellParametersProtocol.obj (symbol from plugin) (gUnicodeCollation)
/home/uwe/git/ms/iot_core_tx8mmini/mu_platform_nxp/Build/TX8M_MINI_EVK_1GB/RELEASE_GCC5/AARCH64/ShellPkg/Library/UefiShellCommandLib/UefiShellCommandLib/OUTPUT/UefiShellCommandLib.lib(ConsistMapping.obj)
                              UefiShellCommandLib.obj (symbol from plugin) (ShellCommandConsistMappingInitialize)
/home/uwe/git/ms/iot_core_tx8mmini/mu_platform_nxp/Build/TX8M_MINI_EVK_1GB/RELEASE_GCC5/AARCH64/ShellPkg/Library/UefiShellLevel2CommandsLib/UefiShellLevel2CommandsLib/OUTPUT/UefiShellLevel2CommandsLib.lib(UefiShellLevel2CommandsLib.obj)
                              AutoGen.obj (symbol from plugin) (ShellLevel2CommandsLibConstructor)
/home/uwe/git/ms/iot_core_tx8mmini/mu_platform_nxp/Build/TX8M_MINI_EVK_1GB/RELEASE_GCC5/AARCH64/ShellPkg/Library/UefiShellLevel2CommandsLib/UefiShellLevel2CommandsLib/OUTPUT/UefiShellLevel2CommandsLib.lib(TimeDate.obj)
                              UefiShellLevel2CommandsLib.obj (symbol from plugin) (ShellCommandRunDate)
/home/uwe/git/ms/iot_core_tx8mmini/mu_platform_nxp/Build/TX8M_MINI_EVK_1GB/RELEASE_GCC5/AARCH64/ShellPkg/Library/UefiShellLevel2CommandsLib/UefiShellLevel2CommandsLib/OUTPUT/UefiShellLevel2CommandsLib.lib(Load.obj)
                              UefiShellLevel2CommandsLib.obj (symbol from plugin) (ShellCommandRunLoad)
/home/uwe/git/ms/iot_core_tx8mmini/mu_platform_nxp/Build/TX8M_MINI_EVK_1GB/RELEASE_GCC5/AARCH64/ShellPkg/Library/UefiShellLevel2CommandsLib/UefiShellLevel2CommandsLib/OUTPUT/UefiShellLevel2CommandsLib.lib(Ls.obj)
                              UefiShellLevel2CommandsLib.obj (symbol from plugin) (ShellCommandRunLs)
/home/uwe/git/ms/iot_core_tx8mmini/mu_platform_nxp/Build/TX8M_MINI_EVK_1GB/RELEASE_GCC5/AARCH64/ShellPkg/Library/UefiShellLevel2CommandsLib/UefiShellLevel2CommandsLib/OUTPUT/UefiShellLevel2CommandsLib.lib(Map.obj)
                              UefiShellLevel2CommandsLib.obj (symbol from plugin) (ShellCommandRunMap)
/home/uwe/git/ms/iot_core_tx8mmini/mu_platform_nxp/Build/TX8M_MINI_EVK_1GB/RELEASE_GCC5/AARCH64/ShellPkg/Library/UefiShellLevel2CommandsLib/UefiShellLevel2CommandsLib/OUTPUT/UefiShellLevel2CommandsLib.lib(Reset.obj)
                              UefiShellLevel2CommandsLib.obj (symbol from plugin) (ShellCommandRunReset)
/home/uwe/git/ms/iot_core_tx8mmini/mu_platform_nxp/Build/TX8M_MINI_EVK_1GB/RELEASE_GCC5/AARCH64/ShellPkg/Library/UefiShellLevel2CommandsLib/UefiShellLevel2CommandsLib/OUTPUT/UefiShellLevel2CommandsLib.lib(Set.obj)
                              UefiShellLevel2CommandsLib.obj (symbol from plugin) (ShellCommandRunSet)
/home/uwe/git/ms/iot_core_tx8mmini/mu_platform_nxp/Build/TX8M_MINI_EVK_1GB/RELEASE_GCC5/AARCH64/ShellPkg/Library/UefiShellLevel2CommandsLib/UefiShellLevel2CommandsLib/OUTPUT/UefiShellLevel2CommandsLib.lib(MkDir.obj)
                              UefiShellLevel2CommandsLib.obj (symbol from plugin) (ShellCommandRunMkDir)
/home/uwe/git/ms/iot_core_tx8mmini/mu_platform_nxp/Build/TX8M_MINI_EVK_1GB/RELEASE_GCC5/AARCH64/ShellPkg/Library/UefiShellLevel2CommandsLib/UefiShellLevel2CommandsLib/OUTPUT/UefiShellLevel2CommandsLib.lib(Cd.obj)
                              UefiShellLevel2CommandsLib.obj (symbol from plugin) (ShellCommandRunCd)
/home/uwe/git/ms/iot_core_tx8mmini/mu_platform_nxp/Build/TX8M_MINI_EVK_1GB/RELEASE_GCC5/AARCH64/ShellPkg/Library/UefiShellLevel2CommandsLib/UefiShellLevel2CommandsLib/OUTPUT/UefiShellLevel2CommandsLib.lib(Cp.obj)
                              UefiShellLevel2CommandsLib.obj (symbol from plugin) (ShellCommandRunCp)
/home/uwe/git/ms/iot_core_tx8mmini/mu_platform_nxp/Build/TX8M_MINI_EVK_1GB/RELEASE_GCC5/AARCH64/ShellPkg/Library/UefiShellLevel2CommandsLib/UefiShellLevel2CommandsLib/OUTPUT/UefiShellLevel2CommandsLib.lib(Parse.obj)
                              UefiShellLevel2CommandsLib.obj (symbol from plugin) (ShellCommandRunParse)
/home/uwe/git/ms/iot_core_tx8mmini/mu_platform_nxp/Build/TX8M_MINI_EVK_1GB/RELEASE_GCC5/AARCH64/ShellPkg/Library/UefiShellLevel2CommandsLib/UefiShellLevel2CommandsLib/OUTPUT/UefiShellLevel2CommandsLib.lib(Rm.obj)
                              UefiShellLevel2CommandsLib.obj (symbol from plugin) (ShellCommandRunRm)
/home/uwe/git/ms/iot_core_tx8mmini/mu_platform_nxp/Build/TX8M_MINI_EVK_1GB/RELEASE_GCC5/AARCH64/ShellPkg/Library/UefiShellLevel2CommandsLib/UefiShellLevel2CommandsLib/OUTPUT/UefiShellLevel2CommandsLib.lib(Mv.obj)
                              UefiShellLevel2CommandsLib.obj (symbol from plugin) (ShellCommandRunMv)
/home/uwe/git/ms/iot_core_tx8mmini/mu_platform_nxp/Build/TX8M_MINI_EVK_1GB/RELEASE_GCC5/AARCH64/ShellPkg/Library/UefiShellLevel2CommandsLib/UefiShellLevel2CommandsLib/OUTPUT/UefiShellLevel2CommandsLib.lib(Attrib.obj)
                              UefiShellLevel2CommandsLib.obj (symbol from plugin) (ShellCommandRunAttrib)
/home/uwe/git/ms/iot_core_tx8mmini/mu_platform_nxp/Build/TX8M_MINI_EVK_1GB/RELEASE_GCC5/AARCH64/ShellPkg/Library/UefiShellLevel2CommandsLib/UefiShellLevel2CommandsLib/OUTPUT/UefiShellLevel2CommandsLib.lib(Vol.obj)
                              UefiShellLevel2CommandsLib.obj (symbol from plugin) (ShellCommandRunVol)
/home/uwe/git/ms/iot_core_tx8mmini/mu_platform_nxp/Build/TX8M_MINI_EVK_1GB/RELEASE_GCC5/AARCH64/ShellPkg/Library/UefiShellLevel2CommandsLib/UefiShellLevel2CommandsLib/OUTPUT/UefiShellLevel2CommandsLib.lib(AutoGen.obj)
                              UefiShellLevel2CommandsLib.obj (symbol from plugin) (UefiShellLevel2CommandsLibStrings)
/home/uwe/git/ms/iot_core_tx8mmini/mu_platform_nxp/Build/TX8M_MINI_EVK_1GB/RELEASE_GCC5/AARCH64/ShellPkg/Library/UefiShellLevel1CommandsLib/UefiShellLevel1CommandsLib/OUTPUT/UefiShellLevel1CommandsLib.lib(UefiShellLevel1CommandsLib.obj)
                              AutoGen.obj (symbol from plugin) (ShellLevel1CommandsLibConstructor)
/home/uwe/git/ms/iot_core_tx8mmini/mu_platform_nxp/Build/TX8M_MINI_EVK_1GB/RELEASE_GCC5/AARCH64/ShellPkg/Library/UefiShellLevel1CommandsLib/UefiShellLevel1CommandsLib/OUTPUT/UefiShellLevel1CommandsLib.lib(Exit.obj)
                              UefiShellLevel1CommandsLib.obj (symbol from plugin) (ShellCommandRunExit)
/home/uwe/git/ms/iot_core_tx8mmini/mu_platform_nxp/Build/TX8M_MINI_EVK_1GB/RELEASE_GCC5/AARCH64/ShellPkg/Library/UefiShellLevel1CommandsLib/UefiShellLevel1CommandsLib/OUTPUT/UefiShellLevel1CommandsLib.lib(Goto.obj)
                              UefiShellLevel1CommandsLib.obj (symbol from plugin) (ShellCommandRunGoto)
/home/uwe/git/ms/iot_core_tx8mmini/mu_platform_nxp/Build/TX8M_MINI_EVK_1GB/RELEASE_GCC5/AARCH64/ShellPkg/Library/UefiShellLevel1CommandsLib/UefiShellLevel1CommandsLib/OUTPUT/UefiShellLevel1CommandsLib.lib(If.obj)
                              UefiShellLevel1CommandsLib.obj (symbol from plugin) (ShellCommandRunIf)
/home/uwe/git/ms/iot_core_tx8mmini/mu_platform_nxp/Build/TX8M_MINI_EVK_1GB/RELEASE_GCC5/AARCH64/ShellPkg/Library/UefiShellLevel1CommandsLib/UefiShellLevel1CommandsLib/OUTPUT/UefiShellLevel1CommandsLib.lib(For.obj)
                              UefiShellLevel1CommandsLib.obj (symbol from plugin) (ShellCommandRunEndFor)
/home/uwe/git/ms/iot_core_tx8mmini/mu_platform_nxp/Build/TX8M_MINI_EVK_1GB/RELEASE_GCC5/AARCH64/ShellPkg/Library/UefiShellLevel1CommandsLib/UefiShellLevel1CommandsLib/OUTPUT/UefiShellLevel1CommandsLib.lib(Shift.obj)
                              UefiShellLevel1CommandsLib.obj (symbol from plugin) (ShellCommandRunShift)
/home/uwe/git/ms/iot_core_tx8mmini/mu_platform_nxp/Build/TX8M_MINI_EVK_1GB/RELEASE_GCC5/AARCH64/ShellPkg/Library/UefiShellLevel1CommandsLib/UefiShellLevel1CommandsLib/OUTPUT/UefiShellLevel1CommandsLib.lib(Stall.obj)
                              UefiShellLevel1CommandsLib.obj (symbol from plugin) (ShellCommandRunStall)
/home/uwe/git/ms/iot_core_tx8mmini/mu_platform_nxp/Build/TX8M_MINI_EVK_1GB/RELEASE_GCC5/AARCH64/ShellPkg/Library/UefiShellLevel1CommandsLib/UefiShellLevel1CommandsLib/OUTPUT/UefiShellLevel1CommandsLib.lib(AutoGen.obj)
                              UefiShellLevel1CommandsLib.obj (symbol from plugin) (UefiShellLevel1CommandsLibStrings)
/home/uwe/git/ms/iot_core_tx8mmini/mu_platform_nxp/Build/TX8M_MINI_EVK_1GB/RELEASE_GCC5/AARCH64/ShellPkg/Library/UefiShellLevel3CommandsLib/UefiShellLevel3CommandsLib/OUTPUT/UefiShellLevel3CommandsLib.lib(UefiShellLevel3CommandsLib.obj)
                              AutoGen.obj (symbol from plugin) (ShellLevel3CommandsLibConstructor)
/home/uwe/git/ms/iot_core_tx8mmini/mu_platform_nxp/Build/TX8M_MINI_EVK_1GB/RELEASE_GCC5/AARCH64/ShellPkg/Library/UefiShellLevel3CommandsLib/UefiShellLevel3CommandsLib/OUTPUT/UefiShellLevel3CommandsLib.lib(Cls.obj)
                              UefiShellLevel3CommandsLib.obj (symbol from plugin) (ShellCommandRunCls)
/home/uwe/git/ms/iot_core_tx8mmini/mu_platform_nxp/Build/TX8M_MINI_EVK_1GB/RELEASE_GCC5/AARCH64/ShellPkg/Library/UefiShellLevel3CommandsLib/UefiShellLevel3CommandsLib/OUTPUT/UefiShellLevel3CommandsLib.lib(Alias.obj)
                              UefiShellLevel3CommandsLib.obj (symbol from plugin) (ShellCommandRunAlias)
/home/uwe/git/ms/iot_core_tx8mmini/mu_platform_nxp/Build/TX8M_MINI_EVK_1GB/RELEASE_GCC5/AARCH64/ShellPkg/Library/UefiShellLevel3CommandsLib/UefiShellLevel3CommandsLib/OUTPUT/UefiShellLevel3CommandsLib.lib(Echo.obj)
                              UefiShellLevel3CommandsLib.obj (symbol from plugin) (ShellCommandRunEcho)
/home/uwe/git/ms/iot_core_tx8mmini/mu_platform_nxp/Build/TX8M_MINI_EVK_1GB/RELEASE_GCC5/AARCH64/ShellPkg/Library/UefiShellLevel3CommandsLib/UefiShellLevel3CommandsLib/OUTPUT/UefiShellLevel3CommandsLib.lib(Pause.obj)
                              UefiShellLevel3CommandsLib.obj (symbol from plugin) (ShellCommandRunPause)
/home/uwe/git/ms/iot_core_tx8mmini/mu_platform_nxp/Build/TX8M_MINI_EVK_1GB/RELEASE_GCC5/AARCH64/ShellPkg/Library/UefiShellLevel3CommandsLib/UefiShellLevel3CommandsLib/OUTPUT/UefiShellLevel3CommandsLib.lib(GetMtc.obj)
                              UefiShellLevel3CommandsLib.obj (symbol from plugin) (ShellCommandRunGetMtc)
/home/uwe/git/ms/iot_core_tx8mmini/mu_platform_nxp/Build/TX8M_MINI_EVK_1GB/RELEASE_GCC5/AARCH64/ShellPkg/Library/UefiShellLevel3CommandsLib/UefiShellLevel3CommandsLib/OUTPUT/UefiShellLevel3CommandsLib.lib(Help.obj)
                              UefiShellLevel3CommandsLib.obj (symbol from plugin) (ShellCommandRunHelp)
/home/uwe/git/ms/iot_core_tx8mmini/mu_platform_nxp/Build/TX8M_MINI_EVK_1GB/RELEASE_GCC5/AARCH64/ShellPkg/Library/UefiShellLevel3CommandsLib/UefiShellLevel3CommandsLib/OUTPUT/UefiShellLevel3CommandsLib.lib(AutoGen.obj)
                              UefiShellLevel3CommandsLib.obj (symbol from plugin) (UefiShellLevel3CommandsLibStrings)
/home/uwe/git/ms/iot_core_tx8mmini/mu_platform_nxp/Build/TX8M_MINI_EVK_1GB/RELEASE_GCC5/AARCH64/ShellPkg/Library/UefiShellLevel3CommandsLib/UefiShellLevel3CommandsLib/OUTPUT/UefiShellLevel3CommandsLib.lib(Type.obj)
                              UefiShellLevel3CommandsLib.obj (symbol from plugin) (ShellCommandRunType)
/home/uwe/git/ms/iot_core_tx8mmini/mu_platform_nxp/Build/TX8M_MINI_EVK_1GB/RELEASE_GCC5/AARCH64/ShellPkg/Library/UefiShellLevel3CommandsLib/UefiShellLevel3CommandsLib/OUTPUT/UefiShellLevel3CommandsLib.lib(Touch.obj)
                              UefiShellLevel3CommandsLib.obj (symbol from plugin) (ShellCommandRunTouch)
/home/uwe/git/ms/iot_core_tx8mmini/mu_platform_nxp/Build/TX8M_MINI_EVK_1GB/RELEASE_GCC5/AARCH64/ShellPkg/Library/UefiShellLevel3CommandsLib/UefiShellLevel3CommandsLib/OUTPUT/UefiShellLevel3CommandsLib.lib(Ver.obj)
                              UefiShellLevel3CommandsLib.obj (symbol from plugin) (ShellCommandRunVer)
/home/uwe/git/ms/iot_core_tx8mmini/mu_platform_nxp/Build/TX8M_MINI_EVK_1GB/RELEASE_GCC5/AARCH64/ShellPkg/Library/UefiShellDriver1CommandsLib/UefiShellDriver1CommandsLib/OUTPUT/UefiShellDriver1CommandsLib.lib(UefiShellDriver1CommandsLib.obj)
                              AutoGen.obj (symbol from plugin) (UefiShellDriver1CommandsLibConstructor)
/home/uwe/git/ms/iot_core_tx8mmini/mu_platform_nxp/Build/TX8M_MINI_EVK_1GB/RELEASE_GCC5/AARCH64/ShellPkg/Library/UefiShellDriver1CommandsLib/UefiShellDriver1CommandsLib/OUTPUT/UefiShellDriver1CommandsLib.lib(AutoGen.obj)
                              UefiShellDriver1CommandsLib.obj (symbol from plugin) (UefiShellDriver1CommandsLibStrings)
/home/uwe/git/ms/iot_core_tx8mmini/mu_platform_nxp/Build/TX8M_MINI_EVK_1GB/RELEASE_GCC5/AARCH64/ShellPkg/Library/UefiShellDriver1CommandsLib/UefiShellDriver1CommandsLib/OUTPUT/UefiShellDriver1CommandsLib.lib(Connect.obj)
                              UefiShellDriver1CommandsLib.obj (symbol from plugin) (ShellCommandRunConnect)
/home/uwe/git/ms/iot_core_tx8mmini/mu_platform_nxp/Build/TX8M_MINI_EVK_1GB/RELEASE_GCC5/AARCH64/ShellPkg/Library/UefiShellDriver1CommandsLib/UefiShellDriver1CommandsLib/OUTPUT/UefiShellDriver1CommandsLib.lib(Devices.obj)
                              UefiShellDriver1CommandsLib.obj (symbol from plugin) (ShellCommandRunDevices)
/home/uwe/git/ms/iot_core_tx8mmini/mu_platform_nxp/Build/TX8M_MINI_EVK_1GB/RELEASE_GCC5/AARCH64/ShellPkg/Library/UefiShellDriver1CommandsLib/UefiShellDriver1CommandsLib/OUTPUT/UefiShellDriver1CommandsLib.lib(OpenInfo.obj)
                              UefiShellDriver1CommandsLib.obj (symbol from plugin) (ShellCommandRunOpenInfo)
/home/uwe/git/ms/iot_core_tx8mmini/mu_platform_nxp/Build/TX8M_MINI_EVK_1GB/RELEASE_GCC5/AARCH64/ShellPkg/Library/UefiShellDriver1CommandsLib/UefiShellDriver1CommandsLib/OUTPUT/UefiShellDriver1CommandsLib.lib(Disconnect.obj)
                              UefiShellDriver1CommandsLib.obj (symbol from plugin) (ShellCommandRunDisconnect)
/home/uwe/git/ms/iot_core_tx8mmini/mu_platform_nxp/Build/TX8M_MINI_EVK_1GB/RELEASE_GCC5/AARCH64/ShellPkg/Library/UefiShellDriver1CommandsLib/UefiShellDriver1CommandsLib/OUTPUT/UefiShellDriver1CommandsLib.lib(Reconnect.obj)
                              UefiShellDriver1CommandsLib.obj (symbol from plugin) (ShellCommandRunReconnect)
/home/uwe/git/ms/iot_core_tx8mmini/mu_platform_nxp/Build/TX8M_MINI_EVK_1GB/RELEASE_GCC5/AARCH64/ShellPkg/Library/UefiShellDriver1CommandsLib/UefiShellDriver1CommandsLib/OUTPUT/UefiShellDriver1CommandsLib.lib(Unload.obj)
                              UefiShellDriver1CommandsLib.obj (symbol from plugin) (ShellCommandRunUnload)
/home/uwe/git/ms/iot_core_tx8mmini/mu_platform_nxp/Build/TX8M_MINI_EVK_1GB/RELEASE_GCC5/AARCH64/ShellPkg/Library/UefiShellDriver1CommandsLib/UefiShellDriver1CommandsLib/OUTPUT/UefiShellDriver1CommandsLib.lib(DrvDiag.obj)
                              UefiShellDriver1CommandsLib.obj (symbol from plugin) (ShellCommandRunDrvDiag)
/home/uwe/git/ms/iot_core_tx8mmini/mu_platform_nxp/Build/TX8M_MINI_EVK_1GB/RELEASE_GCC5/AARCH64/ShellPkg/Library/UefiShellDriver1CommandsLib/UefiShellDriver1CommandsLib/OUTPUT/UefiShellDriver1CommandsLib.lib(Dh.obj)
                              UefiShellDriver1CommandsLib.obj (symbol from plugin) (ShellCommandRunDh)
/home/uwe/git/ms/iot_core_tx8mmini/mu_platform_nxp/Build/TX8M_MINI_EVK_1GB/RELEASE_GCC5/AARCH64/ShellPkg/Library/UefiShellDriver1CommandsLib/UefiShellDriver1CommandsLib/OUTPUT/UefiShellDriver1CommandsLib.lib(Drivers.obj)
                              UefiShellDriver1CommandsLib.obj (symbol from plugin) (ShellCommandRunDrivers)
/home/uwe/git/ms/iot_core_tx8mmini/mu_platform_nxp/Build/TX8M_MINI_EVK_1GB/RELEASE_GCC5/AARCH64/ShellPkg/Library/UefiShellDriver1CommandsLib/UefiShellDriver1CommandsLib/OUTPUT/UefiShellDriver1CommandsLib.lib(DevTree.obj)
                              UefiShellDriver1CommandsLib.obj (symbol from plugin) (ShellCommandRunDevTree)
/home/uwe/git/ms/iot_core_tx8mmini/mu_platform_nxp/Build/TX8M_MINI_EVK_1GB/RELEASE_GCC5/AARCH64/ShellPkg/Library/UefiShellDriver1CommandsLib/UefiShellDriver1CommandsLib/OUTPUT/UefiShellDriver1CommandsLib.lib(DrvCfg.obj)
                              UefiShellDriver1CommandsLib.obj (symbol from plugin) (ShellCommandRunDrvCfg)
/home/uwe/git/ms/iot_core_tx8mmini/mu_platform_nxp/Build/TX8M_MINI_EVK_1GB/RELEASE_GCC5/AARCH64/ShellPkg/Library/UefiShellDebug1CommandsLib/UefiShellDebug1CommandsLib/OUTPUT/UefiShellDebug1CommandsLib.lib(UefiShellDebug1CommandsLib.obj)
                              AutoGen.obj (symbol from plugin) (UefiShellDebug1CommandsLibConstructor)
/home/uwe/git/ms/iot_core_tx8mmini/mu_platform_nxp/Build/TX8M_MINI_EVK_1GB/RELEASE_GCC5/AARCH64/ShellPkg/Library/UefiShellDebug1CommandsLib/UefiShellDebug1CommandsLib/OUTPUT/UefiShellDebug1CommandsLib.lib(Edit.obj)
                              UefiShellDebug1CommandsLib.obj (symbol from plugin) (ShellCommandRunEdit)
/home/uwe/git/ms/iot_core_tx8mmini/mu_platform_nxp/Build/TX8M_MINI_EVK_1GB/RELEASE_GCC5/AARCH64/ShellPkg/Library/UefiShellDebug1CommandsLib/UefiShellDebug1CommandsLib/OUTPUT/UefiShellDebug1CommandsLib.lib(FileBuffer.obj)
                              Edit.obj (symbol from plugin) (FileBufferSetFileName)
/home/uwe/git/ms/iot_core_tx8mmini/mu_platform_nxp/Build/TX8M_MINI_EVK_1GB/RELEASE_GCC5/AARCH64/ShellPkg/Library/UefiShellDebug1CommandsLib/UefiShellDebug1CommandsLib/OUTPUT/UefiShellDebug1CommandsLib.lib(MainTextEditor.obj)
                              Edit.obj (symbol from plugin) (MainEditor)
/home/uwe/git/ms/iot_core_tx8mmini/mu_platform_nxp/Build/TX8M_MINI_EVK_1GB/RELEASE_GCC5/AARCH64/ShellPkg/Library/UefiShellDebug1CommandsLib/UefiShellDebug1CommandsLib/OUTPUT/UefiShellDebug1CommandsLib.lib(Misc.obj)
                              FileBuffer.obj (symbol from plugin) (LineDup)
/home/uwe/git/ms/iot_core_tx8mmini/mu_platform_nxp/Build/TX8M_MINI_EVK_1GB/RELEASE_GCC5/AARCH64/ShellPkg/Library/UefiShellDebug1CommandsLib/UefiShellDebug1CommandsLib/OUTPUT/UefiShellDebug1CommandsLib.lib(HexEdit.obj)
                              UefiShellDebug1CommandsLib.obj (symbol from plugin) (ShellCommandRunHexEdit)
/home/uwe/git/ms/iot_core_tx8mmini/mu_platform_nxp/Build/TX8M_MINI_EVK_1GB/RELEASE_GCC5/AARCH64/ShellPkg/Library/UefiShellDebug1CommandsLib/UefiShellDebug1CommandsLib/OUTPUT/UefiShellDebug1CommandsLib.lib(MainHexEditor.obj)
                              HexEdit.obj (symbol from plugin) (HMainEditorInit)
/home/uwe/git/ms/iot_core_tx8mmini/mu_platform_nxp/Build/TX8M_MINI_EVK_1GB/RELEASE_GCC5/AARCH64/ShellPkg/Library/UefiShellDebug1CommandsLib/UefiShellDebug1CommandsLib/OUTPUT/UefiShellDebug1CommandsLib.lib(Misc.obj)
                              MainHexEditor.obj (symbol from plugin) (HGetTextX)
/home/uwe/git/ms/iot_core_tx8mmini/mu_platform_nxp/Build/TX8M_MINI_EVK_1GB/RELEASE_GCC5/AARCH64/ShellPkg/Library/UefiShellDebug1CommandsLib/UefiShellDebug1CommandsLib/OUTPUT/UefiShellDebug1CommandsLib.lib(AutoGen.obj)
                              UefiShellDebug1CommandsLib.obj (symbol from plugin) (UefiShellDebug1CommandsLibStrings)
/home/uwe/git/ms/iot_core_tx8mmini/mu_platform_nxp/Build/TX8M_MINI_EVK_1GB/RELEASE_GCC5/AARCH64/ShellPkg/Library/UefiShellDebug1CommandsLib/UefiShellDebug1CommandsLib/OUTPUT/UefiShellDebug1CommandsLib.lib(SetSize.obj)
                              UefiShellDebug1CommandsLib.obj (symbol from plugin) (ShellCommandRunSetSize)
/home/uwe/git/ms/iot_core_tx8mmini/mu_platform_nxp/Build/TX8M_MINI_EVK_1GB/RELEASE_GCC5/AARCH64/ShellPkg/Library/UefiShellDebug1CommandsLib/UefiShellDebug1CommandsLib/OUTPUT/UefiShellDebug1CommandsLib.lib(Comp.obj)
                              UefiShellDebug1CommandsLib.obj (symbol from plugin) (ShellCommandRunComp)
/home/uwe/git/ms/iot_core_tx8mmini/mu_platform_nxp/Build/TX8M_MINI_EVK_1GB/RELEASE_GCC5/AARCH64/ShellPkg/Library/UefiShellDebug1CommandsLib/UefiShellDebug1CommandsLib/OUTPUT/UefiShellDebug1CommandsLib.lib(Mode.obj)
                              UefiShellDebug1CommandsLib.obj (symbol from plugin) (ShellCommandRunMode)
/home/uwe/git/ms/iot_core_tx8mmini/mu_platform_nxp/Build/TX8M_MINI_EVK_1GB/RELEASE_GCC5/AARCH64/ShellPkg/Library/UefiShellDebug1CommandsLib/UefiShellDebug1CommandsLib/OUTPUT/UefiShellDebug1CommandsLib.lib(MemMap.obj)
                              UefiShellDebug1CommandsLib.obj (symbol from plugin) (ShellCommandRunMemMap)
/home/uwe/git/ms/iot_core_tx8mmini/mu_platform_nxp/Build/TX8M_MINI_EVK_1GB/RELEASE_GCC5/AARCH64/ShellPkg/Library/UefiShellDebug1CommandsLib/UefiShellDebug1CommandsLib/OUTPUT/UefiShellDebug1CommandsLib.lib(EfiCompress.obj)
                              UefiShellDebug1CommandsLib.obj (symbol from plugin) (ShellCommandRunEfiCompress)
/home/uwe/git/ms/iot_core_tx8mmini/mu_platform_nxp/Build/TX8M_MINI_EVK_1GB/RELEASE_GCC5/AARCH64/ShellPkg/Library/UefiShellDebug1CommandsLib/UefiShellDebug1CommandsLib/OUTPUT/UefiShellDebug1CommandsLib.lib(EfiDecompress.obj)
                              UefiShellDebug1CommandsLib.obj (symbol from plugin) (ShellCommandRunEfiDecompress)
/home/uwe/git/ms/iot_core_tx8mmini/mu_platform_nxp/Build/TX8M_MINI_EVK_1GB/RELEASE_GCC5/AARCH64/ShellPkg/Library/UefiShellDebug1CommandsLib/UefiShellDebug1CommandsLib/OUTPUT/UefiShellDebug1CommandsLib.lib(Dmem.obj)
                              UefiShellDebug1CommandsLib.obj (symbol from plugin) (ShellCommandRunDmem)
/home/uwe/git/ms/iot_core_tx8mmini/mu_platform_nxp/Build/TX8M_MINI_EVK_1GB/RELEASE_GCC5/AARCH64/ShellPkg/Library/UefiShellDebug1CommandsLib/UefiShellDebug1CommandsLib/OUTPUT/UefiShellDebug1CommandsLib.lib(LoadPciRom.obj)
                              UefiShellDebug1CommandsLib.obj (symbol from plugin) (ShellCommandRunLoadPciRom)
/home/uwe/git/ms/iot_core_tx8mmini/mu_platform_nxp/Build/TX8M_MINI_EVK_1GB/RELEASE_GCC5/AARCH64/ShellPkg/Library/UefiShellDebug1CommandsLib/UefiShellDebug1CommandsLib/OUTPUT/UefiShellDebug1CommandsLib.lib(Mm.obj)
                              UefiShellDebug1CommandsLib.obj (symbol from plugin) (ShellCommandRunMm)
/home/uwe/git/ms/iot_core_tx8mmini/mu_platform_nxp/Build/TX8M_MINI_EVK_1GB/RELEASE_GCC5/AARCH64/ShellPkg/Library/UefiShellDebug1CommandsLib/UefiShellDebug1CommandsLib/OUTPUT/UefiShellDebug1CommandsLib.lib(SetVar.obj)
                              UefiShellDebug1CommandsLib.obj (symbol from plugin) (ShellCommandRunSetVar)
/home/uwe/git/ms/iot_core_tx8mmini/mu_platform_nxp/Build/TX8M_MINI_EVK_1GB/RELEASE_GCC5/AARCH64/ShellPkg/Library/UefiShellDebug1CommandsLib/UefiShellDebug1CommandsLib/OUTPUT/UefiShellDebug1CommandsLib.lib(SerMode.obj)
                              UefiShellDebug1CommandsLib.obj (symbol from plugin) (ShellCommandRunSerMode)
/home/uwe/git/ms/iot_core_tx8mmini/mu_platform_nxp/Build/TX8M_MINI_EVK_1GB/RELEASE_GCC5/AARCH64/ShellPkg/Library/UefiShellDebug1CommandsLib/UefiShellDebug1CommandsLib/OUTPUT/UefiShellDebug1CommandsLib.lib(Pci.obj)
                              UefiShellDebug1CommandsLib.obj (symbol from plugin) (ShellCommandRunPci)
/home/uwe/git/ms/iot_core_tx8mmini/mu_platform_nxp/Build/TX8M_MINI_EVK_1GB/RELEASE_GCC5/AARCH64/ShellPkg/Library/UefiShellDebug1CommandsLib/UefiShellDebug1CommandsLib/OUTPUT/UefiShellDebug1CommandsLib.lib(DmpStore.obj)
                              UefiShellDebug1CommandsLib.obj (symbol from plugin) (ShellCommandRunDmpStore)
/home/uwe/git/ms/iot_core_tx8mmini/mu_platform_nxp/Build/TX8M_MINI_EVK_1GB/RELEASE_GCC5/AARCH64/ShellPkg/Library/UefiShellDebug1CommandsLib/UefiShellDebug1CommandsLib/OUTPUT/UefiShellDebug1CommandsLib.lib(Dblk.obj)
                              UefiShellDebug1CommandsLib.obj (symbol from plugin) (ShellCommandRunDblk)
/home/uwe/git/ms/iot_core_tx8mmini/mu_platform_nxp/Build/TX8M_MINI_EVK_1GB/RELEASE_GCC5/AARCH64/ShellPkg/Library/UefiShellDebug1CommandsLib/UefiShellDebug1CommandsLib/OUTPUT/UefiShellDebug1CommandsLib.lib(SmbiosView.obj)
                              UefiShellDebug1CommandsLib.obj (symbol from plugin) (ShellCommandRunSmbiosView)
/home/uwe/git/ms/iot_core_tx8mmini/mu_platform_nxp/Build/TX8M_MINI_EVK_1GB/RELEASE_GCC5/AARCH64/ShellPkg/Library/UefiShellDebug1CommandsLib/UefiShellDebug1CommandsLib/OUTPUT/UefiShellDebug1CommandsLib.lib(LibSmbiosView.obj)
                              SmbiosView.obj (symbol from plugin) (LibSmbiosInit)
/home/uwe/git/ms/iot_core_tx8mmini/mu_platform_nxp/Build/TX8M_MINI_EVK_1GB/RELEASE_GCC5/AARCH64/ShellPkg/Library/UefiShellDebug1CommandsLib/UefiShellDebug1CommandsLib/OUTPUT/UefiShellDebug1CommandsLib.lib(EditTitleBar.obj)
                              MainTextEditor.obj (symbol from plugin) (MainTitleBarInit)
/home/uwe/git/ms/iot_core_tx8mmini/mu_platform_nxp/Build/TX8M_MINI_EVK_1GB/RELEASE_GCC5/AARCH64/ShellPkg/Library/UefiShellDebug1CommandsLib/UefiShellDebug1CommandsLib/OUTPUT/UefiShellDebug1CommandsLib.lib(EditInputBar.obj)
                              MainTextEditor.obj (symbol from plugin) (InputBarInit)
/home/uwe/git/ms/iot_core_tx8mmini/mu_platform_nxp/Build/TX8M_MINI_EVK_1GB/RELEASE_GCC5/AARCH64/ShellPkg/Library/UefiShellDebug1CommandsLib/UefiShellDebug1CommandsLib/OUTPUT/UefiShellDebug1CommandsLib.lib(EditStatusBar.obj)
                              MainTextEditor.obj (symbol from plugin) (StatusBarCleanup)
/home/uwe/git/ms/iot_core_tx8mmini/mu_platform_nxp/Build/TX8M_MINI_EVK_1GB/RELEASE_GCC5/AARCH64/ShellPkg/Library/UefiShellDebug1CommandsLib/UefiShellDebug1CommandsLib/OUTPUT/UefiShellDebug1CommandsLib.lib(EditMenuBar.obj)
                              MainTextEditor.obj (symbol from plugin) (MenuBarCleanup)
/home/uwe/git/ms/iot_core_tx8mmini/mu_platform_nxp/Build/TX8M_MINI_EVK_1GB/RELEASE_GCC5/AARCH64/ShellPkg/Library/UefiShellDebug1CommandsLib/UefiShellDebug1CommandsLib/OUTPUT/UefiShellDebug1CommandsLib.lib(BufferImage.obj)
                              MainHexEditor.obj (symbol from plugin) (HBufferImage)
/home/uwe/git/ms/iot_core_tx8mmini/mu_platform_nxp/Build/TX8M_MINI_EVK_1GB/RELEASE_GCC5/AARCH64/ShellPkg/Library/UefiShellDebug1CommandsLib/UefiShellDebug1CommandsLib/OUTPUT/UefiShellDebug1CommandsLib.lib(Clipboard.obj)
                              MainHexEditor.obj (symbol from plugin) (HClipBoardInit)
/home/uwe/git/ms/iot_core_tx8mmini/mu_platform_nxp/Build/TX8M_MINI_EVK_1GB/RELEASE_GCC5/AARCH64/ShellPkg/Library/UefiShellDebug1CommandsLib/UefiShellDebug1CommandsLib/OUTPUT/UefiShellDebug1CommandsLib.lib(DiskImage.obj)
                              BufferImage.obj (symbol from plugin) (HDiskImageInit)
/home/uwe/git/ms/iot_core_tx8mmini/mu_platform_nxp/Build/TX8M_MINI_EVK_1GB/RELEASE_GCC5/AARCH64/ShellPkg/Library/UefiShellDebug1CommandsLib/UefiShellDebug1CommandsLib/OUTPUT/UefiShellDebug1CommandsLib.lib(FileImage.obj)
                              BufferImage.obj (symbol from plugin) (HFileImageInit)
/home/uwe/git/ms/iot_core_tx8mmini/mu_platform_nxp/Build/TX8M_MINI_EVK_1GB/RELEASE_GCC5/AARCH64/ShellPkg/Library/UefiShellDebug1CommandsLib/UefiShellDebug1CommandsLib/OUTPUT/UefiShellDebug1CommandsLib.lib(MemImage.obj)
                              BufferImage.obj (symbol from plugin) (HMemImage)
/home/uwe/git/ms/iot_core_tx8mmini/mu_platform_nxp/Build/TX8M_MINI_EVK_1GB/RELEASE_GCC5/AARCH64/ShellPkg/Library/UefiShellDebug1CommandsLib/UefiShellDebug1CommandsLib/OUTPUT/UefiShellDebug1CommandsLib.lib(Compress.obj)
                              EfiCompress.obj (symbol from plugin) (Compress)
/home/uwe/git/ms/iot_core_tx8mmini/mu_platform_nxp/Build/TX8M_MINI_EVK_1GB/RELEASE_GCC5/AARCH64/ShellPkg/Library/UefiShellDebug1CommandsLib/UefiShellDebug1CommandsLib/OUTPUT/UefiShellDebug1CommandsLib.lib(PrintInfo.obj)
                              SmbiosView.obj (symbol from plugin) (SmbiosPrintEPSInfo)
/home/uwe/git/ms/iot_core_tx8mmini/mu_platform_nxp/Build/TX8M_MINI_EVK_1GB/RELEASE_GCC5/AARCH64/ShellPkg/Library/UefiShellDebug1CommandsLib/UefiShellDebug1CommandsLib/OUTPUT/UefiShellDebug1CommandsLib.lib(QueryTable.obj)
                              PrintInfo.obj (symbol from plugin) (DisplaySystemWakeupType)
/home/uwe/git/ms/iot_core_tx8mmini/mu_platform_nxp/Build/TX8M_MINI_EVK_1GB/RELEASE_GCC5/AARCH64/ShellPkg/Library/UefiShellDebug1CommandsLib/UefiShellDebug1CommandsLib/OUTPUT/UefiShellDebug1CommandsLib.lib(EventLogInfo.obj)
                              PrintInfo.obj (symbol from plugin) (DisplaySELAccessMethod)
/home/uwe/git/ms/iot_core_tx8mmini/mu_platform_nxp/Build/TX8M_MINI_EVK_1GB/RELEASE_GCC5/AARCH64/ShellPkg/Library/UefiShellInstall1CommandsLib/UefiShellInstall1CommandsLib/OUTPUT/UefiShellInstall1CommandsLib.lib(UefiShellInstall1CommandsLib.obj)
                              AutoGen.obj (symbol from plugin) (ShellInstall1CommandsLibConstructor)
/home/uwe/git/ms/iot_core_tx8mmini/mu_platform_nxp/Build/TX8M_MINI_EVK_1GB/RELEASE_GCC5/AARCH64/MdePkg/Library/BaseMemoryLibOptDxe/BaseMemoryLibOptDxe/OUTPUT/BaseMemoryLibOptDxe.lib(CompareMemWrapper.obj)
                              HiiLib.obj (symbol from plugin) (CompareMem)
/home/uwe/git/ms/iot_core_tx8mmini/mu_platform_nxp/Build/TX8M_MINI_EVK_1GB/RELEASE_GCC5/AARCH64/MdePkg/Library/BaseMemoryLibOptDxe/BaseMemoryLibOptDxe/OUTPUT/BaseMemoryLibOptDxe.lib(CompareMem.obj)
                              CompareMemWrapper.obj (symbol from plugin) (InternalMemCompareMem)
/home/uwe/git/ms/iot_core_tx8mmini/mu_platform_nxp/Build/TX8M_MINI_EVK_1GB/RELEASE_GCC5/AARCH64/MdePkg/Library/BaseLib/BaseLib/OUTPUT/BaseLib.lib(SwapBytes64.obj)
                              DevicePathFromText.obj (symbol from plugin) (SwapBytes64)
/home/uwe/git/ms/iot_core_tx8mmini/mu_platform_nxp/Build/TX8M_MINI_EVK_1GB/RELEASE_GCC5/AARCH64/MdePkg/Library/BaseLib/BaseLib/OUTPUT/BaseLib.lib(MultU64x64.obj)
                              ArmArchTimerLib.obj (symbol from plugin) (MultU64x64)
/home/uwe/git/ms/iot_core_tx8mmini/mu_platform_nxp/Build/TX8M_MINI_EVK_1GB/RELEASE_GCC5/AARCH64/MdePkg/Library/BaseLib/BaseLib/OUTPUT/BaseLib.lib(ModU64x32.obj)
                              MainHexEditor.obj (symbol from plugin) (ModU64x32)
/home/uwe/git/ms/iot_core_tx8mmini/mu_platform_nxp/Build/TX8M_MINI_EVK_1GB/RELEASE_GCC5/AARCH64/MdePkg/Library/BaseLib/BaseLib/OUTPUT/BaseLib.lib(DivU64x32Remainder.obj)
                              PrintLibInternal.obj (symbol from plugin) (DivU64x32Remainder)
/home/uwe/git/ms/iot_core_tx8mmini/mu_platform_nxp/Build/TX8M_MINI_EVK_1GB/RELEASE_GCC5/AARCH64/MdePkg/Library/BaseLib/BaseLib/OUTPUT/BaseLib.lib(BitField.obj)
                              HiiLib.obj (symbol from plugin) (BitFieldRead32)
/home/uwe/git/ms/iot_core_tx8mmini/mu_platform_nxp/Build/TX8M_MINI_EVK_1GB/RELEASE_GCC5/AARCH64/MdePkg/Library/BaseLib/BaseLib/OUTPUT/BaseLib.lib(Unaligned.obj)
                              PrintLibInternal.obj (symbol from plugin) (ReadUnaligned16)
/home/uwe/git/ms/iot_core_tx8mmini/mu_platform_nxp/Build/TX8M_MINI_EVK_1GB/RELEASE_GCC5/AARCH64/ArmPkg/Library/ArmLib/ArmBaseLib/OUTPUT/ArmBaseLib.lib(AArch64Support.obj)
                              ArmArchTimerLib.obj (symbol from plugin) (ArmIsArchTimerImplemented)
/home/uwe/git/ms/iot_core_tx8mmini/mu_platform_nxp/Build/TX8M_MINI_EVK_1GB/RELEASE_GCC5/AARCH64/MdePkg/Library/BaseIoLibIntrinsic/BaseIoLibIntrinsic/OUTPUT/BaseIoLibIntrinsic.lib(IoLibArm.obj)
                              Mm.obj (symbol from plugin) (IoRead8)
/home/uwe/git/ms/iot_core_tx8mmini/mu_platform_nxp/Build/TX8M_MINI_EVK_1GB/RELEASE_GCC5/AARCH64/MdePkg/Library/BaseDebugPrintErrorLevelLib/BaseDebugPrintErrorLevelLib/OUTPUT/BaseDebugPrintErrorLevelLib.lib(BaseDebugPrintErrorLevelLib.obj)
                              DebugLib.obj (symbol from plugin) (GetDebugPrintErrorLevel)
/home/uwe/git/ms/iot_core_tx8mmini/mu_platform_nxp/Build/TX8M_MINI_EVK_1GB/RELEASE_GCC5/AARCH64/iMXPlatformPkg/Library/UartSerialPortLib/UartSerialPortLib/OUTPUT/SerialPortLib.lib(UartSerialPortLib.obj)
                              DebugLib.obj (symbol from plugin) (SerialPortInitialize)
/home/uwe/git/ms/iot_core_tx8mmini/mu_platform_nxp/Build/TX8M_MINI_EVK_1GB/RELEASE_GCC5/AARCH64/ArmPkg/Library/ArmGenericTimerPhyCounterLib/ArmGenericTimerPhyCounterLib/OUTPUT/ArmGenericTimerPhyCounterLib.lib(ArmGenericTimerPhyCounterLib.obj)
                              ArmArchTimerLib.obj (symbol from plugin) (ArmGenericTimerGetTimerFreq)
/home/uwe/git/ms/iot_core_tx8mmini/mu_platform_nxp/Build/TX8M_MINI_EVK_1GB/RELEASE_GCC5/AARCH64/MdePkg/Library/UefiLib/UefiLib/OUTPUT/UefiLib.lib(UefiLibPrint.obj)
                              DrvCfg.obj (symbol from plugin) (Print)
/home/uwe/git/ms/iot_core_tx8mmini/mu_platform_nxp/Build/TX8M_MINI_EVK_1GB/RELEASE_GCC5/AARCH64/MdePkg/Library/UefiLib/UefiLib/OUTPUT/UefiLib.lib(UefiNotTiano.obj)
                              UefiHandleParsingLib.obj (symbol from plugin) (EfiGetNameGuidFromFwVolDevicePathNode)
/home/uwe/git/ms/iot_core_tx8mmini/mu_platform_nxp/Build/TX8M_MINI_EVK_1GB/RELEASE_GCC5/AARCH64/MdePkg/Library/BasePeCoffGetEntryPointLib/BasePeCoffGetEntryPointLib/OUTPUT/BasePeCoffGetEntryPointLib.lib(PeCoffGetEntryPoint.obj)
                              UefiHandleParsingLib.obj (symbol from plugin) (PeCoffLoaderGetPdbPointer)
/home/uwe/git/ms/iot_core_tx8mmini/mu_platform_nxp/Build/TX8M_MINI_EVK_1GB/RELEASE_GCC5/AARCH64/ShellPkg/Library/UefiShellBcfgCommandLib/UefiShellBcfgCommandLib/OUTPUT/UefiShellBcfgCommandLib.lib(UefiShellBcfgCommandLib.obj)
                              UefiShellDebug1CommandsLib.obj (symbol from plugin) (BcfgLibraryRegisterBcfgCommand)
/home/uwe/git/ms/iot_core_tx8mmini/mu_platform_nxp/Build/TX8M_MINI_EVK_1GB/RELEASE_GCC5/AARCH64/ShellPkg/Library/UefiShellBcfgCommandLib/UefiShellBcfgCommandLib/OUTPUT/UefiShellBcfgCommandLib.lib(AutoGen.obj)
                              UefiShellBcfgCommandLib.obj (symbol from plugin) (UefiShellBcfgCommandLibStrings)
/home/uwe/git/ms/iot_core_tx8mmini/mu_platform_nxp/Build/TX8M_MINI_EVK_1GB/RELEASE_GCC5/AARCH64/ArmPkg/Library/ArmLib/ArmBaseLib/OUTPUT/ArmBaseLib.lib(AArch64ArchTimerSupport.obj)
                              ArmGenericTimerPhyCounterLib.obj (symbol from plugin) (ArmReadCntFrq)
/home/uwe/git/ms/iot_core_tx8mmini/mu_platform_nxp/Build/TX8M_MINI_EVK_1GB/RELEASE_GCC5/AARCH64/MdeModulePkg/Library/UefiBootManagerLib/UefiBootManagerLib/OUTPUT/UefiBootManagerLib.lib(BmLoadOption.obj)
                              UefiShellBcfgCommandLib.obj (symbol from plugin) (EfiBootManagerLoadOptionToVariable)
/home/uwe/git/ms/iot_core_tx8mmini/mu_platform_nxp/Build/TX8M_MINI_EVK_1GB/RELEASE_GCC5/AARCH64/MdeModulePkg/Library/UefiBootManagerLib/UefiBootManagerLib/OUTPUT/UefiBootManagerLib.lib(BmConnect.obj)
                              BmLoadOption.obj (symbol from plugin) (EfiBootManagerConnectDevicePath)
/home/uwe/git/ms/iot_core_tx8mmini/mu_platform_nxp/Build/TX8M_MINI_EVK_1GB/RELEASE_GCC5/AARCH64/MdeModulePkg/Library/UefiBootManagerLib/UefiBootManagerLib/OUTPUT/UefiBootManagerLib.lib(BmMisc.obj)
                              BmLoadOption.obj (symbol from plugin) (BmPrintDp)
/home/uwe/git/ms/iot_core_tx8mmini/mu_platform_nxp/Build/TX8M_MINI_EVK_1GB/RELEASE_GCC5/AARCH64/MdeModulePkg/Library/UefiBootManagerLib/UefiBootManagerLib/OUTPUT/UefiBootManagerLib.lib(BmConsole.obj)
                              BmConnect.obj (symbol from plugin) (EfiBootManagerConnectAllDefaultConsoles)
/home/uwe/git/ms/iot_core_tx8mmini/mu_platform_nxp/Build/TX8M_MINI_EVK_1GB/RELEASE_GCC5/AARCH64/MdeModulePkg/Library/UefiBootManagerLib/UefiBootManagerLib/OUTPUT/UefiBootManagerLib.lib(BmBoot.obj)
                              BmLoadOption.obj (symbol from plugin) (BmGetRamDiskDevicePath)
/home/uwe/git/ms/iot_core_tx8mmini/mu_platform_nxp/Build/TX8M_MINI_EVK_1GB/RELEASE_GCC5/AARCH64/MdeModulePkg/Library/UefiBootManagerLib/UefiBootManagerLib/OUTPUT/UefiBootManagerLib.lib(BmBootDescription.obj)
                              BmBoot.obj (symbol from plugin) (BmGetBootDescription)
/home/uwe/git/ms/iot_core_tx8mmini/mu_platform_nxp/Build/TX8M_MINI_EVK_1GB/RELEASE_GCC5/AARCH64/MdeModulePkg/Library/UefiBootManagerLib/UefiBootManagerLib/OUTPUT/UefiBootManagerLib.lib(BmHotkey.obj)
                              BmBoot.obj (symbol from plugin) (BmStopHotkeyService)
/home/uwe/git/ms/iot_core_tx8mmini/mu_platform_nxp/Build/TX8M_MINI_EVK_1GB/RELEASE_GCC5/AARCH64/MdeModulePkg/Library/UefiBootManagerLib/UefiBootManagerLib/OUTPUT/UefiBootManagerLib.lib(BmDriverHealth.obj)
                              BmBoot.obj (symbol from plugin) (BmRepairAllControllers)
/home/uwe/git/ms/iot_core_tx8mmini/mu_platform_nxp/Build/TX8M_MINI_EVK_1GB/RELEASE_GCC5/AARCH64/MdePkg/Library/BaseLib/BaseLib/OUTPUT/BaseLib.lib(LowBitSet32.obj)
                              BmHotkey.obj (symbol from plugin) (LowBitSet32)
/home/uwe/git/ms/iot_core_tx8mmini/mu_platform_nxp/Build/TX8M_MINI_EVK_1GB/RELEASE_GCC5/AARCH64/MdeModulePkg/Library/DxeReportStatusCodeLib/DxeReportStatusCodeLib/OUTPUT/DxeReportStatusCodeLib.lib(ReportStatusCodeLib.obj)
                              BmMisc.obj (symbol from plugin) (ReportProgressCodeEnabled)
/home/uwe/git/ms/iot_core_tx8mmini/mu_platform_nxp/Build/TX8M_MINI_EVK_1GB/RELEASE_GCC5/AARCH64/MdePkg/Library/DxeServicesLib/DxeServicesLib/OUTPUT/DxeServicesLib.lib(DxeServicesLib.obj)
                              BmBoot.obj (symbol from plugin) (GetSectionFromFv)
/home/uwe/git/ms/iot_core_tx8mmini/mu_platform_nxp/Build/TX8M_MINI_EVK_1GB/RELEASE_GCC5/AARCH64/MdeModulePkg/Library/DxePerformanceLib/DxePerformanceLib/OUTPUT/DxePerformanceLib.lib(DxePerformanceLib.obj)
                              BmBoot.obj (symbol from plugin) (EndPerformanceMeasurementEx)

Discarded input sections

 .text          0x0000000000000000       0x10 /home/uwe/git/ms/iot_core_tx8mmini/mu_platform_nxp/Silicon/ARM/MU_TIANO/ArmPkg/Library/GccLto/liblto-aarch64.a
 .data          0x0000000000000000        0x0 /home/uwe/git/ms/iot_core_tx8mmini/mu_platform_nxp/Silicon/ARM/MU_TIANO/ArmPkg/Library/GccLto/liblto-aarch64.a
 .bss           0x0000000000000000        0x0 /home/uwe/git/ms/iot_core_tx8mmini/mu_platform_nxp/Silicon/ARM/MU_TIANO/ArmPkg/Library/GccLto/liblto-aarch64.a
 .text          0x0000000000000000        0x0 /tmp/ccwaw90K.ltrans0.ltrans.o
 .data          0x0000000000000000        0x0 /tmp/ccwaw90K.ltrans0.ltrans.o
 .bss           0x0000000000000000        0x0 /tmp/ccwaw90K.ltrans0.ltrans.o
 .text.__stack_chk_fail
                0x0000000000000000       0x18 /tmp/ccwaw90K.ltrans0.ltrans.o
 .text.__memset
                0x0000000000000000       0x1c /tmp/ccwaw90K.ltrans0.ltrans.o
 .data.__stack_chk_guard
                0x0000000000000000        0x8 /tmp/ccwaw90K.ltrans0.ltrans.o
 .comment       0x0000000000000000       0x2e /tmp/ccwaw90K.ltrans0.ltrans.o
 .note.GNU-stack
                0x0000000000000000        0x0 /tmp/ccwaw90K.ltrans0.ltrans.o
 .text          0x0000000000000000        0x0 /tmp/ccwaw90K.ltrans1.ltrans.o
 .data          0x0000000000000000        0x0 /tmp/ccwaw90K.ltrans1.ltrans.o
 .bss           0x0000000000000000        0x0 /tmp/ccwaw90K.ltrans1.ltrans.o
 .rodata.SupportLevel
                0x0000000000000000       0x20 /tmp/ccwaw90K.ltrans1.ltrans.o
 .rodata._gPcd_FixedAtBuild_PcdShellFileOperationSize
                0x0000000000000000        0x4 /tmp/ccwaw90K.ltrans1.ltrans.o
 .rodata._gPcd_FixedAtBuild_PcdShellScreenLogCount
                0x0000000000000000        0x1 /tmp/ccwaw90K.ltrans1.ltrans.o
 .rodata.str2.2
                0x0000000000000000       0x30 /tmp/ccwaw90K.ltrans1.ltrans.o
 .comment       0x0000000000000000       0x2e /tmp/ccwaw90K.ltrans1.ltrans.o
 .note.GNU-stack
                0x0000000000000000        0x0 /tmp/ccwaw90K.ltrans1.ltrans.o
 .text          0x0000000000000000        0x0 /tmp/ccwaw90K.ltrans2.ltrans.o
 .data          0x0000000000000000        0x0 /tmp/ccwaw90K.ltrans2.ltrans.o
 .bss           0x0000000000000000        0x0 /tmp/ccwaw90K.ltrans2.ltrans.o
 .rodata._gPcd_FixedAtBuild_PcdDebugPropertyMask
                0x0000000000000000        0x1 /tmp/ccwaw90K.ltrans2.ltrans.o
 .comment       0x0000000000000000       0x2e /tmp/ccwaw90K.ltrans2.ltrans.o
 .note.GNU-stack
                0x0000000000000000        0x0 /tmp/ccwaw90K.ltrans2.ltrans.o
 .text          0x0000000000000000        0x0 /tmp/ccwaw90K.ltrans3.ltrans.o
 .data          0x0000000000000000        0x0 /tmp/ccwaw90K.ltrans3.ltrans.o
 .bss           0x0000000000000000        0x0 /tmp/ccwaw90K.ltrans3.ltrans.o
 .rodata._gPcd_FixedAtBuild_PcdShellDecodeIScsiMapNames
                0x0000000000000000        0x1 /tmp/ccwaw90K.ltrans3.ltrans.o
 .rodata._gPcd_FixedAtBuild_PcdUsbExtendedDecode
                0x0000000000000000        0x1 /tmp/ccwaw90K.ltrans3.ltrans.o
 .comment       0x0000000000000000       0x2e /tmp/ccwaw90K.ltrans3.ltrans.o
 .note.GNU-stack
                0x0000000000000000        0x0 /tmp/ccwaw90K.ltrans3.ltrans.o
 .text          0x0000000000000000        0x0 /tmp/ccwaw90K.ltrans4.ltrans.o
 .data          0x0000000000000000        0x0 /tmp/ccwaw90K.ltrans4.ltrans.o
 .bss           0x0000000000000000        0x0 /tmp/ccwaw90K.ltrans4.ltrans.o
 .comment       0x0000000000000000       0x2e /tmp/ccwaw90K.ltrans4.ltrans.o
 .note.GNU-stack
                0x0000000000000000        0x0 /tmp/ccwaw90K.ltrans4.ltrans.o
 .text          0x0000000000000000        0x0 /tmp/ccwaw90K.ltrans5.ltrans.o
 .data          0x0000000000000000        0x0 /tmp/ccwaw90K.ltrans5.ltrans.o
 .bss           0x0000000000000000        0x0 /tmp/ccwaw90K.ltrans5.ltrans.o
 .comment       0x0000000000000000       0x2e /tmp/ccwaw90K.ltrans5.ltrans.o
 .note.GNU-stack
                0x0000000000000000        0x0 /tmp/ccwaw90K.ltrans5.ltrans.o
 .text          0x0000000000000000        0x0 /tmp/ccwaw90K.ltrans6.ltrans.o
 .data          0x0000000000000000        0x0 /tmp/ccwaw90K.ltrans6.ltrans.o
 .bss           0x0000000000000000        0x0 /tmp/ccwaw90K.ltrans6.ltrans.o
 .comment       0x0000000000000000       0x2e /tmp/ccwaw90K.ltrans6.ltrans.o
 .note.GNU-stack
                0x0000000000000000        0x0 /tmp/ccwaw90K.ltrans6.ltrans.o
 .text          0x0000000000000000        0x0 /tmp/ccwaw90K.ltrans7.ltrans.o
 .data          0x0000000000000000        0x0 /tmp/ccwaw90K.ltrans7.ltrans.o
 .bss           0x0000000000000000        0x0 /tmp/ccwaw90K.ltrans7.ltrans.o
 .text.IoWrite64.constprop.26
                0x0000000000000000        0x8 /tmp/ccwaw90K.ltrans7.ltrans.o
 .text.IoWrite32.constprop.24
                0x0000000000000000        0x4 /tmp/ccwaw90K.ltrans7.ltrans.o
 .text.IoWrite16.constprop.22
                0x0000000000000000        0x4 /tmp/ccwaw90K.ltrans7.ltrans.o
 .text.IoWrite8.constprop.20
                0x0000000000000000        0x4 /tmp/ccwaw90K.ltrans7.ltrans.o
 .rodata._gPcd_FixedAtBuild_PcdMaximumUnicodeStringLength
                0x0000000000000000        0x4 /tmp/ccwaw90K.ltrans7.ltrans.o
 .rodata._gPcd_FixedAtBuild_PcdShellPrintBufferSize
                0x0000000000000000        0x2 /tmp/ccwaw90K.ltrans7.ltrans.o
 .rodata._gUefiDriverRevision
                0x0000000000000000        0x4 /tmp/ccwaw90K.ltrans7.ltrans.o
 .comment       0x0000000000000000       0x2e /tmp/ccwaw90K.ltrans7.ltrans.o
 .note.GNU-stack
                0x0000000000000000        0x0 /tmp/ccwaw90K.ltrans7.ltrans.o
 .text          0x0000000000000000        0x0 /tmp/ccwaw90K.ltrans8.ltrans.o
 .data          0x0000000000000000        0x0 /tmp/ccwaw90K.ltrans8.ltrans.o
 .bss           0x0000000000000000        0x0 /tmp/ccwaw90K.ltrans8.ltrans.o
 .comment       0x0000000000000000       0x2e /tmp/ccwaw90K.ltrans8.ltrans.o
 .note.GNU-stack
                0x0000000000000000        0x0 /tmp/ccwaw90K.ltrans8.ltrans.o
 .text          0x0000000000000000        0x0 ApplicationEntryPoint.obj (symbol from plugin)
 .text          0x0000000000000000        0x0 memcpy.obj (symbol from plugin)
 .text          0x0000000000000000        0x0 memset.obj (symbol from plugin)
 .text          0x0000000000000000        0x0 BaseStackCheckGcc.obj (symbol from plugin)
 .text          0x0000000000000000        0x0 AutoGen.obj (symbol from plugin)
 .text          0x0000000000000000        0x0 Shell.obj (symbol from plugin)
 .text          0x0000000000000000        0x0 ShellParametersProtocol.obj (symbol from plugin)
 .text          0x0000000000000000        0x0 ShellProtocol.obj (symbol from plugin)
 .text          0x0000000000000000        0x0 FileHandleWrappers.obj (symbol from plugin)
 .text          0x0000000000000000        0x0 ShellEnvVar.obj (symbol from plugin)
 .text          0x0000000000000000        0x0 ShellManParser.obj (symbol from plugin)
 .text          0x0000000000000000        0x0 ConsoleLogger.obj (symbol from plugin)
 .text          0x0000000000000000        0x0 ConsoleWrappers.obj (symbol from plugin)
 .text          0x0000000000000000        0x0 MemLibGuid.obj (symbol from plugin)
 .text          0x0000000000000000        0x0 ZeroMemWrapper.obj (symbol from plugin)
 .text          0x0000000000000000        0x0 SetMem16Wrapper.obj (symbol from plugin)
 .text          0x0000000000000000        0x0 SetMemWrapper.obj (symbol from plugin)
 .text          0x0000000000000000        0x0 CopyMemWrapper.obj (symbol from plugin)
 .data          0x0000000000000000        0x0 /home/uwe/git/ms/iot_core_tx8mmini/mu_platform_nxp/Build/TX8M_MINI_EVK_1GB/RELEASE_GCC5/AARCH64/MdePkg/Library/BaseMemoryLibOptDxe/BaseMemoryLibOptDxe/OUTPUT/BaseMemoryLibOptDxe.lib(SetMem.obj)
 .bss           0x0000000000000000        0x0 /home/uwe/git/ms/iot_core_tx8mmini/mu_platform_nxp/Build/TX8M_MINI_EVK_1GB/RELEASE_GCC5/AARCH64/MdePkg/Library/BaseMemoryLibOptDxe/BaseMemoryLibOptDxe/OUTPUT/BaseMemoryLibOptDxe.lib(SetMem.obj)
 .data          0x0000000000000000        0x0 /home/uwe/git/ms/iot_core_tx8mmini/mu_platform_nxp/Build/TX8M_MINI_EVK_1GB/RELEASE_GCC5/AARCH64/MdePkg/Library/BaseMemoryLibOptDxe/BaseMemoryLibOptDxe/OUTPUT/BaseMemoryLibOptDxe.lib(CopyMem.obj)
 .bss           0x0000000000000000        0x0 /home/uwe/git/ms/iot_core_tx8mmini/mu_platform_nxp/Build/TX8M_MINI_EVK_1GB/RELEASE_GCC5/AARCH64/MdePkg/Library/BaseMemoryLibOptDxe/BaseMemoryLibOptDxe/OUTPUT/BaseMemoryLibOptDxe.lib(CopyMem.obj)
 .data          0x0000000000000000        0x0 /home/uwe/git/ms/iot_core_tx8mmini/mu_platform_nxp/Build/TX8M_MINI_EVK_1GB/RELEASE_GCC5/AARCH64/MdePkg/Library/BaseMemoryLibOptDxe/BaseMemoryLibOptDxe/OUTPUT/BaseMemoryLibOptDxe.lib(CompareGuid.obj)
 .bss           0x0000000000000000        0x0 /home/uwe/git/ms/iot_core_tx8mmini/mu_platform_nxp/Build/TX8M_MINI_EVK_1GB/RELEASE_GCC5/AARCH64/MdePkg/Library/BaseMemoryLibOptDxe/BaseMemoryLibOptDxe/OUTPUT/BaseMemoryLibOptDxe.lib(CompareGuid.obj)
 .text          0x0000000000000000        0x0 SetMem64Wrapper.obj (symbol from plugin)
 .text          0x0000000000000000        0x0 CpuDeadLoop.obj (symbol from plugin)
 .text          0x0000000000000000        0x0 LinkedList.obj (symbol from plugin)
 .text          0x0000000000000000        0x0 SafeString.obj (symbol from plugin)
 .text          0x0000000000000000        0x0 String.obj (symbol from plugin)
 .text          0x0000000000000000        0x0 FilePaths.obj (symbol from plugin)
 .text          0x0000000000000000        0x8 /home/uwe/git/ms/iot_core_tx8mmini/mu_platform_nxp/Build/TX8M_MINI_EVK_1GB/RELEASE_GCC5/AARCH64/MdePkg/Library/BaseLib/BaseLib/OUTPUT/BaseLib.lib(CpuBreakpoint.obj)
 .data          0x0000000000000000        0x0 /home/uwe/git/ms/iot_core_tx8mmini/mu_platform_nxp/Build/TX8M_MINI_EVK_1GB/RELEASE_GCC5/AARCH64/MdePkg/Library/BaseLib/BaseLib/OUTPUT/BaseLib.lib(CpuBreakpoint.obj)
 .bss           0x0000000000000000        0x0 /home/uwe/git/ms/iot_core_tx8mmini/mu_platform_nxp/Build/TX8M_MINI_EVK_1GB/RELEASE_GCC5/AARCH64/MdePkg/Library/BaseLib/BaseLib/OUTPUT/BaseLib.lib(CpuBreakpoint.obj)
 .text          0x0000000000000000        0x0 SwapBytes32.obj (symbol from plugin)
 .text          0x0000000000000000        0x0 SwapBytes16.obj (symbol from plugin)
 .text          0x0000000000000000        0x0 RShiftU64.obj (symbol from plugin)
 .text          0x0000000000000000        0x0 MultU64x32.obj (symbol from plugin)
 .text          0x0000000000000000        0x0 LShiftU64.obj (symbol from plugin)
 .text          0x0000000000000000        0x0 DivU64x32.obj (symbol from plugin)
 .text          0x0000000000000000        0x0 Math64.obj (symbol from plugin)
 .text          0x0000000000000000        0x0 PrintLib.obj (symbol from plugin)
 .text          0x0000000000000000        0x0 PrintLibInternal.obj (symbol from plugin)
 .text          0x0000000000000000        0x0 DebugLib.obj (symbol from plugin)
 .text          0x0000000000000000        0x0 ArmArchTimerLib.obj (symbol from plugin)
 .text          0x0000000000000000        0x0 UefiBootServicesTableLib.obj (symbol from plugin)
 .text          0x0000000000000000        0x0 MemoryAllocationLib.obj (symbol from plugin)
 .text          0x0000000000000000        0x0 DevicePathUtilities.obj (symbol from plugin)
 .text          0x0000000000000000        0x0 UefiDevicePathLib.obj (symbol from plugin)
 .text          0x0000000000000000        0x0 DevicePathToText.obj (symbol from plugin)
 .text          0x0000000000000000        0x0 DevicePathFromText.obj (symbol from plugin)
 .text          0x0000000000000000        0x0 UefiRuntimeServicesTableLib.obj (symbol from plugin)
 .text          0x0000000000000000        0x0 UefiHiiServicesLib.obj (symbol from plugin)
 .text          0x0000000000000000        0x0 UefiLib.obj (symbol from plugin)
 .text          0x0000000000000000        0x0 UefiSortLib.obj (symbol from plugin)
 .text          0x0000000000000000        0x0 HiiLib.obj (symbol from plugin)
 .text          0x0000000000000000        0x0 HiiString.obj (symbol from plugin)
 .text          0x0000000000000000        0x0 HiiLanguage.obj (symbol from plugin)
 .text          0x0000000000000000        0x0 UefiFileHandleLib.obj (symbol from plugin)
 .text          0x0000000000000000        0x0 DxeServicesTableLib.obj (symbol from plugin)
 .text          0x0000000000000000        0x0 HobLib.obj (symbol from plugin)
 .text          0x0000000000000000        0x0 UefiShellLib.obj (symbol from plugin)
 .text          0x0000000000000000        0x0 UefiHandleParsingLib.obj (symbol from plugin)
 .text          0x0000000000000000        0x0 AutoGen.obj (symbol from plugin)
 .text          0x0000000000000000        0x0 UefiShellCommandLib.obj (symbol from plugin)
 .text          0x0000000000000000        0x0 ConsistMapping.obj (symbol from plugin)
 .text          0x0000000000000000        0x0 UefiShellLevel2CommandsLib.obj (symbol from plugin)
 .text          0x0000000000000000        0x0 TimeDate.obj (symbol from plugin)
 .text          0x0000000000000000        0x0 Load.obj (symbol from plugin)
 .text          0x0000000000000000        0x0 Ls.obj (symbol from plugin)
 .text          0x0000000000000000        0x0 Map.obj (symbol from plugin)
 .text          0x0000000000000000        0x0 Reset.obj (symbol from plugin)
 .text          0x0000000000000000        0x0 Set.obj (symbol from plugin)
 .text          0x0000000000000000        0x0 MkDir.obj (symbol from plugin)
 .text          0x0000000000000000        0x0 Cd.obj (symbol from plugin)
 .text          0x0000000000000000        0x0 Cp.obj (symbol from plugin)
 .text          0x0000000000000000        0x0 Parse.obj (symbol from plugin)
 .text          0x0000000000000000        0x0 Rm.obj (symbol from plugin)
 .text          0x0000000000000000        0x0 Mv.obj (symbol from plugin)
 .text          0x0000000000000000        0x0 Attrib.obj (symbol from plugin)
 .text          0x0000000000000000        0x0 Vol.obj (symbol from plugin)
 .text          0x0000000000000000        0x0 AutoGen.obj (symbol from plugin)
 .text          0x0000000000000000        0x0 UefiShellLevel1CommandsLib.obj (symbol from plugin)
 .text          0x0000000000000000        0x0 Exit.obj (symbol from plugin)
 .text          0x0000000000000000        0x0 Goto.obj (symbol from plugin)
 .text          0x0000000000000000        0x0 If.obj (symbol from plugin)
 .text          0x0000000000000000        0x0 For.obj (symbol from plugin)
 .text          0x0000000000000000        0x0 Shift.obj (symbol from plugin)
 .text          0x0000000000000000        0x0 Stall.obj (symbol from plugin)
 .text          0x0000000000000000        0x0 AutoGen.obj (symbol from plugin)
 .text          0x0000000000000000        0x0 UefiShellLevel3CommandsLib.obj (symbol from plugin)
 .text          0x0000000000000000        0x0 Cls.obj (symbol from plugin)
 .text          0x0000000000000000        0x0 Alias.obj (symbol from plugin)
 .text          0x0000000000000000        0x0 Echo.obj (symbol from plugin)
 .text          0x0000000000000000        0x0 Pause.obj (symbol from plugin)
 .text          0x0000000000000000        0x0 GetMtc.obj (symbol from plugin)
 .text          0x0000000000000000        0x0 Help.obj (symbol from plugin)
 .text          0x0000000000000000        0x0 AutoGen.obj (symbol from plugin)
 .text          0x0000000000000000        0x0 Type.obj (symbol from plugin)
 .text          0x0000000000000000        0x0 Touch.obj (symbol from plugin)
 .text          0x0000000000000000        0x0 Ver.obj (symbol from plugin)
 .text          0x0000000000000000        0x0 UefiShellDriver1CommandsLib.obj (symbol from plugin)
 .text          0x0000000000000000        0x0 AutoGen.obj (symbol from plugin)
 .text          0x0000000000000000        0x0 Connect.obj (symbol from plugin)
 .text          0x0000000000000000        0x0 Devices.obj (symbol from plugin)
 .text          0x0000000000000000        0x0 OpenInfo.obj (symbol from plugin)
 .text          0x0000000000000000        0x0 Disconnect.obj (symbol from plugin)
 .text          0x0000000000000000        0x0 Reconnect.obj (symbol from plugin)
 .text          0x0000000000000000        0x0 Unload.obj (symbol from plugin)
 .text          0x0000000000000000        0x0 DrvDiag.obj (symbol from plugin)
 .text          0x0000000000000000        0x0 Dh.obj (symbol from plugin)
 .text          0x0000000000000000        0x0 Drivers.obj (symbol from plugin)
 .text          0x0000000000000000        0x0 DevTree.obj (symbol from plugin)
 .text          0x0000000000000000        0x0 DrvCfg.obj (symbol from plugin)
 .text          0x0000000000000000        0x0 UefiShellDebug1CommandsLib.obj (symbol from plugin)
 .text          0x0000000000000000        0x0 Edit.obj (symbol from plugin)
 .text          0x0000000000000000        0x0 FileBuffer.obj (symbol from plugin)
 .text          0x0000000000000000        0x0 MainTextEditor.obj (symbol from plugin)
 .text          0x0000000000000000        0x0 Misc.obj (symbol from plugin)
 .text          0x0000000000000000        0x0 HexEdit.obj (symbol from plugin)
 .text          0x0000000000000000        0x0 MainHexEditor.obj (symbol from plugin)
 .text          0x0000000000000000        0x0 Misc.obj (symbol from plugin)
 .text          0x0000000000000000        0x0 AutoGen.obj (symbol from plugin)
 .text          0x0000000000000000        0x0 SetSize.obj (symbol from plugin)
 .text          0x0000000000000000        0x0 Comp.obj (symbol from plugin)
 .text          0x0000000000000000        0x0 Mode.obj (symbol from plugin)
 .text          0x0000000000000000        0x0 MemMap.obj (symbol from plugin)
 .text          0x0000000000000000        0x0 EfiCompress.obj (symbol from plugin)
 .text          0x0000000000000000        0x0 EfiDecompress.obj (symbol from plugin)
 .text          0x0000000000000000        0x0 Dmem.obj (symbol from plugin)
 .text          0x0000000000000000        0x0 LoadPciRom.obj (symbol from plugin)
 .text          0x0000000000000000        0x0 Mm.obj (symbol from plugin)
 .text          0x0000000000000000        0x0 SetVar.obj (symbol from plugin)
 .text          0x0000000000000000        0x0 SerMode.obj (symbol from plugin)
 .text          0x0000000000000000        0x0 Pci.obj (symbol from plugin)
 .text          0x0000000000000000        0x0 DmpStore.obj (symbol from plugin)
 .text          0x0000000000000000        0x0 Dblk.obj (symbol from plugin)
 .text          0x0000000000000000        0x0 SmbiosView.obj (symbol from plugin)
 .text          0x0000000000000000        0x0 LibSmbiosView.obj (symbol from plugin)
 .text          0x0000000000000000        0x0 EditTitleBar.obj (symbol from plugin)
 .text          0x0000000000000000        0x0 EditInputBar.obj (symbol from plugin)
 .text          0x0000000000000000        0x0 EditStatusBar.obj (symbol from plugin)
 .text          0x0000000000000000        0x0 EditMenuBar.obj (symbol from plugin)
 .text          0x0000000000000000        0x0 BufferImage.obj (symbol from plugin)
 .text          0x0000000000000000        0x0 Clipboard.obj (symbol from plugin)
 .text          0x0000000000000000        0x0 DiskImage.obj (symbol from plugin)
 .text          0x0000000000000000        0x0 FileImage.obj (symbol from plugin)
 .text          0x0000000000000000        0x0 MemImage.obj (symbol from plugin)
 .text          0x0000000000000000        0x0 Compress.obj (symbol from plugin)
 .text          0x0000000000000000        0x0 PrintInfo.obj (symbol from plugin)
 .text          0x0000000000000000        0x0 QueryTable.obj (symbol from plugin)
 .text          0x0000000000000000        0x0 EventLogInfo.obj (symbol from plugin)
 .text          0x0000000000000000        0x0 UefiShellInstall1CommandsLib.obj (symbol from plugin)
 .text          0x0000000000000000        0x0 CompareMemWrapper.obj (symbol from plugin)
 .data          0x0000000000000000        0x0 /home/uwe/git/ms/iot_core_tx8mmini/mu_platform_nxp/Build/TX8M_MINI_EVK_1GB/RELEASE_GCC5/AARCH64/MdePkg/Library/BaseMemoryLibOptDxe/BaseMemoryLibOptDxe/OUTPUT/BaseMemoryLibOptDxe.lib(CompareMem.obj)
 .bss           0x0000000000000000        0x0 /home/uwe/git/ms/iot_core_tx8mmini/mu_platform_nxp/Build/TX8M_MINI_EVK_1GB/RELEASE_GCC5/AARCH64/MdePkg/Library/BaseMemoryLibOptDxe/BaseMemoryLibOptDxe/OUTPUT/BaseMemoryLibOptDxe.lib(CompareMem.obj)
 .text          0x0000000000000000        0x0 SwapBytes64.obj (symbol from plugin)
 .text          0x0000000000000000        0x0 MultU64x64.obj (symbol from plugin)
 .text          0x0000000000000000        0x0 ModU64x32.obj (symbol from plugin)
 .text          0x0000000000000000        0x0 DivU64x32Remainder.obj (symbol from plugin)
 .text          0x0000000000000000        0x0 BitField.obj (symbol from plugin)
 .text          0x0000000000000000        0x0 Unaligned.obj (symbol from plugin)
 .text          0x0000000000000000        0x0 /home/uwe/git/ms/iot_core_tx8mmini/mu_platform_nxp/Build/TX8M_MINI_EVK_1GB/RELEASE_GCC5/AARCH64/ArmPkg/Library/ArmLib/ArmBaseLib/OUTPUT/ArmBaseLib.lib(AArch64Support.obj)
 .data          0x0000000000000000        0x0 /home/uwe/git/ms/iot_core_tx8mmini/mu_platform_nxp/Build/TX8M_MINI_EVK_1GB/RELEASE_GCC5/AARCH64/ArmPkg/Library/ArmLib/ArmBaseLib/OUTPUT/ArmBaseLib.lib(AArch64Support.obj)
 .bss           0x0000000000000000        0x0 /home/uwe/git/ms/iot_core_tx8mmini/mu_platform_nxp/Build/TX8M_MINI_EVK_1GB/RELEASE_GCC5/AARCH64/ArmPkg/Library/ArmLib/ArmBaseLib/OUTPUT/ArmBaseLib.lib(AArch64Support.obj)
 .text.ArmInvalidateDataCacheEntryByMVA
                0x0000000000000000        0x8 /home/uwe/git/ms/iot_core_tx8mmini/mu_platform_nxp/Build/TX8M_MINI_EVK_1GB/RELEASE_GCC5/AARCH64/ArmPkg/Library/ArmLib/ArmBaseLib/OUTPUT/ArmBaseLib.lib(AArch64Support.obj)
 .text.ArmCleanDataCacheEntryByMVA
                0x0000000000000000        0x8 /home/uwe/git/ms/iot_core_tx8mmini/mu_platform_nxp/Build/TX8M_MINI_EVK_1GB/RELEASE_GCC5/AARCH64/ArmPkg/Library/ArmLib/ArmBaseLib/OUTPUT/ArmBaseLib.lib(AArch64Support.obj)
 .text.ArmCleanDataCacheEntryToPoUByMVA
                0x0000000000000000        0x8 /home/uwe/git/ms/iot_core_tx8mmini/mu_platform_nxp/Build/TX8M_MINI_EVK_1GB/RELEASE_GCC5/AARCH64/ArmPkg/Library/ArmLib/ArmBaseLib/OUTPUT/ArmBaseLib.lib(AArch64Support.obj)
 .text.ArmInvalidateInstructionCacheEntryToPoUByMVA
                0x0000000000000000        0x8 /home/uwe/git/ms/iot_core_tx8mmini/mu_platform_nxp/Build/TX8M_MINI_EVK_1GB/RELEASE_GCC5/AARCH64/ArmPkg/Library/ArmLib/ArmBaseLib/OUTPUT/ArmBaseLib.lib(AArch64Support.obj)
 .text.ArmCleanInvalidateDataCacheEntryByMVA
                0x0000000000000000        0x8 /home/uwe/git/ms/iot_core_tx8mmini/mu_platform_nxp/Build/TX8M_MINI_EVK_1GB/RELEASE_GCC5/AARCH64/ArmPkg/Library/ArmLib/ArmBaseLib/OUTPUT/ArmBaseLib.lib(AArch64Support.obj)
 .text.ArmInvalidateDataCacheEntryBySetWay
                0x0000000000000000        0x8 /home/uwe/git/ms/iot_core_tx8mmini/mu_platform_nxp/Build/TX8M_MINI_EVK_1GB/RELEASE_GCC5/AARCH64/ArmPkg/Library/ArmLib/ArmBaseLib/OUTPUT/ArmBaseLib.lib(AArch64Support.obj)
 .text.ArmCleanInvalidateDataCacheEntryBySetWay
                0x0000000000000000        0x8 /home/uwe/git/ms/iot_core_tx8mmini/mu_platform_nxp/Build/TX8M_MINI_EVK_1GB/RELEASE_GCC5/AARCH64/ArmPkg/Library/ArmLib/ArmBaseLib/OUTPUT/ArmBaseLib.lib(AArch64Support.obj)
 .text.ArmCleanDataCacheEntryBySetWay
                0x0000000000000000        0x8 /home/uwe/git/ms/iot_core_tx8mmini/mu_platform_nxp/Build/TX8M_MINI_EVK_1GB/RELEASE_GCC5/AARCH64/ArmPkg/Library/ArmLib/ArmBaseLib/OUTPUT/ArmBaseLib.lib(AArch64Support.obj)
 .text.ArmInvalidateInstructionCache
                0x0000000000000000       0x10 /home/uwe/git/ms/iot_core_tx8mmini/mu_platform_nxp/Build/TX8M_MINI_EVK_1GB/RELEASE_GCC5/AARCH64/ArmPkg/Library/ArmLib/ArmBaseLib/OUTPUT/ArmBaseLib.lib(AArch64Support.obj)
 .text.ArmEnableMmu
                0x0000000000000000       0x88 /home/uwe/git/ms/iot_core_tx8mmini/mu_platform_nxp/Build/TX8M_MINI_EVK_1GB/RELEASE_GCC5/AARCH64/ArmPkg/Library/ArmLib/ArmBaseLib/OUTPUT/ArmBaseLib.lib(AArch64Support.obj)
 .text.ArmDisableMmu
                0x0000000000000000       0x74 /home/uwe/git/ms/iot_core_tx8mmini/mu_platform_nxp/Build/TX8M_MINI_EVK_1GB/RELEASE_GCC5/AARCH64/ArmPkg/Library/ArmLib/ArmBaseLib/OUTPUT/ArmBaseLib.lib(AArch64Support.obj)
 .text.ArmDisableCachesAndMmu
                0x0000000000000000       0x6c /home/uwe/git/ms/iot_core_tx8mmini/mu_platform_nxp/Build/TX8M_MINI_EVK_1GB/RELEASE_GCC5/AARCH64/ArmPkg/Library/ArmLib/ArmBaseLib/OUTPUT/ArmBaseLib.lib(AArch64Support.obj)
 .text.ArmMmuEnabled
                0x0000000000000000       0x34 /home/uwe/git/ms/iot_core_tx8mmini/mu_platform_nxp/Build/TX8M_MINI_EVK_1GB/RELEASE_GCC5/AARCH64/ArmPkg/Library/ArmLib/ArmBaseLib/OUTPUT/ArmBaseLib.lib(AArch64Support.obj)
 .text.ArmEnableDataCache
                0x0000000000000000       0x68 /home/uwe/git/ms/iot_core_tx8mmini/mu_platform_nxp/Build/TX8M_MINI_EVK_1GB/RELEASE_GCC5/AARCH64/ArmPkg/Library/ArmLib/ArmBaseLib/OUTPUT/ArmBaseLib.lib(AArch64Support.obj)
 .text.ArmDisableDataCache
                0x0000000000000000       0x68 /home/uwe/git/ms/iot_core_tx8mmini/mu_platform_nxp/Build/TX8M_MINI_EVK_1GB/RELEASE_GCC5/AARCH64/ArmPkg/Library/ArmLib/ArmBaseLib/OUTPUT/ArmBaseLib.lib(AArch64Support.obj)
 .text.ArmEnableInstructionCache
                0x0000000000000000       0x68 /home/uwe/git/ms/iot_core_tx8mmini/mu_platform_nxp/Build/TX8M_MINI_EVK_1GB/RELEASE_GCC5/AARCH64/ArmPkg/Library/ArmLib/ArmBaseLib/OUTPUT/ArmBaseLib.lib(AArch64Support.obj)
 .text.ArmDisableInstructionCache
                0x0000000000000000       0x68 /home/uwe/git/ms/iot_core_tx8mmini/mu_platform_nxp/Build/TX8M_MINI_EVK_1GB/RELEASE_GCC5/AARCH64/ArmPkg/Library/ArmLib/ArmBaseLib/OUTPUT/ArmBaseLib.lib(AArch64Support.obj)
 .text.ArmEnableAlignmentCheck
                0x0000000000000000       0x58 /home/uwe/git/ms/iot_core_tx8mmini/mu_platform_nxp/Build/TX8M_MINI_EVK_1GB/RELEASE_GCC5/AARCH64/ArmPkg/Library/ArmLib/ArmBaseLib/OUTPUT/ArmBaseLib.lib(AArch64Support.obj)
 .text.ArmDisableAlignmentCheck
                0x0000000000000000       0x68 /home/uwe/git/ms/iot_core_tx8mmini/mu_platform_nxp/Build/TX8M_MINI_EVK_1GB/RELEASE_GCC5/AARCH64/ArmPkg/Library/ArmLib/ArmBaseLib/OUTPUT/ArmBaseLib.lib(AArch64Support.obj)
 .text.ArmEnableStackAlignmentCheck
                0x0000000000000000       0x58 /home/uwe/git/ms/iot_core_tx8mmini/mu_platform_nxp/Build/TX8M_MINI_EVK_1GB/RELEASE_GCC5/AARCH64/ArmPkg/Library/ArmLib/ArmBaseLib/OUTPUT/ArmBaseLib.lib(AArch64Support.obj)
 .text.ArmDisableStackAlignmentCheck
                0x0000000000000000       0x68 /home/uwe/git/ms/iot_core_tx8mmini/mu_platform_nxp/Build/TX8M_MINI_EVK_1GB/RELEASE_GCC5/AARCH64/ArmPkg/Library/ArmLib/ArmBaseLib/OUTPUT/ArmBaseLib.lib(AArch64Support.obj)
 .text.ArmEnableBranchPrediction
                0x0000000000000000        0x4 /home/uwe/git/ms/iot_core_tx8mmini/mu_platform_nxp/Build/TX8M_MINI_EVK_1GB/RELEASE_GCC5/AARCH64/ArmPkg/Library/ArmLib/ArmBaseLib/OUTPUT/ArmBaseLib.lib(AArch64Support.obj)
 .text.ArmDisableBranchPrediction
                0x0000000000000000        0x4 /home/uwe/git/ms/iot_core_tx8mmini/mu_platform_nxp/Build/TX8M_MINI_EVK_1GB/RELEASE_GCC5/AARCH64/ArmPkg/Library/ArmLib/ArmBaseLib/OUTPUT/ArmBaseLib.lib(AArch64Support.obj)
 .text.AArch64AllDataCachesOperation
                0x0000000000000000       0xa8 /home/uwe/git/ms/iot_core_tx8mmini/mu_platform_nxp/Build/TX8M_MINI_EVK_1GB/RELEASE_GCC5/AARCH64/ArmPkg/Library/ArmLib/ArmBaseLib/OUTPUT/ArmBaseLib.lib(AArch64Support.obj)
 .text.ArmDataMemoryBarrier
                0x0000000000000000        0x8 /home/uwe/git/ms/iot_core_tx8mmini/mu_platform_nxp/Build/TX8M_MINI_EVK_1GB/RELEASE_GCC5/AARCH64/ArmPkg/Library/ArmLib/ArmBaseLib/OUTPUT/ArmBaseLib.lib(AArch64Support.obj)
 .text.ArmDataSynchronizationBarrier
                0x0000000000000000        0x8 /home/uwe/git/ms/iot_core_tx8mmini/mu_platform_nxp/Build/TX8M_MINI_EVK_1GB/RELEASE_GCC5/AARCH64/ArmPkg/Library/ArmLib/ArmBaseLib/OUTPUT/ArmBaseLib.lib(AArch64Support.obj)
 .text.ArmInstructionSynchronizationBarrier
                0x0000000000000000        0x8 /home/uwe/git/ms/iot_core_tx8mmini/mu_platform_nxp/Build/TX8M_MINI_EVK_1GB/RELEASE_GCC5/AARCH64/ArmPkg/Library/ArmLib/ArmBaseLib/OUTPUT/ArmBaseLib.lib(AArch64Support.obj)
 .text.ArmWriteVBar
                0x0000000000000000       0x34 /home/uwe/git/ms/iot_core_tx8mmini/mu_platform_nxp/Build/TX8M_MINI_EVK_1GB/RELEASE_GCC5/AARCH64/ArmPkg/Library/ArmLib/ArmBaseLib/OUTPUT/ArmBaseLib.lib(AArch64Support.obj)
 .text.ArmReadVBar
                0x0000000000000000       0x30 /home/uwe/git/ms/iot_core_tx8mmini/mu_platform_nxp/Build/TX8M_MINI_EVK_1GB/RELEASE_GCC5/AARCH64/ArmPkg/Library/ArmLib/ArmBaseLib/OUTPUT/ArmBaseLib.lib(AArch64Support.obj)
 .text.ArmEnableVFP
                0x0000000000000000       0x64 /home/uwe/git/ms/iot_core_tx8mmini/mu_platform_nxp/Build/TX8M_MINI_EVK_1GB/RELEASE_GCC5/AARCH64/ArmPkg/Library/ArmLib/ArmBaseLib/OUTPUT/ArmBaseLib.lib(AArch64Support.obj)
 .text.ArmCallWFI
                0x0000000000000000        0x8 /home/uwe/git/ms/iot_core_tx8mmini/mu_platform_nxp/Build/TX8M_MINI_EVK_1GB/RELEASE_GCC5/AARCH64/ArmPkg/Library/ArmLib/ArmBaseLib/OUTPUT/ArmBaseLib.lib(AArch64Support.obj)
 .text.ArmReadMpidr
                0x0000000000000000        0x8 /home/uwe/git/ms/iot_core_tx8mmini/mu_platform_nxp/Build/TX8M_MINI_EVK_1GB/RELEASE_GCC5/AARCH64/ArmPkg/Library/ArmLib/ArmBaseLib/OUTPUT/ArmBaseLib.lib(AArch64Support.obj)
 .text.ArmReadTpidrurw
                0x0000000000000000        0x8 /home/uwe/git/ms/iot_core_tx8mmini/mu_platform_nxp/Build/TX8M_MINI_EVK_1GB/RELEASE_GCC5/AARCH64/ArmPkg/Library/ArmLib/ArmBaseLib/OUTPUT/ArmBaseLib.lib(AArch64Support.obj)
 .text.ArmWriteTpidrurw
                0x0000000000000000        0x8 /home/uwe/git/ms/iot_core_tx8mmini/mu_platform_nxp/Build/TX8M_MINI_EVK_1GB/RELEASE_GCC5/AARCH64/ArmPkg/Library/ArmLib/ArmBaseLib/OUTPUT/ArmBaseLib.lib(AArch64Support.obj)
 .text.ArmReadIdPfr0
                0x0000000000000000        0x8 /home/uwe/git/ms/iot_core_tx8mmini/mu_platform_nxp/Build/TX8M_MINI_EVK_1GB/RELEASE_GCC5/AARCH64/ArmPkg/Library/ArmLib/ArmBaseLib/OUTPUT/ArmBaseLib.lib(AArch64Support.obj)
 .text.ArmReadIdPfr1
                0x0000000000000000        0x8 /home/uwe/git/ms/iot_core_tx8mmini/mu_platform_nxp/Build/TX8M_MINI_EVK_1GB/RELEASE_GCC5/AARCH64/ArmPkg/Library/ArmLib/ArmBaseLib/OUTPUT/ArmBaseLib.lib(AArch64Support.obj)
 .text.ArmWriteHcr
                0x0000000000000000        0x8 /home/uwe/git/ms/iot_core_tx8mmini/mu_platform_nxp/Build/TX8M_MINI_EVK_1GB/RELEASE_GCC5/AARCH64/ArmPkg/Library/ArmLib/ArmBaseLib/OUTPUT/ArmBaseLib.lib(AArch64Support.obj)
 .text.ArmReadHcr
                0x0000000000000000        0x8 /home/uwe/git/ms/iot_core_tx8mmini/mu_platform_nxp/Build/TX8M_MINI_EVK_1GB/RELEASE_GCC5/AARCH64/ArmPkg/Library/ArmLib/ArmBaseLib/OUTPUT/ArmBaseLib.lib(AArch64Support.obj)
 .text.ArmReadCurrentEL
                0x0000000000000000        0x8 /home/uwe/git/ms/iot_core_tx8mmini/mu_platform_nxp/Build/TX8M_MINI_EVK_1GB/RELEASE_GCC5/AARCH64/ArmPkg/Library/ArmLib/ArmBaseLib/OUTPUT/ArmBaseLib.lib(AArch64Support.obj)
 .text.ArmReadCntHctl
                0x0000000000000000        0x8 /home/uwe/git/ms/iot_core_tx8mmini/mu_platform_nxp/Build/TX8M_MINI_EVK_1GB/RELEASE_GCC5/AARCH64/ArmPkg/Library/ArmLib/ArmBaseLib/OUTPUT/ArmBaseLib.lib(AArch64Support.obj)
 .text.ArmWriteCntHctl
                0x0000000000000000        0x8 /home/uwe/git/ms/iot_core_tx8mmini/mu_platform_nxp/Build/TX8M_MINI_EVK_1GB/RELEASE_GCC5/AARCH64/ArmPkg/Library/ArmLib/ArmBaseLib/OUTPUT/ArmBaseLib.lib(AArch64Support.obj)
 .text          0x0000000000000000        0x0 IoLibArm.obj (symbol from plugin)
 .text          0x0000000000000000        0x0 BaseDebugPrintErrorLevelLib.obj (symbol from plugin)
 .text          0x0000000000000000        0x0 UartSerialPortLib.obj (symbol from plugin)
 .text          0x0000000000000000        0x0 ArmGenericTimerPhyCounterLib.obj (symbol from plugin)
 .text          0x0000000000000000        0x0 UefiLibPrint.obj (symbol from plugin)
 .text          0x0000000000000000        0x0 UefiNotTiano.obj (symbol from plugin)
 .text          0x0000000000000000        0x0 PeCoffGetEntryPoint.obj (symbol from plugin)
 .text          0x0000000000000000        0x0 UefiShellBcfgCommandLib.obj (symbol from plugin)
 .text          0x0000000000000000        0x0 AutoGen.obj (symbol from plugin)
 .text          0x0000000000000000        0x0 /home/uwe/git/ms/iot_core_tx8mmini/mu_platform_nxp/Build/TX8M_MINI_EVK_1GB/RELEASE_GCC5/AARCH64/ArmPkg/Library/ArmLib/ArmBaseLib/OUTPUT/ArmBaseLib.lib(AArch64ArchTimerSupport.obj)
 .data          0x0000000000000000        0x0 /home/uwe/git/ms/iot_core_tx8mmini/mu_platform_nxp/Build/TX8M_MINI_EVK_1GB/RELEASE_GCC5/AARCH64/ArmPkg/Library/ArmLib/ArmBaseLib/OUTPUT/ArmBaseLib.lib(AArch64ArchTimerSupport.obj)
 .bss           0x0000000000000000        0x0 /home/uwe/git/ms/iot_core_tx8mmini/mu_platform_nxp/Build/TX8M_MINI_EVK_1GB/RELEASE_GCC5/AARCH64/ArmPkg/Library/ArmLib/ArmBaseLib/OUTPUT/ArmBaseLib.lib(AArch64ArchTimerSupport.obj)
 .text.ArmReadCntFrq
                0x0000000000000000        0x8 /home/uwe/git/ms/iot_core_tx8mmini/mu_platform_nxp/Build/TX8M_MINI_EVK_1GB/RELEASE_GCC5/AARCH64/ArmPkg/Library/ArmLib/ArmBaseLib/OUTPUT/ArmBaseLib.lib(AArch64ArchTimerSupport.obj)
 .text.ArmWriteCntFrq
                0x0000000000000000        0x8 /home/uwe/git/ms/iot_core_tx8mmini/mu_platform_nxp/Build/TX8M_MINI_EVK_1GB/RELEASE_GCC5/AARCH64/ArmPkg/Library/ArmLib/ArmBaseLib/OUTPUT/ArmBaseLib.lib(AArch64ArchTimerSupport.obj)
 .text.ArmReadCntPct
                0x0000000000000000        0x8 /home/uwe/git/ms/iot_core_tx8mmini/mu_platform_nxp/Build/TX8M_MINI_EVK_1GB/RELEASE_GCC5/AARCH64/ArmPkg/Library/ArmLib/ArmBaseLib/OUTPUT/ArmBaseLib.lib(AArch64ArchTimerSupport.obj)
 .text.ArmReadCntkCtl
                0x0000000000000000        0x8 /home/uwe/git/ms/iot_core_tx8mmini/mu_platform_nxp/Build/TX8M_MINI_EVK_1GB/RELEASE_GCC5/AARCH64/ArmPkg/Library/ArmLib/ArmBaseLib/OUTPUT/ArmBaseLib.lib(AArch64ArchTimerSupport.obj)
 .text.ArmWriteCntkCtl
                0x0000000000000000        0x8 /home/uwe/git/ms/iot_core_tx8mmini/mu_platform_nxp/Build/TX8M_MINI_EVK_1GB/RELEASE_GCC5/AARCH64/ArmPkg/Library/ArmLib/ArmBaseLib/OUTPUT/ArmBaseLib.lib(AArch64ArchTimerSupport.obj)
 .text.ArmReadCntpTval
                0x0000000000000000        0x8 /home/uwe/git/ms/iot_core_tx8mmini/mu_platform_nxp/Build/TX8M_MINI_EVK_1GB/RELEASE_GCC5/AARCH64/ArmPkg/Library/ArmLib/ArmBaseLib/OUTPUT/ArmBaseLib.lib(AArch64ArchTimerSupport.obj)
 .text.ArmWriteCntpTval
                0x0000000000000000        0x8 /home/uwe/git/ms/iot_core_tx8mmini/mu_platform_nxp/Build/TX8M_MINI_EVK_1GB/RELEASE_GCC5/AARCH64/ArmPkg/Library/ArmLib/ArmBaseLib/OUTPUT/ArmBaseLib.lib(AArch64ArchTimerSupport.obj)
 .text.ArmReadCntpCtl
                0x0000000000000000        0x8 /home/uwe/git/ms/iot_core_tx8mmini/mu_platform_nxp/Build/TX8M_MINI_EVK_1GB/RELEASE_GCC5/AARCH64/ArmPkg/Library/ArmLib/ArmBaseLib/OUTPUT/ArmBaseLib.lib(AArch64ArchTimerSupport.obj)
 .text.ArmWriteCntpCtl
                0x0000000000000000        0x8 /home/uwe/git/ms/iot_core_tx8mmini/mu_platform_nxp/Build/TX8M_MINI_EVK_1GB/RELEASE_GCC5/AARCH64/ArmPkg/Library/ArmLib/ArmBaseLib/OUTPUT/ArmBaseLib.lib(AArch64ArchTimerSupport.obj)
 .text.ArmReadCntvTval
                0x0000000000000000        0x8 /home/uwe/git/ms/iot_core_tx8mmini/mu_platform_nxp/Build/TX8M_MINI_EVK_1GB/RELEASE_GCC5/AARCH64/ArmPkg/Library/ArmLib/ArmBaseLib/OUTPUT/ArmBaseLib.lib(AArch64ArchTimerSupport.obj)
 .text.ArmWriteCntvTval
                0x0000000000000000        0x8 /home/uwe/git/ms/iot_core_tx8mmini/mu_platform_nxp/Build/TX8M_MINI_EVK_1GB/RELEASE_GCC5/AARCH64/ArmPkg/Library/ArmLib/ArmBaseLib/OUTPUT/ArmBaseLib.lib(AArch64ArchTimerSupport.obj)
 .text.ArmReadCntvCtl
                0x0000000000000000        0x8 /home/uwe/git/ms/iot_core_tx8mmini/mu_platform_nxp/Build/TX8M_MINI_EVK_1GB/RELEASE_GCC5/AARCH64/ArmPkg/Library/ArmLib/ArmBaseLib/OUTPUT/ArmBaseLib.lib(AArch64ArchTimerSupport.obj)
 .text.ArmWriteCntvCtl
                0x0000000000000000        0x8 /home/uwe/git/ms/iot_core_tx8mmini/mu_platform_nxp/Build/TX8M_MINI_EVK_1GB/RELEASE_GCC5/AARCH64/ArmPkg/Library/ArmLib/ArmBaseLib/OUTPUT/ArmBaseLib.lib(AArch64ArchTimerSupport.obj)
 .text.ArmReadCntvCt
                0x0000000000000000        0x8 /home/uwe/git/ms/iot_core_tx8mmini/mu_platform_nxp/Build/TX8M_MINI_EVK_1GB/RELEASE_GCC5/AARCH64/ArmPkg/Library/ArmLib/ArmBaseLib/OUTPUT/ArmBaseLib.lib(AArch64ArchTimerSupport.obj)
 .text.ArmReadCntpCval
                0x0000000000000000        0x8 /home/uwe/git/ms/iot_core_tx8mmini/mu_platform_nxp/Build/TX8M_MINI_EVK_1GB/RELEASE_GCC5/AARCH64/ArmPkg/Library/ArmLib/ArmBaseLib/OUTPUT/ArmBaseLib.lib(AArch64ArchTimerSupport.obj)
 .text.ArmWriteCntpCval
                0x0000000000000000        0x8 /home/uwe/git/ms/iot_core_tx8mmini/mu_platform_nxp/Build/TX8M_MINI_EVK_1GB/RELEASE_GCC5/AARCH64/ArmPkg/Library/ArmLib/ArmBaseLib/OUTPUT/ArmBaseLib.lib(AArch64ArchTimerSupport.obj)
 .text.ArmReadCntvCval
                0x0000000000000000        0x8 /home/uwe/git/ms/iot_core_tx8mmini/mu_platform_nxp/Build/TX8M_MINI_EVK_1GB/RELEASE_GCC5/AARCH64/ArmPkg/Library/ArmLib/ArmBaseLib/OUTPUT/ArmBaseLib.lib(AArch64ArchTimerSupport.obj)
 .text.ArmWriteCntvCval
                0x0000000000000000        0x8 /home/uwe/git/ms/iot_core_tx8mmini/mu_platform_nxp/Build/TX8M_MINI_EVK_1GB/RELEASE_GCC5/AARCH64/ArmPkg/Library/ArmLib/ArmBaseLib/OUTPUT/ArmBaseLib.lib(AArch64ArchTimerSupport.obj)
 .text.ArmReadCntvOff
                0x0000000000000000        0x8 /home/uwe/git/ms/iot_core_tx8mmini/mu_platform_nxp/Build/TX8M_MINI_EVK_1GB/RELEASE_GCC5/AARCH64/ArmPkg/Library/ArmLib/ArmBaseLib/OUTPUT/ArmBaseLib.lib(AArch64ArchTimerSupport.obj)
 .text.ArmWriteCntvOff
                0x0000000000000000        0x8 /home/uwe/git/ms/iot_core_tx8mmini/mu_platform_nxp/Build/TX8M_MINI_EVK_1GB/RELEASE_GCC5/AARCH64/ArmPkg/Library/ArmLib/ArmBaseLib/OUTPUT/ArmBaseLib.lib(AArch64ArchTimerSupport.obj)
 .text          0x0000000000000000        0x0 BmLoadOption.obj (symbol from plugin)
 .text          0x0000000000000000        0x0 BmConnect.obj (symbol from plugin)
 .text          0x0000000000000000        0x0 BmMisc.obj (symbol from plugin)
 .text          0x0000000000000000        0x0 BmConsole.obj (symbol from plugin)
 .text          0x0000000000000000        0x0 BmBoot.obj (symbol from plugin)
 .text          0x0000000000000000        0x0 BmBootDescription.obj (symbol from plugin)
 .text          0x0000000000000000        0x0 BmHotkey.obj (symbol from plugin)
 .text          0x0000000000000000        0x0 BmDriverHealth.obj (symbol from plugin)
 .text          0x0000000000000000        0x0 LowBitSet32.obj (symbol from plugin)
 .text          0x0000000000000000        0x0 ReportStatusCodeLib.obj (symbol from plugin)
 .text          0x0000000000000000        0x0 DxeServicesLib.obj (symbol from plugin)
 .text          0x0000000000000000        0x0 DxePerformanceLib.obj (symbol from plugin)

Memory Configuration

Name             Origin             Length             Attributes
*default*        0x0000000000000000 0xffffffffffffffff

Linker script and memory map

LOAD /home/uwe/git/ms/iot_core_tx8mmini/mu_platform_nxp/Silicon/ARM/MU_TIANO/ArmPkg/Library/GccLto/liblto-aarch64.a
LOAD /tmp/ccwaw90K.ltrans0.ltrans.o
LOAD /tmp/ccwaw90K.ltrans1.ltrans.o
LOAD /tmp/ccwaw90K.ltrans2.ltrans.o
LOAD /tmp/ccwaw90K.ltrans3.ltrans.o
LOAD /tmp/ccwaw90K.ltrans4.ltrans.o
LOAD /tmp/ccwaw90K.ltrans5.ltrans.o
LOAD /tmp/ccwaw90K.ltrans6.ltrans.o
LOAD /tmp/ccwaw90K.ltrans7.ltrans.o
LOAD /tmp/ccwaw90K.ltrans8.ltrans.o
START GROUP
LOAD /home/uwe/git/ms/iot_core_tx8mmini/mu_platform_nxp/Build/TX8M_MINI_EVK_1GB/RELEASE_GCC5/AARCH64/MdePkg/Library/DxePcdLib/DxePcdLib/OUTPUT/DxePcdLib.lib
LOAD /home/uwe/git/ms/iot_core_tx8mmini/mu_platform_nxp/Build/TX8M_MINI_EVK_1GB/RELEASE_GCC5/AARCH64/MdePkg/Library/BaseMemoryLibOptDxe/BaseMemoryLibOptDxe/OUTPUT/BaseMemoryLibOptDxe.lib
LOAD /home/uwe/git/ms/iot_core_tx8mmini/mu_platform_nxp/Build/TX8M_MINI_EVK_1GB/RELEASE_GCC5/AARCH64/MdePkg/Library/BaseLib/BaseLib/OUTPUT/BaseLib.lib
LOAD /home/uwe/git/ms/iot_core_tx8mmini/mu_platform_nxp/Build/TX8M_MINI_EVK_1GB/RELEASE_GCC5/AARCH64/ArmPkg/Library/ArmLib/ArmBaseLib/OUTPUT/ArmBaseLib.lib
LOAD /home/uwe/git/ms/iot_core_tx8mmini/mu_platform_nxp/Build/TX8M_MINI_EVK_1GB/RELEASE_GCC5/AARCH64/ArmPkg/Library/ArmCacheMaintenanceLib/ArmCacheMaintenanceLib/OUTPUT/ArmCacheMaintenanceLib.lib
LOAD /home/uwe/git/ms/iot_core_tx8mmini/mu_platform_nxp/Build/TX8M_MINI_EVK_1GB/RELEASE_GCC5/AARCH64/MdePkg/Library/BaseIoLibIntrinsic/BaseIoLibIntrinsic/OUTPUT/BaseIoLibIntrinsic.lib
LOAD /home/uwe/git/ms/iot_core_tx8mmini/mu_platform_nxp/Build/TX8M_MINI_EVK_1GB/RELEASE_GCC5/AARCH64/MdePkg/Library/BaseDebugPrintErrorLevelLib/BaseDebugPrintErrorLevelLib/OUTPUT/BaseDebugPrintErrorLevelLib.lib
LOAD /home/uwe/git/ms/iot_core_tx8mmini/mu_platform_nxp/Build/TX8M_MINI_EVK_1GB/RELEASE_GCC5/AARCH64/iMXPlatformPkg/Library/UartSerialPortLib/UartSerialPortLib/OUTPUT/SerialPortLib.lib
LOAD /home/uwe/git/ms/iot_core_tx8mmini/mu_platform_nxp/Build/TX8M_MINI_EVK_1GB/RELEASE_GCC5/AARCH64/MdePkg/Library/BasePrintLib/BasePrintLib/OUTPUT/BasePrintLib.lib
LOAD /home/uwe/git/ms/iot_core_tx8mmini/mu_platform_nxp/Build/TX8M_MINI_EVK_1GB/RELEASE_GCC5/AARCH64/MdePkg/Library/BaseDebugLibSerialPort/BaseDebugLibSerialPort/OUTPUT/BaseDebugLibSerialPort.lib
LOAD /home/uwe/git/ms/iot_core_tx8mmini/mu_platform_nxp/Build/TX8M_MINI_EVK_1GB/RELEASE_GCC5/AARCH64/ArmPkg/Library/ArmGenericTimerPhyCounterLib/ArmGenericTimerPhyCounterLib/OUTPUT/ArmGenericTimerPhyCounterLib.lib
LOAD /home/uwe/git/ms/iot_core_tx8mmini/mu_platform_nxp/Build/TX8M_MINI_EVK_1GB/RELEASE_GCC5/AARCH64/ArmPkg/Library/ArmArchTimerLib/ArmArchTimerLib/OUTPUT/ArmArchTimerLib.lib
LOAD /home/uwe/git/ms/iot_core_tx8mmini/mu_platform_nxp/Build/TX8M_MINI_EVK_1GB/RELEASE_GCC5/AARCH64/MdePkg/Library/UefiBootServicesTableLib/UefiBootServicesTableLib/OUTPUT/UefiBootServicesTableLib.lib
LOAD /home/uwe/git/ms/iot_core_tx8mmini/mu_platform_nxp/Build/TX8M_MINI_EVK_1GB/RELEASE_GCC5/AARCH64/MdePkg/Library/UefiMemoryAllocationLib/UefiMemoryAllocationLib/OUTPUT/UefiMemoryAllocationLib.lib
LOAD /home/uwe/git/ms/iot_core_tx8mmini/mu_platform_nxp/Build/TX8M_MINI_EVK_1GB/RELEASE_GCC5/AARCH64/MdePkg/Library/UefiDevicePathLib/UefiDevicePathLib/OUTPUT/UefiDevicePathLib.lib
LOAD /home/uwe/git/ms/iot_core_tx8mmini/mu_platform_nxp/Build/TX8M_MINI_EVK_1GB/RELEASE_GCC5/AARCH64/MdePkg/Library/UefiRuntimeServicesTableLib/UefiRuntimeServicesTableLib/OUTPUT/UefiRuntimeServicesTableLib.lib
LOAD /home/uwe/git/ms/iot_core_tx8mmini/mu_platform_nxp/Build/TX8M_MINI_EVK_1GB/RELEASE_GCC5/AARCH64/MdeModulePkg/Library/UefiHiiServicesLib/UefiHiiServicesLib/OUTPUT/UefiHiiServicesLib.lib
LOAD /home/uwe/git/ms/iot_core_tx8mmini/mu_platform_nxp/Build/TX8M_MINI_EVK_1GB/RELEASE_GCC5/AARCH64/MdePkg/Library/UefiLib/UefiLib/OUTPUT/UefiLib.lib
LOAD /home/uwe/git/ms/iot_core_tx8mmini/mu_platform_nxp/Build/TX8M_MINI_EVK_1GB/RELEASE_GCC5/AARCH64/MdeModulePkg/Library/UefiSortLib/UefiSortLib/OUTPUT/UefiSortLib.lib
LOAD /home/uwe/git/ms/iot_core_tx8mmini/mu_platform_nxp/Build/TX8M_MINI_EVK_1GB/RELEASE_GCC5/AARCH64/MdeModulePkg/Library/UefiHiiLib/UefiHiiLib/OUTPUT/UefiHiiLib.lib
LOAD /home/uwe/git/ms/iot_core_tx8mmini/mu_platform_nxp/Build/TX8M_MINI_EVK_1GB/RELEASE_GCC5/AARCH64/MdePkg/Library/UefiFileHandleLib/UefiFileHandleLib/OUTPUT/UefiFileHandleLib.lib
LOAD /home/uwe/git/ms/iot_core_tx8mmini/mu_platform_nxp/Build/TX8M_MINI_EVK_1GB/RELEASE_GCC5/AARCH64/MdePkg/Library/BasePeCoffGetEntryPointLib/BasePeCoffGetEntryPointLib/OUTPUT/BasePeCoffGetEntryPointLib.lib
LOAD /home/uwe/git/ms/iot_core_tx8mmini/mu_platform_nxp/Build/TX8M_MINI_EVK_1GB/RELEASE_GCC5/AARCH64/MdeModulePkg/Library/DxeReportStatusCodeLib/DxeReportStatusCodeLib/OUTPUT/DxeReportStatusCodeLib.lib
LOAD /home/uwe/git/ms/iot_core_tx8mmini/mu_platform_nxp/Build/TX8M_MINI_EVK_1GB/RELEASE_GCC5/AARCH64/MdePkg/Library/DxeServicesLib/DxeServicesLib/OUTPUT/DxeServicesLib.lib
LOAD /home/uwe/git/ms/iot_core_tx8mmini/mu_platform_nxp/Build/TX8M_MINI_EVK_1GB/RELEASE_GCC5/AARCH64/MdePkg/Library/DxeServicesTableLib/DxeServicesTableLib/OUTPUT/DxeServicesTableLib.lib
LOAD /home/uwe/git/ms/iot_core_tx8mmini/mu_platform_nxp/Build/TX8M_MINI_EVK_1GB/RELEASE_GCC5/AARCH64/MdeModulePkg/Library/DxePerformanceLib/DxePerformanceLib/OUTPUT/DxePerformanceLib.lib
LOAD /home/uwe/git/ms/iot_core_tx8mmini/mu_platform_nxp/Build/TX8M_MINI_EVK_1GB/RELEASE_GCC5/AARCH64/MdePkg/Library/DxeHobLib/DxeHobLib/OUTPUT/DxeHobLib.lib
LOAD /home/uwe/git/ms/iot_core_tx8mmini/mu_platform_nxp/Build/TX8M_MINI_EVK_1GB/RELEASE_GCC5/AARCH64/ShellPkg/Library/UefiShellLib/UefiShellLib/OUTPUT/UefiShellLib.lib
LOAD /home/uwe/git/ms/iot_core_tx8mmini/mu_platform_nxp/Build/TX8M_MINI_EVK_1GB/RELEASE_GCC5/AARCH64/ShellPkg/Library/UefiHandleParsingLib/UefiHandleParsingLib/OUTPUT/UefiHandleParsingLib.lib
LOAD /home/uwe/git/ms/iot_core_tx8mmini/mu_platform_nxp/Build/TX8M_MINI_EVK_1GB/RELEASE_GCC5/AARCH64/MdeModulePkg/Library/UefiBootManagerLib/UefiBootManagerLib/OUTPUT/UefiBootManagerLib.lib
LOAD /home/uwe/git/ms/iot_core_tx8mmini/mu_platform_nxp/Build/TX8M_MINI_EVK_1GB/RELEASE_GCC5/AARCH64/ShellPkg/Library/UefiShellCommandLib/UefiShellCommandLib/OUTPUT/UefiShellCommandLib.lib
LOAD /home/uwe/git/ms/iot_core_tx8mmini/mu_platform_nxp/Build/TX8M_MINI_EVK_1GB/RELEASE_GCC5/AARCH64/ShellPkg/Library/UefiShellBcfgCommandLib/UefiShellBcfgCommandLib/OUTPUT/UefiShellBcfgCommandLib.lib
LOAD /home/uwe/git/ms/iot_core_tx8mmini/mu_platform_nxp/Build/TX8M_MINI_EVK_1GB/RELEASE_GCC5/AARCH64/MdePkg/Library/UefiApplicationEntryPoint/UefiApplicationEntryPoint/OUTPUT/UefiApplicationEntryPoint.lib
LOAD /home/uwe/git/ms/iot_core_tx8mmini/mu_platform_nxp/Build/TX8M_MINI_EVK_1GB/RELEASE_GCC5/AARCH64/ArmPkg/Library/CompilerIntrinsicsLib/CompilerIntrinsicsLib/OUTPUT/CompilerIntrinsicsLib.lib
LOAD /home/uwe/git/ms/iot_core_tx8mmini/mu_platform_nxp/Build/TX8M_MINI_EVK_1GB/RELEASE_GCC5/AARCH64/MdePkg/Library/BaseStackCheckLib/BaseStackCheckLib/OUTPUT/BaseStackCheckLib.lib
LOAD /home/uwe/git/ms/iot_core_tx8mmini/mu_platform_nxp/Build/TX8M_MINI_EVK_1GB/RELEASE_GCC5/AARCH64/ShellPkg/Library/UefiShellLevel2CommandsLib/UefiShellLevel2CommandsLib/OUTPUT/UefiShellLevel2CommandsLib.lib
LOAD /home/uwe/git/ms/iot_core_tx8mmini/mu_platform_nxp/Build/TX8M_MINI_EVK_1GB/RELEASE_GCC5/AARCH64/ShellPkg/Library/UefiShellLevel1CommandsLib/UefiShellLevel1CommandsLib/OUTPUT/UefiShellLevel1CommandsLib.lib
LOAD /home/uwe/git/ms/iot_core_tx8mmini/mu_platform_nxp/Build/TX8M_MINI_EVK_1GB/RELEASE_GCC5/AARCH64/ShellPkg/Library/UefiShellLevel3CommandsLib/UefiShellLevel3CommandsLib/OUTPUT/UefiShellLevel3CommandsLib.lib
LOAD /home/uwe/git/ms/iot_core_tx8mmini/mu_platform_nxp/Build/TX8M_MINI_EVK_1GB/RELEASE_GCC5/AARCH64/ShellPkg/Library/UefiShellDriver1CommandsLib/UefiShellDriver1CommandsLib/OUTPUT/UefiShellDriver1CommandsLib.lib
LOAD /home/uwe/git/ms/iot_core_tx8mmini/mu_platform_nxp/Build/TX8M_MINI_EVK_1GB/RELEASE_GCC5/AARCH64/ShellPkg/Library/UefiShellDebug1CommandsLib/UefiShellDebug1CommandsLib/OUTPUT/UefiShellDebug1CommandsLib.lib
LOAD /home/uwe/git/ms/iot_core_tx8mmini/mu_platform_nxp/Build/TX8M_MINI_EVK_1GB/RELEASE_GCC5/AARCH64/ShellPkg/Library/UefiShellInstall1CommandsLib/UefiShellInstall1CommandsLib/OUTPUT/UefiShellInstall1CommandsLib.lib
LOAD /home/uwe/git/ms/iot_core_tx8mmini/mu_platform_nxp/Build/TX8M_MINI_EVK_1GB/RELEASE_GCC5/AARCH64/ShellPkg/Application/Shell/Shell/OUTPUT/Shell.lib
END GROUP
                0x0000000000000228                . = PECOFF_HEADER_SIZE

.text           0x0000000000001000    0x681ee
 *(.text .text.* .stub .gnu.linkonce.t.*)
 .text.InternalSafeStringNoStrOverlap
                0x0000000000001000       0x3c /tmp/ccwaw90K.ltrans0.ltrans.o
 .text.GetPreviousNode
                0x000000000000103c        0x8 /tmp/ccwaw90K.ltrans0.ltrans.o
                0x000000000000103c                GetPreviousNode
 .text.GetNextNode
                0x0000000000001044        0x8 /tmp/ccwaw90K.ltrans0.ltrans.o
                0x0000000000001044                GetNextNode
 .text.FileBasedSimpleTextOutTestString
                0x000000000000104c        0x8 /tmp/ccwaw90K.ltrans0.ltrans.o
 .text.FileBasedSimpleTextOutQueryMode
                0x0000000000001054        0xc /tmp/ccwaw90K.ltrans0.ltrans.o
 .text.FileBasedSimpleTextOutSetAttribute
                0x0000000000001060        0x8 /tmp/ccwaw90K.ltrans0.ltrans.o
 .text.FileBasedSimpleTextOutSetCursorPosition
                0x0000000000001068        0x8 /tmp/ccwaw90K.ltrans0.ltrans.o
 .text.FileBasedSimpleTextInReset
                0x0000000000001070        0x8 /tmp/ccwaw90K.ltrans0.ltrans.o
 .text.FileBasedSimpleTextOutEnableCursor
                0x0000000000001078        0x8 /tmp/ccwaw90K.ltrans0.ltrans.o
 .text.FileInterfaceNopGeneric
                0x0000000000001080        0x8 /tmp/ccwaw90K.ltrans0.ltrans.o
 .text.FileBasedSimpleTextOutClearScreen
                0x0000000000001088        0x8 /tmp/ccwaw90K.ltrans0.ltrans.o
 .text.FileInterfaceNopSetPosition
                0x0000000000001090        0x8 /tmp/ccwaw90K.ltrans0.ltrans.o
 .text.FileBasedSimpleTextOutSetMode
                0x0000000000001098        0x8 /tmp/ccwaw90K.ltrans0.ltrans.o
 .text.FileBasedSimpleTextOutReset
                0x00000000000010a0        0x8 /tmp/ccwaw90K.ltrans0.ltrans.o
 .text.ConInWaitForKey
                0x00000000000010a8       0x10 /tmp/ccwaw90K.ltrans0.ltrans.o
 .text.FileBasedSimpleTextInReadKeyStroke
                0x00000000000010b8       0x80 /tmp/ccwaw90K.ltrans0.ltrans.o
 .text.ConsoleLoggerEnableCursor
                0x0000000000001138       0x38 /tmp/ccwaw90K.ltrans0.ltrans.o
 .text.ConsoleLoggerSetCursorPosition
                0x0000000000001170       0x5c /tmp/ccwaw90K.ltrans0.ltrans.o
 .text.ConsoleLoggerClearScreen
                0x00000000000011cc       0xc4 /tmp/ccwaw90K.ltrans0.ltrans.o
 .text.ConsoleLoggerSetAttribute
                0x0000000000001290       0x34 /tmp/ccwaw90K.ltrans0.ltrans.o
 .text.ConsoleLoggerQueryMode
                0x00000000000012c4        0xc /tmp/ccwaw90K.ltrans0.ltrans.o
 .text.ConsoleLoggerTestString
                0x00000000000012d0        0xc /tmp/ccwaw90K.ltrans0.ltrans.o
 .text.UpdateDisplayFromHistory
                0x00000000000012dc      0x20c /tmp/ccwaw90K.ltrans0.ltrans.o
 .text.FileInterfaceFileOpen
                0x00000000000014e8        0xc /tmp/ccwaw90K.ltrans0.ltrans.o
                0x00000000000014e8                FileInterfaceFileOpen
 .text.FileInterfaceFileFlush
                0x00000000000014f4        0xc /tmp/ccwaw90K.ltrans0.ltrans.o
                0x00000000000014f4                FileInterfaceFileFlush
 .text.FileInterfaceFileSetInfo
                0x0000000000001500        0xc /tmp/ccwaw90K.ltrans0.ltrans.o
                0x0000000000001500                FileInterfaceFileSetInfo
 .text.FileInterfaceFileGetInfo
                0x000000000000150c        0xc /tmp/ccwaw90K.ltrans0.ltrans.o
                0x000000000000150c                FileInterfaceFileGetInfo
 .text.FileInterfaceFileGetPosition
                0x0000000000001518        0xc /tmp/ccwaw90K.ltrans0.ltrans.o
                0x0000000000001518                FileInterfaceFileGetPosition
 .text.FileInterfaceFileSetPosition
                0x0000000000001524        0xc /tmp/ccwaw90K.ltrans0.ltrans.o
                0x0000000000001524                FileInterfaceFileSetPosition
 .text.FileInterfaceOpenNotFound
                0x0000000000001530        0xc /tmp/ccwaw90K.ltrans0.ltrans.o
 .text.FileInterfaceMemGetPosition
                0x000000000000153c       0x10 /tmp/ccwaw90K.ltrans0.ltrans.o
 .text.FileInterfaceMemSetPosition
                0x000000000000154c       0x24 /tmp/ccwaw90K.ltrans0.ltrans.o
 .text.FileInterfaceNopSetInfo
                0x0000000000001570        0x8 /tmp/ccwaw90K.ltrans0.ltrans.o
 .text.FileInterfaceNopGetPosition
                0x0000000000001578        0x8 /tmp/ccwaw90K.ltrans0.ltrans.o
 .text.FileInterfaceNopGetInfo
                0x0000000000001580        0x8 /tmp/ccwaw90K.ltrans0.ltrans.o
 .text.FileInterfaceEnvRead
                0x0000000000001588       0x88 /tmp/ccwaw90K.ltrans0.ltrans.o
 .text.FileInterfaceNulWrite
                0x0000000000001610        0x8 /tmp/ccwaw90K.ltrans0.ltrans.o
                0x0000000000001610                FileInterfaceNulWrite
 .text.FileInterfaceNulRead
                0x0000000000001618        0xc /tmp/ccwaw90K.ltrans0.ltrans.o
 .text.FileInterfaceStdInWrite
                0x0000000000001624        0x8 /tmp/ccwaw90K.ltrans0.ltrans.o
 .text.FileInterfaceStdErrRead
                0x000000000000162c        0x8 /tmp/ccwaw90K.ltrans0.ltrans.o
 .text.FileInterfaceStdOutRead
                0x0000000000001634        0x8 /tmp/ccwaw90K.ltrans0.ltrans.o
 .text.FileInterfaceStdErrWrite
                0x000000000000163c       0x18 /tmp/ccwaw90K.ltrans0.ltrans.o
 .text.FileInterfaceStdOutWrite
                0x0000000000001654       0x40 /tmp/ccwaw90K.ltrans0.ltrans.o
 .text.NotificationFunction
                0x0000000000001694       0x9c /tmp/ccwaw90K.ltrans0.ltrans.o
 .text.ToLower  0x0000000000001730       0x30 /tmp/ccwaw90K.ltrans0.ltrans.o
 .text.EfiShellIsRootShell
                0x0000000000001760        0xc /tmp/ccwaw90K.ltrans0.ltrans.o
 .text.EfiShellGetPageBreak
                0x000000000000176c        0xc /tmp/ccwaw90K.ltrans0.ltrans.o
 .text.EfiShellEnablePageBreak
                0x0000000000001778       0x10 /tmp/ccwaw90K.ltrans0.ltrans.o
 .text.EfiShellDisablePageBreak
                0x0000000000001788        0xc /tmp/ccwaw90K.ltrans0.ltrans.o
 .text.unlikely.WriteFileTag
                0x0000000000001794       0x38 /tmp/ccwaw90K.ltrans0.ltrans.o
 .text.CalculateEfiHdrCrc
                0x00000000000017cc       0x44 /tmp/ccwaw90K.ltrans0.ltrans.o
 .text.unlikely.IsUnicodeFile
                0x0000000000001810       0xd4 /tmp/ccwaw90K.ltrans0.ltrans.o
 .text.CloseSimpleTextOutOnFile
                0x00000000000018e4       0x64 /tmp/ccwaw90K.ltrans0.ltrans.o
 .text.CloseSimpleTextInOnFile
                0x0000000000001948       0x80 /tmp/ccwaw90K.ltrans0.ltrans.o
 .text.FileInterfaceFileClose
                0x00000000000019c8       0x38 /tmp/ccwaw90K.ltrans0.ltrans.o
                0x00000000000019c8                FileInterfaceFileClose
 .text.FileInterfaceFileDelete
                0x0000000000001a00       0x38 /tmp/ccwaw90K.ltrans0.ltrans.o
                0x0000000000001a00                FileInterfaceFileDelete
 .text.FileInterfaceMemClose
                0x0000000000001a38       0x38 /tmp/ccwaw90K.ltrans0.ltrans.o
 .text.InternalFreeShellFileInfoNode
                0x0000000000001a70       0x5c /tmp/ccwaw90K.ltrans0.ltrans.o
 .text.unlikely.CreateSimpleTextOutOnFile
                0x0000000000001acc      0x184 /tmp/ccwaw90K.ltrans0.ltrans.o
 .text.IsVolatileEnv
                0x0000000000001c50       0xf8 /tmp/ccwaw90K.ltrans0.ltrans.o
 .text.FileBasedSimpleTextOutOutputString
                0x0000000000001d48       0x4c /tmp/ccwaw90K.ltrans0.ltrans.o
 .text.FindFirstCharacter
                0x0000000000001d94       0xac /tmp/ccwaw90K.ltrans0.ltrans.o
 .text.CreateSimpleTextInOnFile
                0x0000000000001e40       0xfc /tmp/ccwaw90K.ltrans0.ltrans.o
 .text.FixFileName
                0x0000000000001f3c       0x78 /tmp/ccwaw90K.ltrans0.ltrans.o
 .text.FixVarName
                0x0000000000001fb4       0x48 /tmp/ccwaw90K.ltrans0.ltrans.o
 .text.InternalSetAlias
                0x0000000000001ffc       0xe0 /tmp/ccwaw90K.ltrans0.ltrans.o
 .text.InternalDuplicateShellFileInfo
                0x00000000000020dc       0xe4 /tmp/ccwaw90K.ltrans0.ltrans.o
 .text.FileInterfaceFileWrite
                0x00000000000021c0       0x9c /tmp/ccwaw90K.ltrans0.ltrans.o
                0x00000000000021c0                FileInterfaceFileWrite
 .text.EfiShellGetDevicePathFromMap
                0x000000000000225c       0x90 /tmp/ccwaw90K.ltrans0.ltrans.o
 .text.IsCommand
                0x00000000000022ec       0x30 /tmp/ccwaw90K.ltrans0.ltrans.o
 .text.IsScriptOnlyCommand
                0x000000000000231c       0xb0 /tmp/ccwaw90K.ltrans0.ltrans.o
 .text.EfiShellClose
                0x00000000000023cc       0x24 /tmp/ccwaw90K.ltrans0.ltrans.o
 .text.EfiShellRegisterGuidName
                0x00000000000023f0      0x1f0 /tmp/ccwaw90K.ltrans0.ltrans.o
 .text.EfiShellBatchIsActive
                0x00000000000025e0       0x1c /tmp/ccwaw90K.ltrans0.ltrans.o
 .text.EfiShellGetDeviceName
                0x00000000000025fc      0x34c /tmp/ccwaw90K.ltrans0.ltrans.o
 .text.ContainsSplit
                0x0000000000002948       0xfc /tmp/ccwaw90K.ltrans0.ltrans.o
 .text.GetOperationType
                0x0000000000002a44      0x100 /tmp/ccwaw90K.ltrans0.ltrans.o
 .text.AsciiStrnLenS
                0x0000000000002b44       0x3c /tmp/ccwaw90K.ltrans0.ltrans.o
                0x0000000000002b44                AsciiStrnLenS
 .text.AsciiStrToUnicodeStrS
                0x0000000000002b80       0xac /tmp/ccwaw90K.ltrans0.ltrans.o
 .text.StrHexToBytes
                0x0000000000002c2c       0xd8 /tmp/ccwaw90K.ltrans0.ltrans.o
                0x0000000000002c2c                StrHexToBytes
 .text.StrnLenS
                0x0000000000002d04       0x3c /tmp/ccwaw90K.ltrans0.ltrans.o
                0x0000000000002d04                StrnLenS
 .text.StrHexToUintnS
                0x0000000000002d40      0x12c /tmp/ccwaw90K.ltrans0.ltrans.o
                0x0000000000002d40                StrHexToUintnS
 .text.StrDecimalToUintnS
                0x0000000000002e6c       0xf0 /tmp/ccwaw90K.ltrans0.ltrans.o
                0x0000000000002e6c                StrDecimalToUintnS
 .text.StrnCatS
                0x0000000000002f5c       0xf0 /tmp/ccwaw90K.ltrans0.ltrans.o
                0x0000000000002f5c                StrnCatS
 .text.StrCatS  0x000000000000304c       0xc4 /tmp/ccwaw90K.ltrans0.ltrans.o
                0x000000000000304c                StrCatS
 .text.StrnCpyS
                0x0000000000003110       0xd8 /tmp/ccwaw90K.ltrans0.ltrans.o
                0x0000000000003110                StrnCpyS
 .text.StrCpyS  0x00000000000031e8       0xa0 /tmp/ccwaw90K.ltrans0.ltrans.o
                0x00000000000031e8                StrCpyS
 .text.RemoveEntryList
                0x0000000000003288       0x18 /tmp/ccwaw90K.ltrans0.ltrans.o
                0x0000000000003288                RemoveEntryList
 .text.SwapListEntries
                0x00000000000032a0       0x8c /tmp/ccwaw90K.ltrans0.ltrans.o
                0x00000000000032a0                SwapListEntries
 .text.IsNodeAtEnd
                0x000000000000332c       0x20 /tmp/ccwaw90K.ltrans0.ltrans.o
                0x000000000000332c                IsNodeAtEnd
 .text.IsNull   0x000000000000334c        0xc /tmp/ccwaw90K.ltrans0.ltrans.o
                0x000000000000334c                IsNull
 .text.IsListEmpty
                0x0000000000003358       0x10 /tmp/ccwaw90K.ltrans0.ltrans.o
                0x0000000000003358                IsListEmpty
 .text.GetFirstNode
                0x0000000000003368        0x8 /tmp/ccwaw90K.ltrans0.ltrans.o
                0x0000000000003368                GetFirstNode
 .text.FreeEnvironmentVariableList.part.0
                0x0000000000003370       0x64 /tmp/ccwaw90K.ltrans0.ltrans.o
 .text.ShellRemvoeEnvVarFromList
                0x00000000000033d4       0xbc /tmp/ccwaw90K.ltrans0.ltrans.o
 .text.CleanUpShellProtocol
                0x0000000000003490       0xd0 /tmp/ccwaw90K.ltrans0.ltrans.o
 .text.EfiShellGetHelpText
                0x0000000000003560      0x198 /tmp/ccwaw90K.ltrans0.ltrans.o
 .text.EfiShellRemoveDupInFileList
                0x00000000000036f8       0xe8 /tmp/ccwaw90K.ltrans0.ltrans.o
 .text.EfiShellFreeFileList
                0x00000000000037e0       0x84 /tmp/ccwaw90K.ltrans0.ltrans.o
 .text.EfiShellGetFilePathFromDevicePath
                0x0000000000003864      0x1c0 /tmp/ccwaw90K.ltrans0.ltrans.o
 .text.EfiShellSetMap
                0x0000000000003a24      0x180 /tmp/ccwaw90K.ltrans0.ltrans.o
 .text.InsertTailList
                0x0000000000003ba4       0x18 /tmp/ccwaw90K.ltrans0.ltrans.o
                0x0000000000003ba4                InsertTailList
 .text.ShellAddEnvVarToList
                0x0000000000003bbc      0x118 /tmp/ccwaw90K.ltrans0.ltrans.o
 .text.FileInterfaceEnvClose
                0x0000000000003cd4      0x1a8 /tmp/ccwaw90K.ltrans0.ltrans.o
 .text.FileInterfaceEnvDelete
                0x0000000000003e7c       0x48 /tmp/ccwaw90K.ltrans0.ltrans.o
 .text.AddBufferToFreeList
                0x0000000000003ec4       0x4c /tmp/ccwaw90K.ltrans0.ltrans.o
 .text.EfiShellGetGuidName
                0x0000000000003f10       0x70 /tmp/ccwaw90K.ltrans0.ltrans.o
 .text.EfiShellGetMapFromDevicePath
                0x0000000000003f80      0x104 /tmp/ccwaw90K.ltrans0.ltrans.o
 .text.EfiShellOpenRootByHandle
                0x0000000000004084       0xcc /tmp/ccwaw90K.ltrans0.ltrans.o
 .text.EfiShellOpenRoot
                0x0000000000004150       0x68 /tmp/ccwaw90K.ltrans0.ltrans.o
 .text.InsertHeadList
                0x00000000000041b8       0x14 /tmp/ccwaw90K.ltrans0.ltrans.o
                0x00000000000041b8                InsertHeadList
 .text.InitializeListHead
                0x00000000000041cc        0x8 /tmp/ccwaw90K.ltrans0.ltrans.o
                0x00000000000041cc                InitializeListHead
 .text.EfiShellFindFilesInDir
                0x00000000000041d4      0x368 /tmp/ccwaw90K.ltrans0.ltrans.o
 .text.ProcessLibraryConstructorList
                0x000000000000453c      0xec8 /tmp/ccwaw90K.ltrans0.ltrans.o
 .text.CopyMem  0x0000000000005404       0x1c /tmp/ccwaw90K.ltrans0.ltrans.o
                0x0000000000005404                CopyMem
 .text.ConsoleLoggerResetBuffers
                0x0000000000005420       0xdc /tmp/ccwaw90K.ltrans0.ltrans.o
 .text.ConsoleLoggerSetMode
                0x00000000000054fc       0x64 /tmp/ccwaw90K.ltrans0.ltrans.o
 .text.ConsoleLoggerReset
                0x0000000000005560       0x54 /tmp/ccwaw90K.ltrans0.ltrans.o
 .text.FileInterfaceFileRead
                0x00000000000055b4      0x148 /tmp/ccwaw90K.ltrans0.ltrans.o
                0x00000000000055b4                FileInterfaceFileRead
 .text.FileInterfaceMemRead
                0x00000000000056fc       0x64 /tmp/ccwaw90K.ltrans0.ltrans.o
 .text.FileInterfaceMemWrite
                0x0000000000005760      0x154 /tmp/ccwaw90K.ltrans0.ltrans.o
 .text.CreateFileInterfaceEnv
                0x00000000000058b4      0x100 /tmp/ccwaw90K.ltrans0.ltrans.o
 .text.FileInterfaceEnvVolWrite
                0x00000000000059b4      0x188 /tmp/ccwaw90K.ltrans0.ltrans.o
 .text.FileInterfaceEnvNonVolWrite
                0x0000000000005b3c      0x188 /tmp/ccwaw90K.ltrans0.ltrans.o
 .text.GetNextParameter
                0x0000000000005cc4      0x1c4 /tmp/ccwaw90K.ltrans0.ltrans.o
 .text.TrimSpaces
                0x0000000000005e88       0x84 /tmp/ccwaw90K.ltrans0.ltrans.o
 .text.SetMem   0x0000000000005f0c       0x10 /tmp/ccwaw90K.ltrans0.ltrans.o
                0x0000000000005f0c                SetMem
 .text.SetMem16
                0x0000000000005f1c       0x14 /tmp/ccwaw90K.ltrans0.ltrans.o
                0x0000000000005f1c                SetMem16
 .text.AppendStringToHistory
                0x0000000000005f30      0x1e8 /tmp/ccwaw90K.ltrans0.ltrans.o
 .text.ConsoleLoggerOutputStringSplit
                0x0000000000006118       0x48 /tmp/ccwaw90K.ltrans0.ltrans.o
 .text.ConsoleLoggerOutputString
                0x0000000000006160      0x2e0 /tmp/ccwaw90K.ltrans0.ltrans.o
 .text.ZeroMem  0x0000000000006440        0xc /tmp/ccwaw90K.ltrans0.ltrans.o
                0x0000000000006440                ZeroMem
 .text.FileInterfaceStdInRead
                0x000000000000644c      0xcd8 /tmp/ccwaw90K.ltrans0.ltrans.o
 .text.CompareGuid
                0x0000000000007124        0x4 /tmp/ccwaw90K.ltrans0.ltrans.o
                0x0000000000007124                CompareGuid
 .text.GetEnvironmentVariableList
                0x0000000000007128      0x270 /tmp/ccwaw90K.ltrans0.ltrans.o
 .text.SetEnvironmentVariableList
                0x0000000000007398      0x138 /tmp/ccwaw90K.ltrans0.ltrans.o
 .text.SetEnvironmentVariables.part.1
                0x00000000000074d0      0x18c /tmp/ccwaw90K.ltrans0.ltrans.o
 .text.EfiShellGetEnvEx
                0x000000000000765c      0x224 /tmp/ccwaw90K.ltrans0.ltrans.o
 .text.EfiShellGetEnv
                0x0000000000007880        0x8 /tmp/ccwaw90K.ltrans0.ltrans.o
 .text.EfiShellGetCurDir
                0x0000000000007888       0x98 /tmp/ccwaw90K.ltrans0.ltrans.o
 .text.EfiShellGetDevicePathFromFilePath
                0x0000000000007920      0x1e4 /tmp/ccwaw90K.ltrans0.ltrans.o
 .text.ProcessCommandLineToFinal
                0x0000000000007b04      0x718 /tmp/ccwaw90K.ltrans0.ltrans.o
 .text.FileInterfaceMemGetInfo
                0x000000000000821c       0x94 /tmp/ccwaw90K.ltrans0.ltrans.o
 .text.EfiShellGetAlias
                0x00000000000082b0      0x254 /tmp/ccwaw90K.ltrans0.ltrans.o
 .text.EfiShellSetAlias
                0x0000000000008504       0x9c /tmp/ccwaw90K.ltrans0.ltrans.o
 .text.CopyGuid
                0x00000000000085a0        0x8 /tmp/ccwaw90K.ltrans0.ltrans.o
                0x00000000000085a0                CopyGuid
 .text.StrToGuid
                0x00000000000085a8      0x11c /tmp/ccwaw90K.ltrans0.ltrans.o
                0x00000000000085a8                StrToGuid
 .text.EfiShellGetGuidFromName
                0x00000000000086c4       0x58 /tmp/ccwaw90K.ltrans0.ltrans.o
 .text.ManFileFindSections
                0x000000000000871c      0x1d4 /tmp/ccwaw90K.ltrans0.ltrans.o
                0x000000000000871c                ManFileFindSections
 .text.CreateFileInterfaceMem
                0x00000000000088f0       0xe0 /tmp/ccwaw90K.ltrans0.ltrans.o
                0x00000000000088f0                CreateFileInterfaceMem
 .text.InternalEfiShellSetEnv
                0x00000000000089d0      0x114 /tmp/ccwaw90K.ltrans0.ltrans.o
                0x00000000000089d0                InternalEfiShellSetEnv
 .text.EfiShellSetCurDir
                0x0000000000008ae4      0x2b4 /tmp/ccwaw90K.ltrans0.ltrans.o
 .text.EfiShellSetEnv
                0x0000000000008d98       0xfc /tmp/ccwaw90K.ltrans0.ltrans.o
 .text.SetLastError
                0x0000000000008e94       0x60 /tmp/ccwaw90K.ltrans0.ltrans.o
 .text.InternalOpenFileDevicePath
                0x0000000000008ef4      0x1fc /tmp/ccwaw90K.ltrans0.ltrans.o
                0x0000000000008ef4                InternalOpenFileDevicePath
 .text.EfiShellOpenFileByName
                0x00000000000090f0      0x178 /tmp/ccwaw90K.ltrans0.ltrans.o
                0x00000000000090f0                EfiShellOpenFileByName
 .text.ShellSearchHandle.part.10
                0x0000000000009268      0x398 /tmp/ccwaw90K.ltrans0.ltrans.o
 .text.EfiShellFindFiles
                0x0000000000009600      0x154 /tmp/ccwaw90K.ltrans0.ltrans.o
 .text.EfiShellOpenFileList
                0x0000000000009754      0x184 /tmp/ccwaw90K.ltrans0.ltrans.o
 .text.EfiShellCreateFile
                0x00000000000098d8       0xb8 /tmp/ccwaw90K.ltrans0.ltrans.o
 .text.EfiShellDeleteFileByName
                0x0000000000009990       0x40 /tmp/ccwaw90K.ltrans0.ltrans.o
 .text.RestoreArgcArgv
                0x00000000000099d0       0x74 /tmp/ccwaw90K.ltrans0.ltrans.o
                0x00000000000099d0                RestoreArgcArgv
 .text.ParseCommandLineToArgs
                0x0000000000009a44      0x1a0 /tmp/ccwaw90K.ltrans0.ltrans.o
                0x0000000000009a44                ParseCommandLineToArgs
 .text.InternalShellExecuteDevicePath
                0x0000000000009be4      0x2f4 /tmp/ccwaw90K.ltrans0.ltrans.o
 .text.RunShellCommand
                0x0000000000009ed8     0x19ac /tmp/ccwaw90K.ltrans0.ltrans.o
                0x0000000000009ed8                RunShellCommand
 .text.EfiShellExecute
                0x000000000000b884      0x254 /tmp/ccwaw90K.ltrans0.ltrans.o
 .text.RestoreBufferList
                0x000000000000bad8       0x38 /tmp/ccwaw90K.ltrans0.ltrans.o
                0x000000000000bad8                RestoreBufferList
 .text.memcpy   0x000000000000bb10       0x20 /tmp/ccwaw90K.ltrans0.ltrans.o
                0x000000000000bb10                memcpy
 .text._ModuleEntryPoint
                0x000000000000bb30     0x1d28 /tmp/ccwaw90K.ltrans0.ltrans.o
                0x000000000000bb30                _ModuleEntryPoint
 .text.ShellCommandGetManFileNameDriver1
                0x000000000000d858        0xc /tmp/ccwaw90K.ltrans1.ltrans.o
                0x000000000000d858                ShellCommandGetManFileNameDriver1
 .text.ShellCommandGetManFileNameLevel3
                0x000000000000d864        0xc /tmp/ccwaw90K.ltrans1.ltrans.o
                0x000000000000d864                ShellCommandGetManFileNameLevel3
 .text.ShellCommandGetManFileNameLevel1
                0x000000000000d870        0xc /tmp/ccwaw90K.ltrans1.ltrans.o
                0x000000000000d870                ShellCommandGetManFileNameLevel1
 .text.ShellLevel3CommandsLibSetAlias
                0x000000000000d87c       0xc4 /tmp/ccwaw90K.ltrans1.ltrans.o
 .text.GetDriverImageName
                0x000000000000d940       0x78 /tmp/ccwaw90K.ltrans1.ltrans.o
 .text.ShellCommandRunDrivers
                0x000000000000d9b8      0x800 /tmp/ccwaw90K.ltrans1.ltrans.o
                0x000000000000d9b8                ShellCommandRunDrivers
 .text.unlikely.ReturnUintn
                0x000000000000e1b8       0x2c /tmp/ccwaw90K.ltrans1.ltrans.o
 .text.ShellCommandRunVer
                0x000000000000e1e4      0x2b0 /tmp/ccwaw90K.ltrans1.ltrans.o
                0x000000000000e1e4                ShellCommandRunVer
 .text.ShellCommandRunGetMtc
                0x000000000000e494      0x158 /tmp/ccwaw90K.ltrans1.ltrans.o
                0x000000000000e494                ShellCommandRunGetMtc
 .text.ShellCommandRunStall
                0x000000000000e5ec      0x19c /tmp/ccwaw90K.ltrans1.ltrans.o
                0x000000000000e5ec                ShellCommandRunStall
 .text.ShellCommandRunOpenInfo
                0x000000000000e788      0x360 /tmp/ccwaw90K.ltrans1.ltrans.o
                0x000000000000e788                ShellCommandRunOpenInfo
 .text.ShellCommandRunEcho
                0x000000000000eae8      0x1bc /tmp/ccwaw90K.ltrans1.ltrans.o
                0x000000000000eae8                ShellCommandRunEcho
 .text.GetProtocolInfoString
                0x000000000000eca4      0x284 /tmp/ccwaw90K.ltrans1.ltrans.o
 .text.GetDriverName
                0x000000000000ef28       0xf4 /tmp/ccwaw90K.ltrans1.ltrans.o
 .text.DoDhByHandle
                0x000000000000f01c      0xa98 /tmp/ccwaw90K.ltrans1.ltrans.o
 .text.DoDhByProtocolGuid
                0x000000000000fab4      0x100 /tmp/ccwaw90K.ltrans1.ltrans.o
 .text.ConvertStrToGuid
                0x000000000000fbb4      0x1ac /tmp/ccwaw90K.ltrans1.ltrans.o
 .text.ShellCommandRunDh
                0x000000000000fd60      0x57c /tmp/ccwaw90K.ltrans1.ltrans.o
                0x000000000000fd60                ShellCommandRunDh
 .text.ShellCommandRunDrvDiag
                0x00000000000102dc      0x938 /tmp/ccwaw90K.ltrans1.ltrans.o
                0x00000000000102dc                ShellCommandRunDrvDiag
 .text.ShellCommandRunUnload
                0x0000000000010c14      0x2e4 /tmp/ccwaw90K.ltrans1.ltrans.o
                0x0000000000010c14                ShellCommandRunUnload
 .text.ShellCommandRunDevices
                0x0000000000010ef8      0x4cc /tmp/ccwaw90K.ltrans1.ltrans.o
                0x0000000000010ef8                ShellCommandRunDevices
 .text.ShellConnectFromDevPaths
                0x00000000000113c4      0x388 /tmp/ccwaw90K.ltrans1.ltrans.o
 .text.ShellCommandRunDisconnect
                0x000000000001174c      0x438 /tmp/ccwaw90K.ltrans1.ltrans.o
                0x000000000001174c                ShellCommandRunDisconnect
 .text.ShellCommandRunConnect
                0x0000000000011b84      0x5bc /tmp/ccwaw90K.ltrans1.ltrans.o
                0x0000000000011b84                ShellCommandRunConnect
 .text.ShellCommandRunReconnect
                0x0000000000012140      0x12c /tmp/ccwaw90K.ltrans1.ltrans.o
                0x0000000000012140                ShellCommandRunReconnect
 .text.InternalIsAliasOnList
                0x000000000001226c       0x70 /tmp/ccwaw90K.ltrans1.ltrans.o
 .text.ShellCommandRunAttrib
                0x00000000000122dc      0x58c /tmp/ccwaw90K.ltrans1.ltrans.o
                0x00000000000122dc                ShellCommandRunAttrib
 .text.TestNodeForMove
                0x0000000000012868      0x16c /tmp/ccwaw90K.ltrans1.ltrans.o
 .text.MoveToTag
                0x00000000000129d4      0x164 /tmp/ccwaw90K.ltrans1.ltrans.o
 .text.DoTouchByHandle
                0x0000000000012b38      0x280 /tmp/ccwaw90K.ltrans1.ltrans.o
 .text.ShellCommandRunTouch
                0x0000000000012db8      0x298 /tmp/ccwaw90K.ltrans1.ltrans.o
                0x0000000000012db8                ShellCommandRunTouch
 .text.ShellCommandRunType
                0x0000000000013050      0x508 /tmp/ccwaw90K.ltrans1.ltrans.o
                0x0000000000013050                ShellCommandRunType
 .text.ShellCommandRunCls
                0x0000000000013558      0x390 /tmp/ccwaw90K.ltrans1.ltrans.o
                0x0000000000013558                ShellCommandRunCls
 .text.unlikely.ShellIsValidForNumber
                0x00000000000138e8       0x8c /tmp/ccwaw90K.ltrans1.ltrans.o
 .text.IsNextFragment
                0x0000000000013974       0xd8 /tmp/ccwaw90K.ltrans1.ltrans.o
 .text.LexicalInsertIntoList
                0x0000000000013a4c      0x120 /tmp/ccwaw90K.ltrans1.ltrans.o
 .text.ShellCommandRunHelp
                0x0000000000013b6c      0x744 /tmp/ccwaw90K.ltrans1.ltrans.o
                0x0000000000013b6c                ShellCommandRunHelp
 .text.ShellCommandRunVol
                0x00000000000142b0      0x6e8 /tmp/ccwaw90K.ltrans1.ltrans.o
                0x00000000000142b0                ShellCommandRunVol
 .text.ShellCommandRunExit
                0x0000000000014998      0x178 /tmp/ccwaw90K.ltrans1.ltrans.o
                0x0000000000014998                ShellCommandRunExit
 .text.ShellCommandRunPause
                0x0000000000014b10      0x1c4 /tmp/ccwaw90K.ltrans1.ltrans.o
                0x0000000000014b10                ShellCommandRunPause
 .text.PrintSingleShellAlias
                0x0000000000014cd4       0xbc /tmp/ccwaw90K.ltrans1.ltrans.o
 .text.ShellCommandRunAlias
                0x0000000000014d90      0x310 /tmp/ccwaw90K.ltrans1.ltrans.o
                0x0000000000014d90                ShellCommandRunAlias
 .text.ShellCommandRunShift
                0x00000000000150a0       0xf4 /tmp/ccwaw90K.ltrans1.ltrans.o
                0x00000000000150a0                ShellCommandRunShift
 .text.ShellCommandRunEndFor
                0x0000000000015194      0x128 /tmp/ccwaw90K.ltrans1.ltrans.o
                0x0000000000015194                ShellCommandRunEndFor
 .text.PerformResultOperation.part.1
                0x00000000000152bc      0x198 /tmp/ccwaw90K.ltrans1.ltrans.o
 .text.ShellCommandRunEndIf
                0x0000000000015454      0x130 /tmp/ccwaw90K.ltrans1.ltrans.o
                0x0000000000015454                ShellCommandRunEndIf
 .text.ShellCommandRunElse
                0x0000000000015584      0x1d8 /tmp/ccwaw90K.ltrans1.ltrans.o
                0x0000000000015584                ShellCommandRunElse
 .text.ShellCommandRunGoto
                0x000000000001575c      0x22c /tmp/ccwaw90K.ltrans1.ltrans.o
                0x000000000001575c                ShellCommandRunGoto
 .text.InternalRemoveAliasFromList
                0x0000000000015988       0x90 /tmp/ccwaw90K.ltrans1.ltrans.o
 .text.InternalUpdateAliasOnList
                0x0000000000015a18       0xec /tmp/ccwaw90K.ltrans1.ltrans.o
 .text.ShellCommandRunFor
                0x0000000000015b04      0xb24 /tmp/ccwaw90K.ltrans1.ltrans.o
                0x0000000000015b04                ShellCommandRunFor
 .text.ShellCommandRunIf
                0x0000000000016628     0x1460 /tmp/ccwaw90K.ltrans1.ltrans.o
                0x0000000000016628                ShellCommandRunIf
 .text.ShellCommandRunMv
                0x0000000000017a88      0x3b8 /tmp/ccwaw90K.ltrans1.ltrans.o
                0x0000000000017a88                ShellCommandRunMv
 .text.DoDevTreeForHandle
                0x0000000000017e40      0x1d8 /tmp/ccwaw90K.ltrans1.ltrans.o
                0x0000000000017e40                DoDevTreeForHandle
 .text.FileHandleFlush
                0x0000000000018018       0x18 /tmp/ccwaw90K.ltrans2.ltrans.o
                0x0000000000018018                FileHandleFlush
 .text.FileHandleGetPosition
                0x0000000000018030       0x20 /tmp/ccwaw90K.ltrans2.ltrans.o
                0x0000000000018030                FileHandleGetPosition
 .text.FileHandleSetPosition
                0x0000000000018050       0x18 /tmp/ccwaw90K.ltrans2.ltrans.o
                0x0000000000018050                FileHandleSetPosition
 .text.FileHandleDelete
                0x0000000000018068       0x18 /tmp/ccwaw90K.ltrans2.ltrans.o
                0x0000000000018068                FileHandleDelete
 .text.FileHandleClose
                0x0000000000018080       0x18 /tmp/ccwaw90K.ltrans2.ltrans.o
                0x0000000000018080                FileHandleClose
 .text.FileHandleWrite
                0x0000000000018098       0x18 /tmp/ccwaw90K.ltrans2.ltrans.o
                0x0000000000018098                FileHandleWrite
 .text.FileHandleRead
                0x00000000000180b0       0x18 /tmp/ccwaw90K.ltrans2.ltrans.o
                0x00000000000180b0                FileHandleRead
 .text.FileHandleSetInfo
                0x00000000000180c8       0x30 /tmp/ccwaw90K.ltrans2.ltrans.o
                0x00000000000180c8                FileHandleSetInfo
 .text.StrToAscii
                0x00000000000180f8       0x2c /tmp/ccwaw90K.ltrans2.ltrans.o
 .text.IsHexStr
                0x0000000000018124       0x38 /tmp/ccwaw90K.ltrans2.ltrans.o
 .text.SplitStr
                0x000000000001815c       0x48 /tmp/ccwaw90K.ltrans2.ltrans.o
 .text.GetNextParamStr
                0x00000000000181a4        0x8 /tmp/ccwaw90K.ltrans2.ltrans.o
 .text.MultU64x32
                0x00000000000181ac        0xc /tmp/ccwaw90K.ltrans2.ltrans.o
 .text.StrDecimalToUint64
                0x00000000000181b8       0xb4 /tmp/ccwaw90K.ltrans2.ltrans.o
 .text.StrHexToUintn
                0x000000000001826c       0x20 /tmp/ccwaw90K.ltrans2.ltrans.o
 .text.EisaIdFromText
                0x000000000001828c       0x44 /tmp/ccwaw90K.ltrans2.ltrans.o
 .text.StrDecimalToUintn
                0x00000000000182d0       0x20 /tmp/ccwaw90K.ltrans2.ltrans.o
 .text.Strtoi   0x00000000000182f0       0x2c /tmp/ccwaw90K.ltrans2.ltrans.o
 .text.InternalShellGetNodeFromGuid
                0x000000000001831c       0xcc /tmp/ccwaw90K.ltrans2.ltrans.o
                0x000000000001831c                InternalShellGetNodeFromGuid
 .text.GetProtocolInformationDump
                0x00000000000183e8       0x60 /tmp/ccwaw90K.ltrans2.ltrans.o
                0x00000000000183e8                GetProtocolInformationDump
 .text.ShellCommandLineGetCount
                0x0000000000018448       0x70 /tmp/ccwaw90K.ltrans2.ltrans.o
                0x0000000000018448                ShellCommandLineGetCount
 .text.ShellCommandLineGetRawValue
                0x00000000000184b8       0x74 /tmp/ccwaw90K.ltrans2.ltrans.o
                0x00000000000184b8                ShellCommandLineGetRawValue
 .text.ShellGetCurrentDir
                0x000000000001852c       0x30 /tmp/ccwaw90K.ltrans2.ltrans.o
                0x000000000001852c                ShellGetCurrentDir
 .text.ShellGetEnvironmentVariable
                0x000000000001855c       0x28 /tmp/ccwaw90K.ltrans2.ltrans.o
                0x000000000001855c                ShellGetEnvironmentVariable
 .text.ShellGetExecutionBreakFlag
                0x0000000000018584       0x54 /tmp/ccwaw90K.ltrans2.ltrans.o
                0x0000000000018584                ShellGetExecutionBreakFlag
 .text.ShellGetFileSize
                0x00000000000185d8        0xc /tmp/ccwaw90K.ltrans2.ltrans.o
                0x00000000000185d8                ShellGetFileSize
 .text.ShellDeleteFile
                0x00000000000185e4       0x10 /tmp/ccwaw90K.ltrans2.ltrans.o
                0x00000000000185e4                ShellDeleteFile
 .text.ShellCloseFile
                0x00000000000185f4       0x10 /tmp/ccwaw90K.ltrans2.ltrans.o
                0x00000000000185f4                ShellCloseFile
 .text.ShellWriteFile
                0x0000000000018604        0xc /tmp/ccwaw90K.ltrans2.ltrans.o
                0x0000000000018604                ShellWriteFile
 .text.ShellReadFile
                0x0000000000018610        0xc /tmp/ccwaw90K.ltrans2.ltrans.o
                0x0000000000018610                ShellReadFile
 .text.ShellGetFileInfo
                0x000000000001861c        0xc /tmp/ccwaw90K.ltrans2.ltrans.o
                0x000000000001861c                ShellGetFileInfo
 .text.ShellInitialize
                0x0000000000018628       0x28 /tmp/ccwaw90K.ltrans2.ltrans.o
                0x0000000000018628                ShellInitialize
 .text.ShellIsHexaDecimalDigitCharacter
                0x0000000000018650       0x3c /tmp/ccwaw90K.ltrans2.ltrans.o
                0x0000000000018650                ShellIsHexaDecimalDigitCharacter
 .text.InternalShellIsHexOrDecimalNumber
                0x000000000001868c      0x124 /tmp/ccwaw90K.ltrans2.ltrans.o
 .text.InternalIsFlag
                0x00000000000187b0       0x70 /tmp/ccwaw90K.ltrans2.ltrans.o
                0x00000000000187b0                InternalIsFlag
 .text.HiiRemovePackages
                0x0000000000018820       0x18 /tmp/ccwaw90K.ltrans2.ltrans.o
                0x0000000000018820                HiiRemovePackages
 .text.StringNoCaseCompare
                0x0000000000018838       0x64 /tmp/ccwaw90K.ltrans2.ltrans.o
                0x0000000000018838                StringNoCaseCompare
 .text.QuickSortWorker
                0x000000000001889c      0x144 /tmp/ccwaw90K.ltrans2.ltrans.o
                0x000000000001889c                QuickSortWorker
 .text.EfiGetSystemConfigurationTable
                0x00000000000189e0       0x94 /tmp/ccwaw90K.ltrans2.ltrans.o
                0x00000000000189e0                EfiGetSystemConfigurationTable
 .text.DevicePathFromHandle
                0x0000000000018a74       0x38 /tmp/ccwaw90K.ltrans2.ltrans.o
                0x0000000000018a74                DevicePathFromHandle
 .text.SetDevicePathEndNode
                0x0000000000018aac       0x10 /tmp/ccwaw90K.ltrans2.ltrans.o
                0x0000000000018aac                SetDevicePathEndNode
 .text.IsDevicePathEnd
                0x0000000000018abc       0x24 /tmp/ccwaw90K.ltrans2.ltrans.o
                0x0000000000018abc                IsDevicePathEnd
 .text.NextDevicePathNode
                0x0000000000018ae0       0x28 /tmp/ccwaw90K.ltrans2.ltrans.o
                0x0000000000018ae0                NextDevicePathNode
 .text.UefiDevicePathLibGetDevicePathSize
                0x0000000000018b08       0x70 /tmp/ccwaw90K.ltrans2.ltrans.o
                0x0000000000018b08                UefiDevicePathLibGetDevicePathSize
 .text.FreePool
                0x0000000000018b78       0x10 /tmp/ccwaw90K.ltrans2.ltrans.o
                0x0000000000018b78                FreePool
 .text.GetStringNameFromHandle
                0x0000000000018b88      0x114 /tmp/ccwaw90K.ltrans2.ltrans.o
                0x0000000000018b88                GetStringNameFromHandle
 .text.ShellCommandLineFreeVarList
                0x0000000000018c9c       0x70 /tmp/ccwaw90K.ltrans2.ltrans.o
                0x0000000000018c9c                ShellCommandLineFreeVarList
 .text.ShellCloseFileMetaArg
                0x0000000000018d0c       0xb8 /tmp/ccwaw90K.ltrans2.ltrans.o
                0x0000000000018d0c                ShellCloseFileMetaArg
 .text.FileHandleFindNextFile.part.1
                0x0000000000018dc4       0x54 /tmp/ccwaw90K.ltrans2.ltrans.o
                0x0000000000018dc4                FileHandleFindNextFile.part.1
 .text.ReallocatePool
                0x0000000000018e18       0x6c /tmp/ccwaw90K.ltrans2.ltrans.o
                0x0000000000018e18                ReallocatePool
 .text.AllocateCopyPool
                0x0000000000018e84       0x3c /tmp/ccwaw90K.ltrans2.ltrans.o
                0x0000000000018e84                AllocateCopyPool
 .text.UefiDevicePathLibDuplicateDevicePath
                0x0000000000018ec0       0x34 /tmp/ccwaw90K.ltrans2.ltrans.o
                0x0000000000018ec0                UefiDevicePathLibDuplicateDevicePath
 .text.AllocateZeroPool
                0x0000000000018ef4       0x34 /tmp/ccwaw90K.ltrans2.ltrans.o
                0x0000000000018ef4                AllocateZeroPool
 .text.ConvertHandleToHandleIndex
                0x0000000000018f28      0x118 /tmp/ccwaw90K.ltrans2.ltrans.o
                0x0000000000018f28                ConvertHandleToHandleIndex
 .text.FileHandleGetInfo
                0x0000000000019040       0xa0 /tmp/ccwaw90K.ltrans2.ltrans.o
                0x0000000000019040                FileHandleGetInfo
 .text.FileHandleGetSize
                0x00000000000190e0       0x54 /tmp/ccwaw90K.ltrans2.ltrans.o
                0x00000000000190e0                FileHandleGetSize
 .text.FileHandleIsDirectory
                0x0000000000019134       0x50 /tmp/ccwaw90K.ltrans2.ltrans.o
                0x0000000000019134                FileHandleIsDirectory
 .text.HiiGetSupportedLanguages
                0x0000000000019184       0x98 /tmp/ccwaw90K.ltrans2.ltrans.o
                0x0000000000019184                HiiGetSupportedLanguages
 .text.HiiAddPackages
                0x000000000001921c      0x194 /tmp/ccwaw90K.ltrans2.ltrans.o
                0x000000000001921c                HiiAddPackages
 .text.HandleParsingHiiInit
                0x00000000000193b0       0x48 /tmp/ccwaw90K.ltrans2.ltrans.o
                0x00000000000193b0                HandleParsingHiiInit
 .text.UefiDevicePathLibCreateDeviceNode
                0x00000000000193f8       0x64 /tmp/ccwaw90K.ltrans2.ltrans.o
                0x00000000000193f8                UefiDevicePathLibCreateDeviceNode
 .text.DevPathFromTextSata
                0x000000000001945c       0x98 /tmp/ccwaw90K.ltrans2.ltrans.o
                0x000000000001945c                DevPathFromTextSata
 .text.DevPathFromTextFvFile
                0x00000000000194f4       0x50 /tmp/ccwaw90K.ltrans2.ltrans.o
                0x00000000000194f4                DevPathFromTextFvFile
 .text.DevPathFromTextFv
                0x0000000000019544       0x50 /tmp/ccwaw90K.ltrans2.ltrans.o
                0x0000000000019544                DevPathFromTextFv
 .text.DevPathFromTextMedia
                0x0000000000019594       0x50 /tmp/ccwaw90K.ltrans2.ltrans.o
                0x0000000000019594                DevPathFromTextMedia
 .text.DevPathFromTextUri
                0x00000000000195e4       0x64 /tmp/ccwaw90K.ltrans2.ltrans.o
                0x00000000000195e4                DevPathFromTextUri
 .text.DevPathFromTextBluetoothLE
                0x0000000000019648       0x78 /tmp/ccwaw90K.ltrans2.ltrans.o
                0x0000000000019648                DevPathFromTextBluetoothLE
 .text.DevPathFromTextBluetooth
                0x00000000000196c0       0x58 /tmp/ccwaw90K.ltrans2.ltrans.o
                0x00000000000196c0                DevPathFromTextBluetooth
 .text.DevPathFromTextVlan
                0x0000000000019718       0x50 /tmp/ccwaw90K.ltrans2.ltrans.o
                0x0000000000019718                DevPathFromTextVlan
 .text.DevPathFromTextUnit
                0x0000000000019768       0x50 /tmp/ccwaw90K.ltrans2.ltrans.o
                0x0000000000019768                DevPathFromTextUnit
 .text.ConvertFromTextUsbClass
                0x00000000000197b8      0x124 /tmp/ccwaw90K.ltrans2.ltrans.o
 .text.DevPathFromTextUsbTestAndMeasurement
                0x00000000000198dc       0x24 /tmp/ccwaw90K.ltrans2.ltrans.o
                0x00000000000198dc                DevPathFromTextUsbTestAndMeasurement
 .text.DevPathFromTextUsbIrdaBridge
                0x0000000000019900       0x24 /tmp/ccwaw90K.ltrans2.ltrans.o
                0x0000000000019900                DevPathFromTextUsbIrdaBridge
 .text.DevPathFromTextUsbDeviceFirmwareUpdate
                0x0000000000019924       0x24 /tmp/ccwaw90K.ltrans2.ltrans.o
                0x0000000000019924                DevPathFromTextUsbDeviceFirmwareUpdate
 .text.DevPathFromTextUsbWireless
                0x0000000000019948       0x28 /tmp/ccwaw90K.ltrans2.ltrans.o
                0x0000000000019948                DevPathFromTextUsbWireless
 .text.DevPathFromTextUsbDiagnostic
                0x0000000000019970       0x28 /tmp/ccwaw90K.ltrans2.ltrans.o
                0x0000000000019970                DevPathFromTextUsbDiagnostic
 .text.DevPathFromTextUsbVideo
                0x0000000000019998       0x28 /tmp/ccwaw90K.ltrans2.ltrans.o
                0x0000000000019998                DevPathFromTextUsbVideo
 .text.DevPathFromTextUsbSmartCard
                0x00000000000199c0       0x28 /tmp/ccwaw90K.ltrans2.ltrans.o
                0x00000000000199c0                DevPathFromTextUsbSmartCard
 .text.DevPathFromTextUsbCDCData
                0x00000000000199e8       0x28 /tmp/ccwaw90K.ltrans2.ltrans.o
                0x00000000000199e8                DevPathFromTextUsbCDCData
 .text.DevPathFromTextUsbHub
                0x0000000000019a10       0x28 /tmp/ccwaw90K.ltrans2.ltrans.o
                0x0000000000019a10                DevPathFromTextUsbHub
 .text.DevPathFromTextUsbMassStorage
                0x0000000000019a38       0x28 /tmp/ccwaw90K.ltrans2.ltrans.o
                0x0000000000019a38                DevPathFromTextUsbMassStorage
 .text.DevPathFromTextUsbPrinter
                0x0000000000019a60       0x28 /tmp/ccwaw90K.ltrans2.ltrans.o
                0x0000000000019a60                DevPathFromTextUsbPrinter
 .text.DevPathFromTextUsbImage
                0x0000000000019a88       0x28 /tmp/ccwaw90K.ltrans2.ltrans.o
                0x0000000000019a88                DevPathFromTextUsbImage
 .text.DevPathFromTextUsbHID
                0x0000000000019ab0       0x28 /tmp/ccwaw90K.ltrans2.ltrans.o
                0x0000000000019ab0                DevPathFromTextUsbHID
 .text.DevPathFromTextUsbCDCControl
                0x0000000000019ad8       0x28 /tmp/ccwaw90K.ltrans2.ltrans.o
                0x0000000000019ad8                DevPathFromTextUsbCDCControl
 .text.DevPathFromTextUsbAudio
                0x0000000000019b00       0x28 /tmp/ccwaw90K.ltrans2.ltrans.o
                0x0000000000019b00                DevPathFromTextUsbAudio
 .text.DevPathFromTextUsbClass
                0x0000000000019b28       0x24 /tmp/ccwaw90K.ltrans2.ltrans.o
                0x0000000000019b28                DevPathFromTextUsbClass
 .text.DevPathFromTextMAC
                0x0000000000019b4c       0x88 /tmp/ccwaw90K.ltrans2.ltrans.o
                0x0000000000019b4c                DevPathFromTextMAC
 .text.DevPathFromTextDebugPort
                0x0000000000019bd4       0x40 /tmp/ccwaw90K.ltrans2.ltrans.o
                0x0000000000019bd4                DevPathFromTextDebugPort
 .text.DevPathFromTextEmmc
                0x0000000000019c14       0x50 /tmp/ccwaw90K.ltrans2.ltrans.o
                0x0000000000019c14                DevPathFromTextEmmc
 .text.DevPathFromTextSd
                0x0000000000019c64       0x50 /tmp/ccwaw90K.ltrans2.ltrans.o
                0x0000000000019c64                DevPathFromTextSd
 .text.DevPathFromTextUfs
                0x0000000000019cb4       0x70 /tmp/ccwaw90K.ltrans2.ltrans.o
                0x0000000000019cb4                DevPathFromTextUfs
 .text.DevPathFromTextNVMe
                0x0000000000019d24       0x94 /tmp/ccwaw90K.ltrans2.ltrans.o
                0x0000000000019d24                DevPathFromTextNVMe
 .text.DevPathFromTextVenUtf8
                0x0000000000019db8       0x40 /tmp/ccwaw90K.ltrans2.ltrans.o
                0x0000000000019db8                DevPathFromTextVenUtf8
 .text.DevPathFromTextVenVt100Plus
                0x0000000000019df8       0x40 /tmp/ccwaw90K.ltrans2.ltrans.o
                0x0000000000019df8                DevPathFromTextVenVt100Plus
 .text.DevPathFromTextVenVt100
                0x0000000000019e38       0x40 /tmp/ccwaw90K.ltrans2.ltrans.o
                0x0000000000019e38                DevPathFromTextVenVt100
 .text.DevPathFromTextVenPcAnsi
                0x0000000000019e78       0x40 /tmp/ccwaw90K.ltrans2.ltrans.o
                0x0000000000019e78                DevPathFromTextVenPcAnsi
 .text.DevPathFromTextI2O
                0x0000000000019eb8       0x50 /tmp/ccwaw90K.ltrans2.ltrans.o
                0x0000000000019eb8                DevPathFromTextI2O
 .text.DevPathFromTextUsb
                0x0000000000019f08       0x70 /tmp/ccwaw90K.ltrans2.ltrans.o
                0x0000000000019f08                DevPathFromTextUsb
 .text.DevPathFromTextScsi
                0x0000000000019f78       0x70 /tmp/ccwaw90K.ltrans2.ltrans.o
                0x0000000000019f78                DevPathFromTextScsi
 .text.DevPathFromTextAcpiAdr
                0x0000000000019fe8       0xa8 /tmp/ccwaw90K.ltrans2.ltrans.o
                0x0000000000019fe8                DevPathFromTextAcpiAdr
 .text.ConvertFromTextAcpi
                0x000000000001a090       0x68 /tmp/ccwaw90K.ltrans2.ltrans.o
 .text.DevPathFromTextParallelPort
                0x000000000001a0f8        0x8 /tmp/ccwaw90K.ltrans2.ltrans.o
                0x000000000001a0f8                DevPathFromTextParallelPort
 .text.DevPathFromTextSerial
                0x000000000001a100        0x8 /tmp/ccwaw90K.ltrans2.ltrans.o
                0x000000000001a100                DevPathFromTextSerial
 .text.DevPathFromTextKeyboard
                0x000000000001a108        0x8 /tmp/ccwaw90K.ltrans2.ltrans.o
                0x000000000001a108                DevPathFromTextKeyboard
 .text.DevPathFromTextFloppy
                0x000000000001a110        0x8 /tmp/ccwaw90K.ltrans2.ltrans.o
                0x000000000001a110                DevPathFromTextFloppy
 .text.DevPathFromTextPcieRoot
                0x000000000001a118        0x8 /tmp/ccwaw90K.ltrans2.ltrans.o
                0x000000000001a118                DevPathFromTextPcieRoot
 .text.DevPathFromTextPciRoot
                0x000000000001a120        0x8 /tmp/ccwaw90K.ltrans2.ltrans.o
                0x000000000001a120                DevPathFromTextPciRoot
 .text.DevPathFromTextAcpi
                0x000000000001a128       0x70 /tmp/ccwaw90K.ltrans2.ltrans.o
                0x000000000001a128                DevPathFromTextAcpi
 .text.DevPathFromTextCtrl
                0x000000000001a198       0x50 /tmp/ccwaw90K.ltrans2.ltrans.o
                0x000000000001a198                DevPathFromTextCtrl
 .text.DevPathFromTextPcCard
                0x000000000001a1e8       0x50 /tmp/ccwaw90K.ltrans2.ltrans.o
                0x000000000001a1e8                DevPathFromTextPcCard
 .text.DevPathFromTextPci
                0x000000000001a238       0x70 /tmp/ccwaw90K.ltrans2.ltrans.o
                0x000000000001a238                DevPathFromTextPci
 .text.AllocatePool
                0x000000000001a2a8        0x4 /tmp/ccwaw90K.ltrans2.ltrans.o
                0x000000000001a2a8                AllocatePool
 .text.GetVariable2
                0x000000000001a2ac       0xe0 /tmp/ccwaw90K.ltrans2.ltrans.o
                0x000000000001a2ac                GetVariable2
 .text.UefiDevicePathLibAppendDevicePath
                0x000000000001a38c       0xc4 /tmp/ccwaw90K.ltrans2.ltrans.o
                0x000000000001a38c                UefiDevicePathLibAppendDevicePath
 .text.UefiDevicePathLibAppendDevicePathNode
                0x000000000001a450       0x9c /tmp/ccwaw90K.ltrans2.ltrans.o
                0x000000000001a450                UefiDevicePathLibAppendDevicePathNode
 .text.TimerConstructor
                0x000000000001a4ec       0x18 /tmp/ccwaw90K.ltrans2.ltrans.o
                0x000000000001a4ec                TimerConstructor
 .text.DebugCodeEnabled
                0x000000000001a504        0x8 /tmp/ccwaw90K.ltrans2.ltrans.o
                0x000000000001a504                DebugCodeEnabled
 .text.BaseDebugLibSerialPortConstructor
                0x000000000001a50c       0x18 /tmp/ccwaw90K.ltrans2.ltrans.o
                0x000000000001a50c                BaseDebugLibSerialPortConstructor
 .text.BasePrintLibValueToString
                0x000000000001a524       0x2c /tmp/ccwaw90K.ltrans2.ltrans.o
                0x000000000001a524                BasePrintLibValueToString
 .text.BasePrintLibFillBuffer
                0x000000000001a550       0x34 /tmp/ccwaw90K.ltrans2.ltrans.o
                0x000000000001a550                BasePrintLibFillBuffer
 .text.SPrintLength
                0x000000000001a584       0x40 /tmp/ccwaw90K.ltrans2.ltrans.o
                0x000000000001a584                SPrintLength
 .text.AsciiSPrint
                0x000000000001a5c4       0x60 /tmp/ccwaw90K.ltrans2.ltrans.o
                0x000000000001a5c4                AsciiSPrint
 .text.UnicodeVSPrint
                0x000000000001a624       0x54 /tmp/ccwaw90K.ltrans2.ltrans.o
                0x000000000001a624                UnicodeVSPrint
 .text.UefiDevicePathLibCatPrint
                0x000000000001a678      0x128 /tmp/ccwaw90K.ltrans2.ltrans.o
 .text.UefiDevicePathLibConvertDevicePathToText
                0x000000000001a7a0      0x134 /tmp/ccwaw90K.ltrans2.ltrans.o
                0x000000000001a7a0                UefiDevicePathLibConvertDevicePathToText
 .text.DevicePathCompare
                0x000000000001a8d4       0xe0 /tmp/ccwaw90K.ltrans2.ltrans.o
                0x000000000001a8d4                DevicePathCompare
 .text.DevPathToTextNodeGeneric
                0x000000000001a9b4       0xf0 /tmp/ccwaw90K.ltrans2.ltrans.o
 .text.DevPathToTextEndInstance
                0x000000000001aaa4        0xc /tmp/ccwaw90K.ltrans2.ltrans.o
 .text.DevPathToTextBBS
                0x000000000001aab0       0xec /tmp/ccwaw90K.ltrans2.ltrans.o
 .text.DevPathRelativeOffsetRange
                0x000000000001ab9c       0x10 /tmp/ccwaw90K.ltrans2.ltrans.o
 .text.DevPathToTextFvFile
                0x000000000001abac       0x10 /tmp/ccwaw90K.ltrans2.ltrans.o
 .text.DevPathToTextFv
                0x000000000001abbc       0x10 /tmp/ccwaw90K.ltrans2.ltrans.o
 .text.DevPathToTextMediaProtocol
                0x000000000001abcc       0x10 /tmp/ccwaw90K.ltrans2.ltrans.o
 .text.DevPathToTextFilePath
                0x000000000001abdc       0x10 /tmp/ccwaw90K.ltrans2.ltrans.o
 .text.DevPathToTextCDROM
                0x000000000001abec       0x30 /tmp/ccwaw90K.ltrans2.ltrans.o
 .text.DevPathToTextHardDrive
                0x000000000001ac1c       0x8c /tmp/ccwaw90K.ltrans2.ltrans.o
 .text.DevPathToTextUri
                0x000000000001aca8       0x6c /tmp/ccwaw90K.ltrans2.ltrans.o
 .text.DevPathToTextBluetoothLE
                0x000000000001ad14       0x44 /tmp/ccwaw90K.ltrans2.ltrans.o
 .text.DevPathToTextWiFi
                0x000000000001ad58       0x44 /tmp/ccwaw90K.ltrans2.ltrans.o
 .text.DevPathToTextBluetooth
                0x000000000001ad9c       0x24 /tmp/ccwaw90K.ltrans2.ltrans.o
 .text.DevPathToTextVlan
                0x000000000001adc0       0x10 /tmp/ccwaw90K.ltrans2.ltrans.o
 .text.DevPathToTextiSCSI
                0x000000000001add0      0x110 /tmp/ccwaw90K.ltrans2.ltrans.o
 .text.DevPathToTextUart
                0x000000000001aee0      0x118 /tmp/ccwaw90K.ltrans2.ltrans.o
 .text.DevPathToTextInfiniBand
                0x000000000001aff8       0x1c /tmp/ccwaw90K.ltrans2.ltrans.o
 .text.CatIPv6Address
                0x000000000001b014       0x8c /tmp/ccwaw90K.ltrans2.ltrans.o
 .text.CatIPv4Address
                0x000000000001b0a0       0x1c /tmp/ccwaw90K.ltrans2.ltrans.o
 .text.DevPathToTextDns
                0x000000000001b0bc       0xc4 /tmp/ccwaw90K.ltrans2.ltrans.o
 .text.CatNetworkProtocol
                0x000000000001b180       0x38 /tmp/ccwaw90K.ltrans2.ltrans.o
 .text.DevPathToTextIPv6
                0x000000000001b1b8       0xec /tmp/ccwaw90K.ltrans2.ltrans.o
 .text.DevPathToTextIPv4
                0x000000000001b2a4       0xf4 /tmp/ccwaw90K.ltrans2.ltrans.o
 .text.DevPathToTextMacAddr
                0x000000000001b398       0x8c /tmp/ccwaw90K.ltrans2.ltrans.o
 .text.DevPathToTextI2O
                0x000000000001b424       0x10 /tmp/ccwaw90K.ltrans2.ltrans.o
 .text.DevPathToTextSata
                0x000000000001b434       0x18 /tmp/ccwaw90K.ltrans2.ltrans.o
 .text.DevPathToTextUsbClass
                0x000000000001b44c      0x1bc /tmp/ccwaw90K.ltrans2.ltrans.o
 .text.DevPathToTextLogicalUnit
                0x000000000001b608       0x10 /tmp/ccwaw90K.ltrans2.ltrans.o
 .text.DevPathToTextUsbWWID
                0x000000000001b618       0x8c /tmp/ccwaw90K.ltrans2.ltrans.o
 .text.DevPathToTextUsb
                0x000000000001b6a4       0x14 /tmp/ccwaw90K.ltrans2.ltrans.o
 .text.DevPathToText1394
                0x000000000001b6b8       0x10 /tmp/ccwaw90K.ltrans2.ltrans.o
 .text.DevPathToTextEmmc
                0x000000000001b6c8       0x10 /tmp/ccwaw90K.ltrans2.ltrans.o
 .text.DevPathToTextSd
                0x000000000001b6d8       0x10 /tmp/ccwaw90K.ltrans2.ltrans.o
 .text.DevPathToTextUfs
                0x000000000001b6e8       0x14 /tmp/ccwaw90K.ltrans2.ltrans.o
 .text.DevPathToTextNVMe
                0x000000000001b6fc       0x54 /tmp/ccwaw90K.ltrans2.ltrans.o
 .text.DevPathToTextSasEx
                0x000000000001b750      0x184 /tmp/ccwaw90K.ltrans2.ltrans.o
 .text.DevPathToTextFibreEx
                0x000000000001b8d4       0xa0 /tmp/ccwaw90K.ltrans2.ltrans.o
 .text.DevPathToTextFibre
                0x000000000001b974       0x10 /tmp/ccwaw90K.ltrans2.ltrans.o
 .text.DevPathToTextScsi
                0x000000000001b984       0x14 /tmp/ccwaw90K.ltrans2.ltrans.o
 .text.DevPathToTextAtapi
                0x000000000001b998       0x60 /tmp/ccwaw90K.ltrans2.ltrans.o
 .text.DevPathToTextAcpiAdr
                0x000000000001b9f8       0x8c /tmp/ccwaw90K.ltrans2.ltrans.o
 .text.DevPathToTextAcpi
                0x000000000001ba84       0xc0 /tmp/ccwaw90K.ltrans2.ltrans.o
 .text.DevPathToTextBmc
                0x000000000001bb44       0x3c /tmp/ccwaw90K.ltrans2.ltrans.o
 .text.DevPathToTextController
                0x000000000001bb80       0x10 /tmp/ccwaw90K.ltrans2.ltrans.o
 .text.DevPathToTextVendor
                0x000000000001bb90      0x350 /tmp/ccwaw90K.ltrans2.ltrans.o
 .text.DevPathToTextMemMap
                0x000000000001bee0       0x14 /tmp/ccwaw90K.ltrans2.ltrans.o
 .text.DevPathToTextPccard
                0x000000000001bef4       0x10 /tmp/ccwaw90K.ltrans2.ltrans.o
 .text.DevPathToTextPci
                0x000000000001bf04       0x14 /tmp/ccwaw90K.ltrans2.ltrans.o
 .text.UnicodeSPrint
                0x000000000001bf18       0x50 /tmp/ccwaw90K.ltrans2.ltrans.o
                0x000000000001bf18                UnicodeSPrint
 .text.DriverEfiVersionProtocolDumpInformation
                0x000000000001bf68       0x60 /tmp/ccwaw90K.ltrans2.ltrans.o
                0x000000000001bf68                DriverEfiVersionProtocolDumpInformation
 .text.DivU64x32
                0x000000000001bfc8        0xc /tmp/ccwaw90K.ltrans2.ltrans.o
                0x000000000001bfc8                DivU64x32
 .text.LShiftU64
                0x000000000001bfd4        0x8 /tmp/ccwaw90K.ltrans2.ltrans.o
                0x000000000001bfd4                LShiftU64
 .text.DevPathToTextRamDisk
                0x000000000001bfdc      0x1a0 /tmp/ccwaw90K.ltrans2.ltrans.o
 .text.RShiftU64
                0x000000000001c17c        0x8 /tmp/ccwaw90K.ltrans2.ltrans.o
                0x000000000001c17c                RShiftU64
 .text.SwapBytes32
                0x000000000001c184       0x20 /tmp/ccwaw90K.ltrans2.ltrans.o
                0x000000000001c184                SwapBytes32
 .text.PathRemoveLastItem
                0x000000000001c1a4       0x5c /tmp/ccwaw90K.ltrans2.ltrans.o
                0x000000000001c1a4                PathRemoveLastItem
 .text.AsciiStrnCmp
                0x000000000001c200       0x40 /tmp/ccwaw90K.ltrans2.ltrans.o
                0x000000000001c200                AsciiStrnCmp
 .text.AsciiStrLen
                0x000000000001c240       0x1c /tmp/ccwaw90K.ltrans2.ltrans.o
                0x000000000001c240                AsciiStrLen
 .text.GetBestLanguage
                0x000000000001c25c      0x164 /tmp/ccwaw90K.ltrans2.ltrans.o
                0x000000000001c25c                GetBestLanguage
 .text.HiiGetString
                0x000000000001c3c0      0x158 /tmp/ccwaw90K.ltrans2.ltrans.o
                0x000000000001c3c0                HiiGetString
 .text.GetGuidFromStringName
                0x000000000001c518      0x1bc /tmp/ccwaw90K.ltrans2.ltrans.o
                0x000000000001c518                GetGuidFromStringName
 .text.GetStringNameFromGuid
                0x000000000001c6d4       0x4c /tmp/ccwaw90K.ltrans2.ltrans.o
                0x000000000001c6d4                GetStringNameFromGuid
 .text.PartitionInfoProtocolDumpInformation
                0x000000000001c720      0x128 /tmp/ccwaw90K.ltrans2.ltrans.o
                0x000000000001c720                PartitionInfoProtocolDumpInformation
 .text.FirmwareManagementDumpInformation
                0x000000000001c848      0x780 /tmp/ccwaw90K.ltrans2.ltrans.o
                0x000000000001c848                FirmwareManagementDumpInformation
 .text.AdapterInformationDumpInformation
                0x000000000001cfc8      0x508 /tmp/ccwaw90K.ltrans2.ltrans.o
                0x000000000001cfc8                AdapterInformationDumpInformation
 .text.UsbIoProtocolDumpInformation
                0x000000000001d4d0       0xb4 /tmp/ccwaw90K.ltrans2.ltrans.o
                0x000000000001d4d0                UsbIoProtocolDumpInformation
 .text.PciIoProtocolDumpInformation
                0x000000000001d584      0x178 /tmp/ccwaw90K.ltrans2.ltrans.o
                0x000000000001d584                PciIoProtocolDumpInformation
 .text.DebugSupportProtocolDumpInformation
                0x000000000001d6fc      0x108 /tmp/ccwaw90K.ltrans2.ltrans.o
                0x000000000001d6fc                DebugSupportProtocolDumpInformation
 .text.BlockIoProtocolDumpInformation
                0x000000000001d804      0x16c /tmp/ccwaw90K.ltrans2.ltrans.o
                0x000000000001d804                BlockIoProtocolDumpInformation
 .text.PciRootBridgeIoDumpInformation
                0x000000000001d970      0x2f4 /tmp/ccwaw90K.ltrans2.ltrans.o
                0x000000000001d970                PciRootBridgeIoDumpInformation
 .text.EdidActiveProtocolDumpInformation
                0x000000000001dc64      0x114 /tmp/ccwaw90K.ltrans2.ltrans.o
                0x000000000001dc64                EdidActiveProtocolDumpInformation
 .text.EdidDiscoveredProtocolDumpInformation
                0x000000000001dd78      0x114 /tmp/ccwaw90K.ltrans2.ltrans.o
                0x000000000001dd78                EdidDiscoveredProtocolDumpInformation
 .text.DevPathToTextAcpiEx
                0x000000000001de8c      0x25c /tmp/ccwaw90K.ltrans2.ltrans.o
 .text.AsciiStrSize
                0x000000000001e0e8       0x18 /tmp/ccwaw90K.ltrans2.ltrans.o
                0x000000000001e0e8                AsciiStrSize
 .text.StrHexToUint64
                0x000000000001e100       0x1c /tmp/ccwaw90K.ltrans2.ltrans.o
                0x000000000001e100                StrHexToUint64
 .text.DevPathFromText1394
                0x000000000001e11c       0x54 /tmp/ccwaw90K.ltrans2.ltrans.o
                0x000000000001e11c                DevPathFromText1394
 .text.DevPathFromTextBmc
                0x000000000001e170       0x78 /tmp/ccwaw90K.ltrans2.ltrans.o
                0x000000000001e170                DevPathFromTextBmc
 .text.Strtoi64
                0x000000000001e1e8       0x40 /tmp/ccwaw90K.ltrans2.ltrans.o
 .text.DevPathFromTextPersistentVirtualCd
                0x000000000001e228       0xb0 /tmp/ccwaw90K.ltrans2.ltrans.o
                0x000000000001e228                DevPathFromTextPersistentVirtualCd
 .text.DevPathFromTextPersistentVirtualDisk
                0x000000000001e2d8       0xb0 /tmp/ccwaw90K.ltrans2.ltrans.o
                0x000000000001e2d8                DevPathFromTextPersistentVirtualDisk
 .text.DevPathFromTextVirtualCd
                0x000000000001e388       0xb0 /tmp/ccwaw90K.ltrans2.ltrans.o
                0x000000000001e388                DevPathFromTextVirtualCd
 .text.DevPathFromTextVirtualDisk
                0x000000000001e438       0xb0 /tmp/ccwaw90K.ltrans2.ltrans.o
                0x000000000001e438                DevPathFromTextVirtualDisk
 .text.DevPathFromTextRamDisk
                0x000000000001e4e8       0xc0 /tmp/ccwaw90K.ltrans2.ltrans.o
                0x000000000001e4e8                DevPathFromTextRamDisk
 .text.DevPathFromTextRelativeOffsetRange
                0x000000000001e5a8       0x70 /tmp/ccwaw90K.ltrans2.ltrans.o
                0x000000000001e5a8                DevPathFromTextRelativeOffsetRange
 .text.DevPathFromTextCDROM
                0x000000000001e618       0x88 /tmp/ccwaw90K.ltrans2.ltrans.o
                0x000000000001e618                DevPathFromTextCDROM
 .text.DevPathFromTextInfiniband
                0x000000000001e6a0       0xc0 /tmp/ccwaw90K.ltrans2.ltrans.o
                0x000000000001e6a0                DevPathFromTextInfiniband
 .text.DevPathFromTextFibreEx
                0x000000000001e760       0x8c /tmp/ccwaw90K.ltrans2.ltrans.o
                0x000000000001e760                DevPathFromTextFibreEx
 .text.DevPathFromTextFibre
                0x000000000001e7ec       0x74 /tmp/ccwaw90K.ltrans2.ltrans.o
                0x000000000001e7ec                DevPathFromTextFibre
 .text.DevPathFromTextMemoryMapped
                0x000000000001e860       0x88 /tmp/ccwaw90K.ltrans2.ltrans.o
                0x000000000001e860                DevPathFromTextMemoryMapped
 .text.InternalIsHexaDecimalDigitCharacter
                0x000000000001e8e8       0x34 /tmp/ccwaw90K.ltrans2.ltrans.o
                0x000000000001e8e8                InternalIsHexaDecimalDigitCharacter
 .text.CharToUpper
                0x000000000001e91c       0x20 /tmp/ccwaw90K.ltrans2.ltrans.o
                0x000000000001e91c                CharToUpper
 .text.InternalHexCharToUintn
                0x000000000001e93c       0x3c /tmp/ccwaw90K.ltrans2.ltrans.o
                0x000000000001e93c                InternalHexCharToUintn
 .text.StrStr   0x000000000001e978       0x48 /tmp/ccwaw90K.ltrans2.ltrans.o
                0x000000000001e978                StrStr
 .text.StrnCmp  0x000000000001e9c0       0x40 /tmp/ccwaw90K.ltrans2.ltrans.o
                0x000000000001e9c0                StrnCmp
 .text.StrCmp   0x000000000001ea00       0x28 /tmp/ccwaw90K.ltrans2.ltrans.o
                0x000000000001ea00                StrCmp
 .text.DevPathFromTextHD
                0x000000000001ea28      0x130 /tmp/ccwaw90K.ltrans2.ltrans.o
                0x000000000001ea28                DevPathFromTextHD
 .text.DevPathFromTextUart
                0x000000000001eb58      0x1b0 /tmp/ccwaw90K.ltrans2.ltrans.o
                0x000000000001eb58                DevPathFromTextUart
 .text.NetworkProtocolFromText
                0x000000000001ed08       0x50 /tmp/ccwaw90K.ltrans2.ltrans.o
 .text.DevPathFromTextIPv6
                0x000000000001ed58      0x138 /tmp/ccwaw90K.ltrans2.ltrans.o
                0x000000000001ed58                DevPathFromTextIPv6
 .text.DevPathFromTextIPv4
                0x000000000001ee90      0x124 /tmp/ccwaw90K.ltrans2.ltrans.o
                0x000000000001ee90                DevPathFromTextIPv4
 .text.DevPathFromTextSasEx
                0x000000000001efb4      0x210 /tmp/ccwaw90K.ltrans2.ltrans.o
                0x000000000001efb4                DevPathFromTextSasEx
 .text.DevPathFromTextSAS
                0x000000000001f1c4      0x218 /tmp/ccwaw90K.ltrans2.ltrans.o
                0x000000000001f1c4                DevPathFromTextSAS
 .text.DevPathFromTextUartFlowCtrl
                0x000000000001f3dc       0x8c /tmp/ccwaw90K.ltrans2.ltrans.o
                0x000000000001f3dc                DevPathFromTextUartFlowCtrl
 .text.DevPathFromTextAta
                0x000000000001f468       0xf8 /tmp/ccwaw90K.ltrans2.ltrans.o
                0x000000000001f468                DevPathFromTextAta
 .text.StrLen   0x000000000001f560       0x1c /tmp/ccwaw90K.ltrans2.ltrans.o
                0x000000000001f560                StrLen
 .text.ShellFileHandleReadLine
                0x000000000001f57c      0x198 /tmp/ccwaw90K.ltrans2.ltrans.o
                0x000000000001f57c                ShellFileHandleReadLine
 .text.ShellFileHandleReturnLine
                0x000000000001f714       0xc4 /tmp/ccwaw90K.ltrans2.ltrans.o
                0x000000000001f714                ShellFileHandleReturnLine
 .text.DevPathFromTextBBS
                0x000000000001f7d8      0x140 /tmp/ccwaw90K.ltrans2.ltrans.o
                0x000000000001f7d8                DevPathFromTextBBS
 .text.DevPathFromTextWiFi
                0x000000000001f918       0x88 /tmp/ccwaw90K.ltrans2.ltrans.o
                0x000000000001f918                DevPathFromTextWiFi
 .text.DevPathFromTextiSCSI
                0x000000000001f9a0      0x17c /tmp/ccwaw90K.ltrans2.ltrans.o
                0x000000000001f9a0                DevPathFromTextiSCSI
 .text.DevPathFromTextUsbWwid
                0x000000000001fb1c       0xec /tmp/ccwaw90K.ltrans2.ltrans.o
                0x000000000001fb1c                DevPathFromTextUsbWwid
 .text.DevPathFromTextAcpiExp
                0x000000000001fc08       0xbc /tmp/ccwaw90K.ltrans2.ltrans.o
                0x000000000001fc08                DevPathFromTextAcpiExp
 .text.DevPathFromTextAcpiEx
                0x000000000001fcc4      0x10c /tmp/ccwaw90K.ltrans2.ltrans.o
                0x000000000001fcc4                DevPathFromTextAcpiEx
 .text.ConvertFromTextVendor
                0x000000000001fdd0       0x94 /tmp/ccwaw90K.ltrans2.ltrans.o
 .text.DevPathFromTextVenMedia
                0x000000000001fe64        0xc /tmp/ccwaw90K.ltrans2.ltrans.o
                0x000000000001fe64                DevPathFromTextVenMedia
 .text.DevPathFromTextVenMsg
                0x000000000001fe70        0xc /tmp/ccwaw90K.ltrans2.ltrans.o
                0x000000000001fe70                DevPathFromTextVenMsg
 .text.DevPathFromTextVenHw
                0x000000000001fe7c        0xc /tmp/ccwaw90K.ltrans2.ltrans.o
                0x000000000001fe7c                DevPathFromTextVenHw
 .text.DevPathFromTextGenericPath
                0x000000000001fe88       0x8c /tmp/ccwaw90K.ltrans2.ltrans.o
 .text.DevPathFromTextBbsPath
                0x000000000001ff14        0xc /tmp/ccwaw90K.ltrans2.ltrans.o
                0x000000000001ff14                DevPathFromTextBbsPath
 .text.DevPathFromTextMediaPath
                0x000000000001ff20        0xc /tmp/ccwaw90K.ltrans2.ltrans.o
                0x000000000001ff20                DevPathFromTextMediaPath
 .text.DevPathFromTextMsg
                0x000000000001ff2c        0xc /tmp/ccwaw90K.ltrans2.ltrans.o
                0x000000000001ff2c                DevPathFromTextMsg
 .text.DevPathFromTextAcpiPath
                0x000000000001ff38        0xc /tmp/ccwaw90K.ltrans2.ltrans.o
                0x000000000001ff38                DevPathFromTextAcpiPath
 .text.DevPathFromTextHardwarePath
                0x000000000001ff44        0xc /tmp/ccwaw90K.ltrans2.ltrans.o
                0x000000000001ff44                DevPathFromTextHardwarePath
 .text.DevPathFromTextPath
                0x000000000001ff50       0x2c /tmp/ccwaw90K.ltrans2.ltrans.o
                0x000000000001ff50                DevPathFromTextPath
 .text.StrSize  0x000000000001ff7c       0x1c /tmp/ccwaw90K.ltrans2.ltrans.o
                0x000000000001ff7c                StrSize
 .text.TxtOutProtocolDumpInformation
                0x000000000001ff98      0x184 /tmp/ccwaw90K.ltrans2.ltrans.o
                0x000000000001ff98                TxtOutProtocolDumpInformation
 .text.InternalShellStripQuotes.part.21
                0x000000000002011c       0x7c /tmp/ccwaw90K.ltrans2.ltrans.o
                0x000000000002011c                InternalShellStripQuotes.part.21
 .text.ShellConvertStringToUint64
                0x0000000000020198      0x274 /tmp/ccwaw90K.ltrans2.ltrans.o
                0x0000000000020198                ShellConvertStringToUint64
 .text.ShellStrToUintn
                0x000000000002040c       0x48 /tmp/ccwaw90K.ltrans2.ltrans.o
                0x000000000002040c                ShellStrToUintn
 .text.StrnCatGrow
                0x0000000000020454       0xf4 /tmp/ccwaw90K.ltrans2.ltrans.o
                0x0000000000020454                StrnCatGrow
 .text.BusSpecificDriverOverrideProtocolDumpInformation
                0x0000000000020548      0x13c /tmp/ccwaw90K.ltrans2.ltrans.o
                0x0000000000020548                BusSpecificDriverOverrideProtocolDumpInformation
 .text.DevicePathProtocolDumpInformationEx
                0x0000000000020684      0x174 /tmp/ccwaw90K.ltrans2.ltrans.o
 .text.LoadedImageDevicePathProtocolDumpInformation
                0x00000000000207f8        0xc /tmp/ccwaw90K.ltrans2.ltrans.o
                0x00000000000207f8                LoadedImageDevicePathProtocolDumpInformation
 .text.DevicePathProtocolDumpInformation
                0x0000000000020804        0xc /tmp/ccwaw90K.ltrans2.ltrans.o
                0x0000000000020804                DevicePathProtocolDumpInformation
 .text.GraphicsOutputProtocolDumpInformation
                0x0000000000020810      0x2b8 /tmp/ccwaw90K.ltrans2.ltrans.o
                0x0000000000020810                GraphicsOutputProtocolDumpInformation
 .text.ConvertMemoryType
                0x0000000000020ac8      0x130 /tmp/ccwaw90K.ltrans2.ltrans.o
 .text.LoadedImageProtocolDumpInformation
                0x0000000000020bf8      0x234 /tmp/ccwaw90K.ltrans2.ltrans.o
                0x0000000000020bf8                LoadedImageProtocolDumpInformation
 .text.ShellCommandLineGetValue
                0x0000000000020e2c      0x10c /tmp/ccwaw90K.ltrans2.ltrans.o
                0x0000000000020e2c                ShellCommandLineGetValue
 .text.ShellCommandLineGetFlag
                0x0000000000020f38       0xf4 /tmp/ccwaw90K.ltrans2.ltrans.o
                0x0000000000020f38                ShellCommandLineGetFlag
 .text.InternalPrintTo
                0x000000000002102c       0x90 /tmp/ccwaw90K.ltrans2.ltrans.o
 .text.InternalShellPrintWorker
                0x00000000000210bc      0x328 /tmp/ccwaw90K.ltrans2.ltrans.o
 .text.ShellPrintHiiEx
                0x00000000000213e4       0xc0 /tmp/ccwaw90K.ltrans2.ltrans.o
                0x00000000000213e4                ShellPrintHiiEx
 .text.ShellPrintEx
                0x00000000000214a4       0x84 /tmp/ccwaw90K.ltrans2.ltrans.o
                0x00000000000214a4                ShellPrintEx
 .text.ShellPrintHelp
                0x0000000000021528       0xd8 /tmp/ccwaw90K.ltrans2.ltrans.o
                0x0000000000021528                ShellPrintHelp
 .text.ShellPromptForResponse
                0x0000000000021600      0x5d0 /tmp/ccwaw90K.ltrans2.ltrans.o
                0x0000000000021600                ShellPromptForResponse
 .text.ShellPromptForResponseHii
                0x0000000000021bd0       0x58 /tmp/ccwaw90K.ltrans2.ltrans.o
                0x0000000000021bd0                ShellPromptForResponseHii
 .text.ShellOpenFileMetaArg
                0x0000000000021c28      0x2a8 /tmp/ccwaw90K.ltrans2.ltrans.o
                0x0000000000021c28                ShellOpenFileMetaArg
 .text.ShellFileExists
                0x0000000000021ed0       0x3c /tmp/ccwaw90K.ltrans2.ltrans.o
                0x0000000000021ed0                ShellFileExists
 .text.UefiDevicePathLibStrDuplicate
                0x0000000000021f0c       0x1c /tmp/ccwaw90K.ltrans2.ltrans.o
                0x0000000000021f0c                UefiDevicePathLibStrDuplicate
 .text.DevPathFromTextDns
                0x0000000000021f28      0x10c /tmp/ccwaw90K.ltrans2.ltrans.o
                0x0000000000021f28                DevPathFromTextDns
 .text.FileDevicePath
                0x0000000000022034       0xa0 /tmp/ccwaw90K.ltrans2.ltrans.o
                0x0000000000022034                FileDevicePath
 .text.PathCleanUpDirectories
                0x00000000000220d4      0x15c /tmp/ccwaw90K.ltrans2.ltrans.o
                0x00000000000220d4                PathCleanUpDirectories
 .text.ShellOpenFileByName
                0x0000000000022230      0x354 /tmp/ccwaw90K.ltrans2.ltrans.o
                0x0000000000022230                ShellOpenFileByName
 .text.ShellDeleteFileByName
                0x0000000000022584       0x44 /tmp/ccwaw90K.ltrans2.ltrans.o
                0x0000000000022584                ShellDeleteFileByName
 .text.ShellIsFile
                0x00000000000225c8       0x60 /tmp/ccwaw90K.ltrans2.ltrans.o
                0x00000000000225c8                ShellIsFile
 .text.ShellIsDirectory
                0x0000000000022628      0x124 /tmp/ccwaw90K.ltrans2.ltrans.o
                0x0000000000022628                ShellIsDirectory
 .text.ShellFindFilePath
                0x000000000002274c      0x29c /tmp/ccwaw90K.ltrans2.ltrans.o
                0x000000000002274c                ShellFindFilePath
 .text.ShellCreateDirectory
                0x00000000000229e8       0x28 /tmp/ccwaw90K.ltrans2.ltrans.o
                0x00000000000229e8                ShellCreateDirectory
 .text.FullyQualifyPath
                0x0000000000022a10      0x158 /tmp/ccwaw90K.ltrans2.ltrans.o
                0x0000000000022a10                FullyQualifyPath
 .text.unlikely.IsNumberLetterOnly
                0x0000000000022b68       0x58 /tmp/ccwaw90K.ltrans3.ltrans.o
 .text.FileTimeToLocalTime
                0x0000000000022bc0      0x10c /tmp/ccwaw90K.ltrans3.ltrans.o
 .text.InternalIsTimeLikeString
                0x0000000000022ccc       0x7c /tmp/ccwaw90K.ltrans3.ltrans.o
 .text.ShellCommandGetManFileNameLevel2
                0x0000000000022d48        0xc /tmp/ccwaw90K.ltrans3.ltrans.o
                0x0000000000022d48                ShellCommandGetManFileNameLevel2
 .text.DevPathSerialDefault
                0x0000000000022d54        0x8 /tmp/ccwaw90K.ltrans3.ltrans.o
 .text.DevPathComparePci
                0x0000000000022d5c       0x3c /tmp/ccwaw90K.ltrans3.ltrans.o
 .text.DevPathCompareAcpi
                0x0000000000022d98       0x50 /tmp/ccwaw90K.ltrans3.ltrans.o
 .text.ShellCommandConsistMappingUnInitialize
                0x0000000000022de8       0x3c /tmp/ccwaw90K.ltrans3.ltrans.o
 .text.StrniCmp.part.0
                0x0000000000022e24       0xdc /tmp/ccwaw90K.ltrans3.ltrans.o
 .text.GetFullyQualifiedPath
                0x0000000000022f00       0xd4 /tmp/ccwaw90K.ltrans3.ltrans.o
 .text.PrintLsOutput
                0x0000000000022fd4      0x93c /tmp/ccwaw90K.ltrans3.ltrans.o
 .text.CascadeDelete
                0x0000000000023910      0x40c /tmp/ccwaw90K.ltrans3.ltrans.o
 .text.ShellCommandRunRm
                0x0000000000023d1c      0x378 /tmp/ccwaw90K.ltrans3.ltrans.o
                0x0000000000023d1c                ShellCommandRunRm
 .text.ShellCommandRunDate
                0x0000000000024094      0x38c /tmp/ccwaw90K.ltrans3.ltrans.o
                0x0000000000024094                ShellCommandRunDate
 .text.ShellCommandRunTime
                0x0000000000024420      0x6c4 /tmp/ccwaw90K.ltrans3.ltrans.o
                0x0000000000024420                ShellCommandRunTime
 .text.ShellCommandRunTimeZone
                0x0000000000024ae4      0x62c /tmp/ccwaw90K.ltrans3.ltrans.o
                0x0000000000024ae4                ShellCommandRunTimeZone
 .text.VerifyIntermediateDirectories
                0x0000000000025110       0xfc /tmp/ccwaw90K.ltrans3.ltrans.o
 .text.CopySingleFile
                0x000000000002520c      0x420 /tmp/ccwaw90K.ltrans3.ltrans.o
 .text.ValidateAndCopyFiles
                0x000000000002562c      0x754 /tmp/ccwaw90K.ltrans3.ltrans.o
 .text.ProcessValidateAndCopyFiles
                0x0000000000025d80      0x164 /tmp/ccwaw90K.ltrans3.ltrans.o
 .text.ShellCommandRunMkDir
                0x0000000000025ee4      0x24c /tmp/ccwaw90K.ltrans3.ltrans.o
                0x0000000000025ee4                ShellCommandRunMkDir
 .text.ShellCommandRunReset
                0x0000000000026130      0x364 /tmp/ccwaw90K.ltrans3.ltrans.o
                0x0000000000026130                ShellCommandRunReset
 .text.PerformSingleMappingDelete
                0x0000000000026494       0x84 /tmp/ccwaw90K.ltrans3.ltrans.o
 .text.PerformSingleMappingDisplay
                0x0000000000026518      0x664 /tmp/ccwaw90K.ltrans3.ltrans.o
 .text.PerformMappingDisplay
                0x0000000000026b7c      0x3ac /tmp/ccwaw90K.ltrans3.ltrans.o
 .text.GetHIDevicePath
                0x0000000000026f28      0x104 /tmp/ccwaw90K.ltrans3.ltrans.o
 .text.ShellCommandConsistMappingInitialize
                0x000000000002702c      0x178 /tmp/ccwaw90K.ltrans3.ltrans.o
 .text.ShellCommandCreateNewMappingName
                0x00000000000271a4       0x70 /tmp/ccwaw90K.ltrans3.ltrans.o
 .text.DevPathCompareDefault
                0x0000000000027214       0x74 /tmp/ccwaw90K.ltrans3.ltrans.o
 .text.CatPrint
                0x0000000000027288      0x11c /tmp/ccwaw90K.ltrans3.ltrans.o
 .text.ShellCommandConsistMappingGenMappingName
                0x00000000000273a4      0x1f0 /tmp/ccwaw90K.ltrans3.ltrans.o
 .text.AppendCSDStr
                0x0000000000027594      0x160 /tmp/ccwaw90K.ltrans3.ltrans.o
 .text.DevPathSerial1394
                0x00000000000276f4       0x40 /tmp/ccwaw90K.ltrans3.ltrans.o
 .text.DevPathSerialMacAddr
                0x0000000000027734       0x84 /tmp/ccwaw90K.ltrans3.ltrans.o
 .text.AppendCSDNum2
                0x00000000000277b8       0x5c /tmp/ccwaw90K.ltrans3.ltrans.o
 .text.AppendCSDNum
                0x0000000000027814       0x54 /tmp/ccwaw90K.ltrans3.ltrans.o
 .text.DevPathSerialAcpi
                0x0000000000027868       0x3c /tmp/ccwaw90K.ltrans3.ltrans.o
 .text.DevPathSerialScsi
                0x00000000000278a4       0x44 /tmp/ccwaw90K.ltrans3.ltrans.o
 .text.DevPathSerialIPv6
                0x00000000000278e8       0xc4 /tmp/ccwaw90K.ltrans3.ltrans.o
 .text.DevPathSerialIPv4
                0x00000000000279ac       0xac /tmp/ccwaw90K.ltrans3.ltrans.o
 .text.DevPathSerialInfiniBand
                0x0000000000027a58       0x98 /tmp/ccwaw90K.ltrans3.ltrans.o
 .text.DevPathSerialI2O
                0x0000000000027af0       0x10 /tmp/ccwaw90K.ltrans3.ltrans.o
 .text.DevPathSerialIScsi
                0x0000000000027b00        0x8 /tmp/ccwaw90K.ltrans3.ltrans.o
 .text.DevPathSerialSata
                0x0000000000027b08       0x54 /tmp/ccwaw90K.ltrans3.ltrans.o
 .text.DevPathSerialLun
                0x0000000000027b5c       0x10 /tmp/ccwaw90K.ltrans3.ltrans.o
 .text.DevPathSerialVendor
                0x0000000000027b6c       0xcc /tmp/ccwaw90K.ltrans3.ltrans.o
 .text.DevPathSerialUsb
                0x0000000000027c38      0x10c /tmp/ccwaw90K.ltrans3.ltrans.o
 .text.DevPathSerialUart
                0x0000000000027d44       0x64 /tmp/ccwaw90K.ltrans3.ltrans.o
 .text.DevPathSerialFibre
                0x0000000000027da8       0x44 /tmp/ccwaw90K.ltrans3.ltrans.o
 .text.DevPathSerialCdRom
                0x0000000000027dec       0x18 /tmp/ccwaw90K.ltrans3.ltrans.o
 .text.DevPathSerialAtapi
                0x0000000000027e04       0x1c /tmp/ccwaw90K.ltrans3.ltrans.o
 .text.DevPathSerialHardDrive
                0x0000000000027e20       0x20 /tmp/ccwaw90K.ltrans3.ltrans.o
 .text.ValidateAndMoveFiles
                0x0000000000027e40      0xc6c /tmp/ccwaw90K.ltrans3.ltrans.o
                0x0000000000027e40                ValidateAndMoveFiles
 .text.ShellCommandFindMapItem
                0x0000000000028aac       0x80 /tmp/ccwaw90K.ltrans3.ltrans.o
                0x0000000000028aac                ShellCommandFindMapItem
 .text.FreeBufferList.part.4
                0x0000000000028b2c       0x58 /tmp/ccwaw90K.ltrans3.ltrans.o
                0x0000000000028b2c                FreeBufferList.part.4
 .text.ConvertEfiFileProtocolToShellHandle.part.3
                0x0000000000028b84       0x9c /tmp/ccwaw90K.ltrans3.ltrans.o
                0x0000000000028b84                ConvertEfiFileProtocolToShellHandle.part.3
 .text.DumpHex  0x0000000000028c20      0x108 /tmp/ccwaw90K.ltrans3.ltrans.o
                0x0000000000028c20                DumpHex
 .text.ShellFileHandleEof
                0x0000000000028d28       0x88 /tmp/ccwaw90K.ltrans3.ltrans.o
                0x0000000000028d28                ShellFileHandleEof
 .text.ShellCommandRunParse
                0x0000000000028db0      0x554 /tmp/ccwaw90K.ltrans3.ltrans.o
                0x0000000000028db0                ShellCommandRunParse
 .text.ShellFileHandleRemove
                0x0000000000029304       0xb0 /tmp/ccwaw90K.ltrans3.ltrans.o
                0x0000000000029304                ShellFileHandleRemove
 .text.ShellFileHandleGetPath
                0x00000000000293b4       0x78 /tmp/ccwaw90K.ltrans3.ltrans.o
                0x00000000000293b4                ShellFileHandleGetPath
 .text.ShellCommandGetCurrentScriptFile
                0x000000000002942c       0x44 /tmp/ccwaw90K.ltrans3.ltrans.o
                0x000000000002942c                ShellCommandGetCurrentScriptFile
 .text.DeleteScriptFileStruct
                0x0000000000029470       0xf0 /tmp/ccwaw90K.ltrans3.ltrans.o
                0x0000000000029470                DeleteScriptFileStruct
 .text.ShellCommandSetNewScript
                0x0000000000029560       0x8c /tmp/ccwaw90K.ltrans3.ltrans.o
                0x0000000000029560                ShellCommandSetNewScript
 .text.ShellCommandRegisterExit
                0x00000000000295ec       0x2c /tmp/ccwaw90K.ltrans3.ltrans.o
                0x00000000000295ec                ShellCommandRegisterExit
 .text.ShellCommandIsOnAliasList
                0x0000000000029618       0x9c /tmp/ccwaw90K.ltrans3.ltrans.o
                0x0000000000029618                ShellCommandIsOnAliasList
 .text.ShellCommandRegisterAlias
                0x00000000000296b4      0x108 /tmp/ccwaw90K.ltrans3.ltrans.o
                0x00000000000296b4                ShellCommandRegisterAlias
 .text.CommandInit
                0x00000000000297bc      0x120 /tmp/ccwaw90K.ltrans3.ltrans.o
                0x00000000000297bc                CommandInit
 .text.ShellCommandRunCp
                0x00000000000298dc      0x3f4 /tmp/ccwaw90K.ltrans3.ltrans.o
                0x00000000000298dc                ShellCommandRunCp
 .text.ShellCommandRunCd
                0x0000000000029cd0      0x510 /tmp/ccwaw90K.ltrans3.ltrans.o
                0x0000000000029cd0                ShellCommandRunCd
 .text.ShellCommandRunSet
                0x000000000002a1e0      0x33c /tmp/ccwaw90K.ltrans3.ltrans.o
                0x000000000002a1e0                ShellCommandRunSet
 .text.ShellCommandRunLs
                0x000000000002a51c      0x578 /tmp/ccwaw90K.ltrans3.ltrans.o
                0x000000000002a51c                ShellCommandRunLs
 .text.LoadDriver
                0x000000000002aa94      0x234 /tmp/ccwaw90K.ltrans3.ltrans.o
 .text.ShellCommandRunLoad
                0x000000000002acc8      0x220 /tmp/ccwaw90K.ltrans3.ltrans.o
                0x000000000002acc8                ShellCommandRunLoad
 .text.InternalShellInitHandleList.part.5
                0x000000000002aee8       0xbc /tmp/ccwaw90K.ltrans3.ltrans.o
                0x000000000002aee8                InternalShellInitHandleList.part.5
 .text.GetAllMappingGuids
                0x000000000002afa4       0xf8 /tmp/ccwaw90K.ltrans3.ltrans.o
                0x000000000002afa4                GetAllMappingGuids
 .text.GetHandleListByProtocolList
                0x000000000002b09c      0x160 /tmp/ccwaw90K.ltrans3.ltrans.o
                0x000000000002b09c                GetHandleListByProtocolList
 .text.GetHandleListByProtocol
                0x000000000002b1fc      0x118 /tmp/ccwaw90K.ltrans3.ltrans.o
                0x000000000002b1fc                GetHandleListByProtocol
 .text.ShellCommandCreateInitialMappingsAndPaths
                0x000000000002b314      0x304 /tmp/ccwaw90K.ltrans3.ltrans.o
                0x000000000002b314                ShellCommandCreateInitialMappingsAndPaths
 .text.ShellCommandFindDynamicCommand
                0x000000000002b618       0xb0 /tmp/ccwaw90K.ltrans3.ltrans.o
                0x000000000002b618                ShellCommandFindDynamicCommand
 .text.ShellCommandIsCommandOnList
                0x000000000002b6c8       0x90 /tmp/ccwaw90K.ltrans3.ltrans.o
                0x000000000002b6c8                ShellCommandIsCommandOnList
 .text.ShellCommandRegisterCommandName
                0x000000000002b758      0x1c0 /tmp/ccwaw90K.ltrans3.ltrans.o
                0x000000000002b758                ShellCommandRegisterCommandName
 .text.ParseHandleDatabaseByRelationshipWithType
                0x000000000002b918      0x6ec /tmp/ccwaw90K.ltrans3.ltrans.o
                0x000000000002b918                ParseHandleDatabaseByRelationshipWithType
 .text.ParseHandleDatabaseByRelationship.part.8
                0x000000000002c004      0x134 /tmp/ccwaw90K.ltrans3.ltrans.o
                0x000000000002c004                ParseHandleDatabaseByRelationship.part.8
 .text.ParseHandleDatabaseByRelationship
                0x000000000002c138       0x18 /tmp/ccwaw90K.ltrans3.ltrans.o
                0x000000000002c138                ParseHandleDatabaseByRelationship
 .text.ParseHandleDatabaseForChildControllers
                0x000000000002c150      0x12c /tmp/ccwaw90K.ltrans3.ltrans.o
                0x000000000002c150                ParseHandleDatabaseForChildControllers
 .text.ConvertHandleIndexToHandle
                0x000000000002c27c       0xc0 /tmp/ccwaw90K.ltrans3.ltrans.o
                0x000000000002c27c                ConvertHandleIndexToHandle
 .text.ShellCommandRunMap
                0x000000000002c33c      0xba8 /tmp/ccwaw90K.ltrans3.ltrans.o
                0x000000000002c33c                ShellCommandRunMap
 .text.FileBufferMovePosition
                0x000000000002cee4      0x19c /tmp/ccwaw90K.ltrans4.ltrans.o
 .text.FileBufferScrollRight
                0x000000000002d080       0x64 /tmp/ccwaw90K.ltrans4.ltrans.o
 .text.LineDeleteAt
                0x000000000002d0e4       0x3c /tmp/ccwaw90K.ltrans4.ltrans.o
 .text.FileBufferScrollLeft
                0x000000000002d120       0x5c /tmp/ccwaw90K.ltrans4.ltrans.o
 .text.FileBufferRestorePosition
                0x000000000002d17c       0x28 /tmp/ccwaw90K.ltrans4.ltrans.o
 .text.MoveLine
                0x000000000002d1a4       0x8c /tmp/ccwaw90K.ltrans4.ltrans.o
 .text.ShellCommandGetManFileNameDebug1
                0x000000000002d230        0xc /tmp/ccwaw90K.ltrans4.ltrans.o
                0x000000000002d230                ShellCommandGetManFileNameDebug1
 .text.FileBufferFreeLines
                0x000000000002d23c       0x90 /tmp/ccwaw90K.ltrans4.ltrans.o
 .text.ShellCommandRunDmem
                0x000000000002d2cc      0x500 /tmp/ccwaw90K.ltrans4.ltrans.o
                0x000000000002d2cc                ShellCommandRunDmem
 .text.ShellCommandRunEfiDecompress
                0x000000000002d7cc      0x4fc /tmp/ccwaw90K.ltrans4.ltrans.o
                0x000000000002d7cc                ShellCommandRunEfiDecompress
 .text.ShellCommandRunEfiCompress
                0x000000000002dcc8      0x45c /tmp/ccwaw90K.ltrans4.ltrans.o
                0x000000000002dcc8                ShellCommandRunEfiCompress
 .text.ShellCommandRunMemMap
                0x000000000002e124      0xbec /tmp/ccwaw90K.ltrans4.ltrans.o
                0x000000000002e124                ShellCommandRunMemMap
 .text.ShellCommandRunMode
                0x000000000002ed10      0x33c /tmp/ccwaw90K.ltrans4.ltrans.o
                0x000000000002ed10                ShellCommandRunMode
 .text.PrintDifferentPoint
                0x000000000002f04c      0x124 /tmp/ccwaw90K.ltrans4.ltrans.o
 .text.ShellCommandRunComp
                0x000000000002f170      0x79c /tmp/ccwaw90K.ltrans4.ltrans.o
                0x000000000002f170                ShellCommandRunComp
 .text.FileBufferRestoreMousePosition
                0x000000000002f90c      0x1fc /tmp/ccwaw90K.ltrans4.ltrans.o
 .text.ShellCommandRunSetSize
                0x000000000002fb08      0x304 /tmp/ccwaw90K.ltrans4.ltrans.o
                0x000000000002fb08                ShellCommandRunSetSize
 .text.HMainEditorRefresh
                0x000000000002fe0c      0x2a0 /tmp/ccwaw90K.ltrans4.ltrans.o
 .text.HMainCommandSelectEnd
                0x00000000000300ac       0x94 /tmp/ccwaw90K.ltrans4.ltrans.o
 .text.HMainCommandSelectStart
                0x0000000000030140       0x84 /tmp/ccwaw90K.ltrans4.ltrans.o
 .text.MainCommandSwitchFileType
                0x00000000000301c4       0x54 /tmp/ccwaw90K.ltrans4.ltrans.o
 .text.IsValidFileName
                0x0000000000030218       0xc4 /tmp/ccwaw90K.ltrans4.ltrans.o
 .text.MainCommandGotoLine
                0x00000000000302dc       0xb0 /tmp/ccwaw90K.ltrans4.ltrans.o
 .text.HMainCommandExit
                0x000000000003038c       0xf4 /tmp/ccwaw90K.ltrans4.ltrans.o
 .text.HMainCommandOpenMemory
                0x0000000000030480      0x2c8 /tmp/ccwaw90K.ltrans4.ltrans.o
 .text.MainCommandPasteLine
                0x0000000000030748      0x128 /tmp/ccwaw90K.ltrans4.ltrans.o
 .text.LineCat  0x0000000000030870       0x7c /tmp/ccwaw90K.ltrans4.ltrans.o
 .text.FileBufferSetFileName
                0x00000000000308ec       0x70 /tmp/ccwaw90K.ltrans4.ltrans.o
 .text.FileBufferCreateLine
                0x000000000003095c       0x98 /tmp/ccwaw90K.ltrans4.ltrans.o
 .text.MainCommandCutLine
                0x00000000000309f4      0x100 /tmp/ccwaw90K.ltrans4.ltrans.o
 .text.HMainCommandOpenDisk
                0x0000000000030af4      0x304 /tmp/ccwaw90K.ltrans4.ltrans.o
 .text.HMainCommandOpenFile
                0x0000000000030df8      0x2d8 /tmp/ccwaw90K.ltrans4.ltrans.o
 .text.HMainCommandPaste
                0x00000000000310d0      0x200 /tmp/ccwaw90K.ltrans4.ltrans.o
 .text.HMainCommandCut
                0x00000000000312d0       0xcc /tmp/ccwaw90K.ltrans4.ltrans.o
 .text.HMainCommandSaveBuffer
                0x000000000003139c      0x338 /tmp/ccwaw90K.ltrans4.ltrans.o
 .text.HMainCommandGoToOffset
                0x00000000000316d4       0xf8 /tmp/ccwaw90K.ltrans4.ltrans.o
 .text.HMainCommandDisplayHelp
                0x00000000000317cc      0x118 /tmp/ccwaw90K.ltrans4.ltrans.o
 .text.EditGetDefaultFileName
                0x00000000000318e4       0x90 /tmp/ccwaw90K.ltrans4.ltrans.o
 .text.ShellCommandRunHexEdit
                0x0000000000031974     0x1218 /tmp/ccwaw90K.ltrans4.ltrans.o
                0x0000000000031974                ShellCommandRunHexEdit
 .text.FileBufferSave
                0x0000000000032b8c      0x474 /tmp/ccwaw90K.ltrans4.ltrans.o
 .text.MainCommandSaveFile
                0x0000000000033000      0x298 /tmp/ccwaw90K.ltrans4.ltrans.o
 .text.MainCommandExit
                0x0000000000033298       0xf4 /tmp/ccwaw90K.ltrans4.ltrans.o
 .text.FileBufferRead
                0x000000000003338c      0x550 /tmp/ccwaw90K.ltrans4.ltrans.o
 .text.MainCommandOpenFile
                0x00000000000338dc      0x1dc /tmp/ccwaw90K.ltrans4.ltrans.o
 .text.FileBufferPrintLine
                0x0000000000033ab8      0x11c /tmp/ccwaw90K.ltrans4.ltrans.o
 .text.FileBufferBackup
                0x0000000000033bd4       0x9c /tmp/ccwaw90K.ltrans4.ltrans.o
 .text.ShellCmdDriverConfigurationProcessActionRequired
                0x0000000000033c70      0x214 /tmp/ccwaw90K.ltrans4.ltrans.o
 .text.PreHiiDrvCfg
                0x0000000000033e84      0x878 /tmp/ccwaw90K.ltrans4.ltrans.o
 .text.ShellCommandRunDevTree
                0x00000000000346fc      0x2e4 /tmp/ccwaw90K.ltrans4.ltrans.o
                0x00000000000346fc                ShellCommandRunDevTree
 .text.HLineRetreat
                0x00000000000349e0       0x48 /tmp/ccwaw90K.ltrans4.ltrans.o
                0x00000000000349e0                HLineRetreat
 .text.HLineAdvance
                0x0000000000034a28       0x44 /tmp/ccwaw90K.ltrans4.ltrans.o
                0x0000000000034a28                HLineAdvance
 .text.HMoveLine
                0x0000000000034a6c       0x14 /tmp/ccwaw90K.ltrans4.ltrans.o
                0x0000000000034a6c                HMoveLine
 .text.EditorClearLine
                0x0000000000034a80       0xc4 /tmp/ccwaw90K.ltrans4.ltrans.o
                0x0000000000034a80                EditorClearLine
 .text.FileBufferRefresh
                0x0000000000034b44      0x1dc /tmp/ccwaw90K.ltrans4.ltrans.o
 .text.MainEditorRefresh
                0x0000000000034d20      0x140 /tmp/ccwaw90K.ltrans4.ltrans.o
 .text.ShellCommandRunEdit
                0x0000000000034e60      0xecc /tmp/ccwaw90K.ltrans4.ltrans.o
                0x0000000000034e60                ShellCommandRunEdit
 .text.MainCommandDisplayHelp
                0x0000000000035d2c      0x11c /tmp/ccwaw90K.ltrans4.ltrans.o
 .text.FileBufferSearch
                0x0000000000035e48       0xf0 /tmp/ccwaw90K.ltrans4.ltrans.o
 .text.MainCommandSearchReplace
                0x0000000000035f38      0x6ec /tmp/ccwaw90K.ltrans4.ltrans.o
 .text.MainCommandSearch
                0x0000000000036624      0x1a4 /tmp/ccwaw90K.ltrans4.ltrans.o
 .text.GetSystemConfigurationTable
                0x00000000000367c8       0xa0 /tmp/ccwaw90K.ltrans4.ltrans.o
                0x00000000000367c8                GetSystemConfigurationTable
 .text.FindHiiHandleViaDevPath
                0x0000000000036868      0x228 /tmp/ccwaw90K.ltrans4.ltrans.o
                0x0000000000036868                FindHiiHandleViaDevPath
 .text.ShellCommandRunDrvCfg
                0x0000000000036a90      0xce4 /tmp/ccwaw90K.ltrans4.ltrans.o
                0x0000000000036a90                ShellCommandRunDrvCfg
 .text.CountLen
                0x0000000000037774       0x90 /tmp/ccwaw90K.ltrans5.ltrans.o
 .text.DownHeap
                0x0000000000037804       0x80 /tmp/ccwaw90K.ltrans5.ltrans.o
 .text.MakeChild
                0x0000000000037884       0x6c /tmp/ccwaw90K.ltrans5.ltrans.o
 .text.Child    0x00000000000378f0       0x44 /tmp/ccwaw90K.ltrans5.ltrans.o
 .text.HBufferImageRestorePosition
                0x0000000000037934       0x3c /tmp/ccwaw90K.ltrans5.ltrans.o
 .text.HBufferImageIsInSelectedArea
                0x0000000000037970       0xd8 /tmp/ccwaw90K.ltrans5.ltrans.o
 .text.PciGetProtocolAndResource
                0x0000000000037a48       0x64 /tmp/ccwaw90K.ltrans5.ltrans.o
 .text.PciGetClassStrings
                0x0000000000037aac       0x9c /tmp/ccwaw90K.ltrans5.ltrans.o
 .text.HBufferImageCreateLine
                0x0000000000037b48       0x7c /tmp/ccwaw90K.ltrans5.ltrans.o
 .text.HBufferImagePrintLine
                0x0000000000037bc4      0x418 /tmp/ccwaw90K.ltrans5.ltrans.o
 .text.ExplainPcieRootStatus
                0x0000000000037fdc       0x70 /tmp/ccwaw90K.ltrans5.ltrans.o
 .text.ExplainPcieRootCap
                0x000000000003804c       0x30 /tmp/ccwaw90K.ltrans5.ltrans.o
 .text.ExplainPcieRootControl
                0x000000000003807c       0xac /tmp/ccwaw90K.ltrans5.ltrans.o
 .text.ExplainPcieSlotStatus
                0x0000000000038128      0x17c /tmp/ccwaw90K.ltrans5.ltrans.o
 .text.ExplainPcieSlotControl
                0x00000000000382a4      0x184 /tmp/ccwaw90K.ltrans5.ltrans.o
 .text.ExplainPcieSlotCap
                0x0000000000038428      0x184 /tmp/ccwaw90K.ltrans5.ltrans.o
 .text.ExplainPcieLinkStatus
                0x00000000000385ac      0x110 /tmp/ccwaw90K.ltrans5.ltrans.o
 .text.ExplainPcieLinkControl
                0x00000000000386bc      0x168 /tmp/ccwaw90K.ltrans5.ltrans.o
 .text.ExplainPcieLinkCap
                0x0000000000038824      0x18c /tmp/ccwaw90K.ltrans5.ltrans.o
 .text.ExplainPcieDeviceStatus
                0x00000000000389b0       0xc8 /tmp/ccwaw90K.ltrans5.ltrans.o
 .text.ExplainPcieDeviceControl
                0x0000000000038a78      0x200 /tmp/ccwaw90K.ltrans5.ltrans.o
 .text.ExplainPcieDeviceCap
                0x0000000000038c78      0x250 /tmp/ccwaw90K.ltrans5.ltrans.o
 .text.ExplainPcieCapReg
                0x0000000000038ec8       0xc4 /tmp/ccwaw90K.ltrans5.ltrans.o
 .text.InputBarPrintInput
                0x0000000000038f8c      0x110 /tmp/ccwaw90K.ltrans5.ltrans.o
 .text.ShellCommandRunDblk
                0x000000000003909c      0x4a0 /tmp/ccwaw90K.ltrans5.ltrans.o
                0x000000000003909c                ShellCommandRunDblk
 .text.GetAttrType
                0x000000000003953c      0x118 /tmp/ccwaw90K.ltrans5.ltrans.o
 .text.CascadeProcessVariables
                0x0000000000039654      0x5f4 /tmp/ccwaw90K.ltrans5.ltrans.o
 .text.ShellCommandRunDmpStore
                0x0000000000039c48      0xb90 /tmp/ccwaw90K.ltrans5.ltrans.o
                0x0000000000039c48                ShellCommandRunDmpStore
 .text.ShellCommandRunPci
                0x000000000003a7d8     0x15e4 /tmp/ccwaw90K.ltrans5.ltrans.o
                0x000000000003a7d8                ShellCommandRunPci
 .text.DisplaySettings
                0x000000000003bdbc      0x210 /tmp/ccwaw90K.ltrans5.ltrans.o
 .text.ShellCommandRunSerMode
                0x000000000003bfcc      0x4e8 /tmp/ccwaw90K.ltrans5.ltrans.o
                0x000000000003bfcc                ShellCommandRunSerMode
 .text.IsStringOfHexNibbles
                0x000000000003c4b4       0x3c /tmp/ccwaw90K.ltrans5.ltrans.o
 .text.ParseParameterData
                0x000000000003c4f0      0x590 /tmp/ccwaw90K.ltrans5.ltrans.o
 .text.ShellCommandRunSetVar
                0x000000000003ca80      0x634 /tmp/ccwaw90K.ltrans5.ltrans.o
                0x000000000003ca80                ShellCommandRunSetVar
 .text.ShellMmAccess
                0x000000000003d0b4      0x36c /tmp/ccwaw90K.ltrans5.ltrans.o
 .text.ShellCommandRunMm
                0x000000000003d420      0x8e4 /tmp/ccwaw90K.ltrans5.ltrans.o
                0x000000000003d420                ShellCommandRunMm
 .text.LoadEfiDriversFromRomImage
                0x000000000003dd04      0x31c /tmp/ccwaw90K.ltrans5.ltrans.o
 .text.ShellCommandRunLoadPciRom
                0x000000000003e020      0x38c /tmp/ccwaw90K.ltrans5.ltrans.o
                0x000000000003e020                ShellCommandRunLoadPciRom
 .text.PutBits  0x000000000003e3ac       0xc8 /tmp/ccwaw90K.ltrans5.ltrans.o
                0x000000000003e3ac                PutBits
 .text.MakeTree
                0x000000000003e474      0x304 /tmp/ccwaw90K.ltrans5.ltrans.o
                0x000000000003e474                MakeTree
 .text.FreadCrc
                0x000000000003e778       0x94 /tmp/ccwaw90K.ltrans5.ltrans.o
                0x000000000003e778                FreadCrc
 .text.InsertNode
                0x000000000003e80c      0x340 /tmp/ccwaw90K.ltrans5.ltrans.o
                0x000000000003e80c                InsertNode
 .text.GetNextMatch
                0x000000000003eb4c      0x248 /tmp/ccwaw90K.ltrans5.ltrans.o
                0x000000000003eb4c                GetNextMatch
 .text.FreeMemory
                0x000000000003ed94       0xb8 /tmp/ccwaw90K.ltrans5.ltrans.o
                0x000000000003ed94                FreeMemory
 .text.PutDword
                0x000000000003ee4c       0x7c /tmp/ccwaw90K.ltrans5.ltrans.o
                0x000000000003ee4c                PutDword
 .text.HFileImageSetFileName
                0x000000000003eec8       0x60 /tmp/ccwaw90K.ltrans5.ltrans.o
                0x000000000003eec8                HFileImageSetFileName
 .text.HBufferImageListToBuffer
                0x000000000003ef28       0x78 /tmp/ccwaw90K.ltrans5.ltrans.o
                0x000000000003ef28                HBufferImageListToBuffer
 .text.HBufferImageBufferToList
                0x000000000003efa0       0xac /tmp/ccwaw90K.ltrans5.ltrans.o
                0x000000000003efa0                HBufferImageBufferToList
 .text.HBufferImageGetTotalSize
                0x000000000003f04c       0x38 /tmp/ccwaw90K.ltrans5.ltrans.o
                0x000000000003f04c                HBufferImageGetTotalSize
 .text.HBufferImageMovePosition
                0x000000000003f084       0xf4 /tmp/ccwaw90K.ltrans5.ltrans.o
                0x000000000003f084                HBufferImageMovePosition
 .text.HBufferImageIsAtHighBits
                0x000000000003f178       0x50 /tmp/ccwaw90K.ltrans5.ltrans.o
                0x000000000003f178                HBufferImageIsAtHighBits
 .text.HBufferImageRestoreMousePosition
                0x000000000003f1c8      0x2b0 /tmp/ccwaw90K.ltrans5.ltrans.o
 .text.HBufferImageRefresh
                0x000000000003f478      0x298 /tmp/ccwaw90K.ltrans5.ltrans.o
                0x000000000003f478                HBufferImageRefresh
 .text.HBufferImageFreeLines
                0x000000000003f710       0x68 /tmp/ccwaw90K.ltrans5.ltrans.o
                0x000000000003f710                HBufferImageFreeLines
 .text.HBufferImageDeleteCharacterFromBuffer
                0x000000000003f778      0x194 /tmp/ccwaw90K.ltrans5.ltrans.o
                0x000000000003f778                HBufferImageDeleteCharacterFromBuffer
 .text.HBufferImageBackup
                0x000000000003f90c      0x114 /tmp/ccwaw90K.ltrans5.ltrans.o
                0x000000000003f90c                HBufferImageBackup
 .text.MenuBarDispatchControlHotKey
                0x000000000003fa20       0x9c /tmp/ccwaw90K.ltrans5.ltrans.o
                0x000000000003fa20                MenuBarDispatchControlHotKey
 .text.MenuBarInit
                0x000000000003fabc       0x94 /tmp/ccwaw90K.ltrans5.ltrans.o
                0x000000000003fabc                MenuBarInit
 .text.MenuBarCleanup
                0x000000000003fb50       0x2c /tmp/ccwaw90K.ltrans5.ltrans.o
                0x000000000003fb50                MenuBarCleanup
 .text.StatusBarSetStatusString
                0x000000000003fb7c       0x64 /tmp/ccwaw90K.ltrans5.ltrans.o
                0x000000000003fb7c                StatusBarSetStatusString
 .text.HMemImageRead
                0x000000000003fbe0      0x198 /tmp/ccwaw90K.ltrans5.ltrans.o
                0x000000000003fbe0                HMemImageRead
 .text.HFileImageRead
                0x000000000003fd78      0x2a0 /tmp/ccwaw90K.ltrans5.ltrans.o
                0x000000000003fd78                HFileImageRead
 .text.HFileImageRead.stub
                0x0000000000040018        0xc linker stubs
 .text.HDiskImageRead
                0x0000000000041018      0x2bc /tmp/ccwaw90K.ltrans5.ltrans.o
                0x0000000000041018                HDiskImageRead
 .text.HBufferImageRead
                0x00000000000412d4       0x94 /tmp/ccwaw90K.ltrans5.ltrans.o
                0x00000000000412d4                HBufferImageRead
 .text.HBufferImageHandleInput
                0x0000000000041368      0x49c /tmp/ccwaw90K.ltrans5.ltrans.o
                0x0000000000041368                HBufferImageHandleInput
 .text.MenuBarDispatchFunctionKey
                0x0000000000041804       0x54 /tmp/ccwaw90K.ltrans5.ltrans.o
                0x0000000000041804                MenuBarDispatchFunctionKey
 .text.StatusBarCleanup
                0x0000000000041858       0x2c /tmp/ccwaw90K.ltrans5.ltrans.o
                0x0000000000041858                StatusBarCleanup
 .text.InputBarSetStringSize
                0x0000000000041884       0x58 /tmp/ccwaw90K.ltrans5.ltrans.o
                0x0000000000041884                InputBarSetStringSize
 .text.InputBarSetPrompt
                0x00000000000418dc       0x58 /tmp/ccwaw90K.ltrans5.ltrans.o
                0x00000000000418dc                InputBarSetPrompt
 .text.InputBarRefresh
                0x0000000000041934      0x268 /tmp/ccwaw90K.ltrans5.ltrans.o
                0x0000000000041934                InputBarRefresh
 .text.InputBarCleanup
                0x0000000000041b9c       0x48 /tmp/ccwaw90K.ltrans5.ltrans.o
                0x0000000000041b9c                InputBarCleanup
 .text.MainTitleBarRefresh
                0x0000000000041be4      0x248 /tmp/ccwaw90K.ltrans5.ltrans.o
                0x0000000000041be4                MainTitleBarRefresh
 .text.MainTitleBarCleanup
                0x0000000000041e2c       0x30 /tmp/ccwaw90K.ltrans5.ltrans.o
                0x0000000000041e2c                MainTitleBarCleanup
 .text.LibGetSmbiosString
                0x0000000000041e5c       0x60 /tmp/ccwaw90K.ltrans5.ltrans.o
                0x0000000000041e5c                LibGetSmbiosString
 .text.LibGetSmbios64BitStructure.part.3
                0x0000000000041ebc       0xac /tmp/ccwaw90K.ltrans5.ltrans.o
 .text.LibGetSmbiosStructure.part.2
                0x0000000000041f68       0xb0 /tmp/ccwaw90K.ltrans5.ltrans.o
 .text.ShellCommandRunSmbiosView
                0x0000000000042018      0xf70 /tmp/ccwaw90K.ltrans5.ltrans.o
                0x0000000000042018                ShellCommandRunSmbiosView
 .text.MemToString
                0x0000000000042f88       0x20 /tmp/ccwaw90K.ltrans6.ltrans.o
 .text.DisplayProcessorFamily.part.5
                0x0000000000042fa8      0xea0 /tmp/ccwaw90K.ltrans6.ltrans.o
 .text.DisplayMmMemorySize
                0x0000000000043e48      0x100 /tmp/ccwaw90K.ltrans6.ltrans.o
 .text.WritePTLen
                0x0000000000043f48      0x10c /tmp/ccwaw90K.ltrans6.ltrans.o
 .text.SendBlock
                0x0000000000044054      0x494 /tmp/ccwaw90K.ltrans6.ltrans.o
 .text.CompressOutput
                0x00000000000444e8      0x120 /tmp/ccwaw90K.ltrans6.ltrans.o
 .text.SmbiosPrintStructure.part.21
                0x0000000000044608     0x7098 /tmp/ccwaw90K.ltrans6.ltrans.o
                0x0000000000044608                SmbiosPrintStructure.part.21
 .text.Smbios64BitPrintEPSInfo
                0x000000000004b6a0      0x180 /tmp/ccwaw90K.ltrans6.ltrans.o
                0x000000000004b6a0                Smbios64BitPrintEPSInfo
 .text.SmbiosPrintEPSInfo
                0x000000000004b820      0x22c /tmp/ccwaw90K.ltrans6.ltrans.o
                0x000000000004b820                SmbiosPrintEPSInfo
 .text.Compress
                0x000000000004ba4c      0x45c /tmp/ccwaw90K.ltrans6.ltrans.o
                0x000000000004ba4c                Compress
 .text.ShellCommandGetManFileNameBcfg
                0x000000000004bea8        0xc /tmp/ccwaw90K.ltrans7.ltrans.o
 .text.ManFileFindTitleSection.part.3.constprop.79
                0x000000000004beb4      0x26c /tmp/ccwaw90K.ltrans7.ltrans.o
 .text.InternalCommandLineParse.part.15.constprop.52
                0x000000000004c120      0x414 /tmp/ccwaw90K.ltrans7.ltrans.o
 .text.ShellLibDestructor.constprop.134
                0x000000000004c534      0x118 /tmp/ccwaw90K.ltrans7.ltrans.o
                0x000000000004c534                ShellLibDestructor.constprop.134
 .text.GetNextNode.constprop.125
                0x000000000004c64c        0x8 /tmp/ccwaw90K.ltrans7.ltrans.o
                0x000000000004c64c                GetNextNode.constprop.125
 .text.InternalAllocatePool.constprop.124
                0x000000000004c654       0x38 /tmp/ccwaw90K.ltrans7.ltrans.o
                0x000000000004c654                InternalAllocatePool.constprop.124
 .text.BasePrintLibSPrintMarker.constprop.119
                0x000000000004c68c      0xf40 /tmp/ccwaw90K.ltrans7.ltrans.o
                0x000000000004c68c                BasePrintLibSPrintMarker.constprop.119
 .text.unlikely.BasePrintLibSPrint.constprop.120
                0x000000000004d5cc       0x54 /tmp/ccwaw90K.ltrans7.ltrans.o
 .text.ShellCopySearchAndReplace.constprop.117
                0x000000000004d620      0x1a8 /tmp/ccwaw90K.ltrans7.ltrans.o
                0x000000000004d620                ShellCopySearchAndReplace.constprop.117
 .text.FindNextInstance.constprop.116
                0x000000000004d7c8       0x54 /tmp/ccwaw90K.ltrans7.ltrans.o
                0x000000000004d7c8                FindNextInstance.constprop.116
 .text.ShellFindFilePathEx.part.12.constprop.114
                0x000000000004d81c       0xe0 /tmp/ccwaw90K.ltrans7.ltrans.o
                0x000000000004d81c                ShellFindFilePathEx.part.12.constprop.114
 .text.unlikely.CreateFileInterfaceFile.constprop.112
                0x000000000004d8fc       0xbc /tmp/ccwaw90K.ltrans7.ltrans.o
                0x000000000004d8fc                CreateFileInterfaceFile.constprop.112
 .text.RunScriptFile.constprop.110
                0x000000000004d9b8      0x85c /tmp/ccwaw90K.ltrans7.ltrans.o
                0x000000000004d9b8                RunScriptFile.constprop.110
 .text.RunSplitCommand.constprop.109
                0x000000000004e214      0x22c /tmp/ccwaw90K.ltrans7.ltrans.o
                0x000000000004e214                RunSplitCommand.constprop.109
 .text.IsDevicePathValid.part.0.constprop.108
                0x000000000004e440       0xb0 /tmp/ccwaw90K.ltrans7.ltrans.o
                0x000000000004e440                IsDevicePathValid.part.0.constprop.108
 .text.ShellCommandAddMapItemAndUpdatePath.constprop.105
                0x000000000004e4f0      0x1ac /tmp/ccwaw90K.ltrans7.ltrans.o
                0x000000000004e4f0                ShellCommandAddMapItemAndUpdatePath.constprop.105
 .text.PerformQuickSort.constprop.104
                0x000000000004e69c       0x54 /tmp/ccwaw90K.ltrans7.ltrans.o
                0x000000000004e69c                PerformQuickSort.constprop.104
 .text.ShellLibConstructorWorker.constprop.102
                0x000000000004e6f0      0x3a0 /tmp/ccwaw90K.ltrans7.ltrans.o
                0x000000000004e6f0                ShellLibConstructorWorker.constprop.102
 .text.GetBestLanguageForDriver.constprop.82
                0x000000000004ea90       0x84 /tmp/ccwaw90K.ltrans7.ltrans.o
                0x000000000004ea90                GetBestLanguageForDriver.constprop.82
 .text.ShellSetFilePosition.constprop.81
                0x000000000004eb14       0x10 /tmp/ccwaw90K.ltrans7.ltrans.o
                0x000000000004eb14                ShellSetFilePosition.constprop.81
 .text.ProcessManFile.constprop.76
                0x000000000004eb24      0x6f0 /tmp/ccwaw90K.ltrans7.ltrans.o
                0x000000000004eb24                ProcessManFile.constprop.76
 .text.CreateAndPopulateShellFileInfo.constprop.75
                0x000000000004f214      0x138 /tmp/ccwaw90K.ltrans7.ltrans.o
                0x000000000004f214                CreateAndPopulateShellFileInfo.constprop.75
 .text.FileHandleFindFirstFile.constprop.74
                0x000000000004f34c       0xd0 /tmp/ccwaw90K.ltrans7.ltrans.o
                0x000000000004f34c                FileHandleFindFirstFile.constprop.74
 .text.StrnCatGrowLeft.constprop.73
                0x000000000004f41c       0xd8 /tmp/ccwaw90K.ltrans7.ltrans.o
                0x000000000004f41c                StrnCatGrowLeft.constprop.73
 .text.StrHexToUint64S.constprop.62
                0x000000000004f4f4      0x100 /tmp/ccwaw90K.ltrans7.ltrans.o
                0x000000000004f4f4                StrHexToUint64S.constprop.62
 .text.StrToIpv6Address.constprop.61
                0x000000000004f5f4      0x1e0 /tmp/ccwaw90K.ltrans7.ltrans.o
                0x000000000004f5f4                StrToIpv6Address.constprop.61
 .text.StrToIpv4Address.constprop.60
                0x000000000004f7d4       0xfc /tmp/ccwaw90K.ltrans7.ltrans.o
                0x000000000004f7d4                StrToIpv4Address.constprop.60
 .text.UnicodeStrToAsciiStrS.constprop.59
                0x000000000004f8d0       0xa8 /tmp/ccwaw90K.ltrans7.ltrans.o
                0x000000000004f8d0                UnicodeStrToAsciiStrS.constprop.59
 .text.UnicodeValueToStringS.constprop.54
                0x000000000004f978      0x130 /tmp/ccwaw90K.ltrans7.ltrans.o
                0x000000000004f978                UnicodeValueToStringS.constprop.54
 .text.ShellCommandLineParseEx.constprop.49
                0x000000000004faa8       0x48 /tmp/ccwaw90K.ltrans7.ltrans.o
                0x000000000004faa8                ShellCommandLineParseEx.constprop.49
 .text.ShellIsHexOrDecimalNumber.constprop.48
                0x000000000004faf0       0x30 /tmp/ccwaw90K.ltrans7.ltrans.o
                0x000000000004faf0                ShellIsHexOrDecimalNumber.constprop.48
 .text.CatSDumpHex.constprop.47
                0x000000000004fb20      0x124 /tmp/ccwaw90K.ltrans7.ltrans.o
                0x000000000004fb20                CatSDumpHex.constprop.47
 .text.SearchList.constprop.41
                0x000000000004fc44      0x15c /tmp/ccwaw90K.ltrans7.ltrans.o
                0x000000000004fc44                SearchList.constprop.41
 .text.ConvertHandleToHiiHandle.constprop.35
                0x000000000004fda0       0x94 /tmp/ccwaw90K.ltrans7.ltrans.o
                0x000000000004fda0                ConvertHandleToHiiHandle.constprop.35
 .text.StatusBarRefresh.constprop.32
                0x000000000004fe34      0x184 /tmp/ccwaw90K.ltrans7.ltrans.o
                0x000000000004fe34                StatusBarRefresh.constprop.32
 .text.ModU64x32.constprop.29
                0x000000000004ffb8        0x8 /tmp/ccwaw90K.ltrans7.ltrans.o
                0x000000000004ffb8                ModU64x32.constprop.29
 .text.HBufferImageSave.constprop.28
                0x000000000004ffc0      0x3fc /tmp/ccwaw90K.ltrans7.ltrans.o
                0x000000000004ffc0                HBufferImageSave.constprop.28
 .text.MultU64x64.constprop.27
                0x00000000000503bc        0x8 /tmp/ccwaw90K.ltrans7.ltrans.o
                0x00000000000503bc                MultU64x64.constprop.27
 .text.IoRead64.constprop.25
                0x00000000000503c4        0x8 /tmp/ccwaw90K.ltrans7.ltrans.o
                0x00000000000503c4                IoRead64.constprop.25
 .text.IoRead32.constprop.23
                0x00000000000503cc        0x8 /tmp/ccwaw90K.ltrans7.ltrans.o
                0x00000000000503cc                IoRead32.constprop.23
 .text.IoRead16.constprop.21
                0x00000000000503d4        0x8 /tmp/ccwaw90K.ltrans7.ltrans.o
                0x00000000000503d4                IoRead16.constprop.21
 .text.IoRead8.constprop.19
                0x00000000000503dc        0x8 /tmp/ccwaw90K.ltrans7.ltrans.o
                0x00000000000503dc                IoRead8.constprop.19
 .text.QueryTable.constprop.10
                0x00000000000503e4       0xb4 /tmp/ccwaw90K.ltrans7.ltrans.o
                0x00000000000503e4                QueryTable.constprop.10
 .text.DisplaySELSysManagementTypes.constprop.8
                0x0000000000050498       0xc0 /tmp/ccwaw90K.ltrans7.ltrans.o
                0x0000000000050498                DisplaySELSysManagementTypes.constprop.8
 .text.BcfgLibraryRegisterBcfgCommand.part.2
                0x0000000000050558       0x84 /tmp/ccwaw90K.ltrans7.ltrans.o
                0x0000000000050558                BcfgLibraryRegisterBcfgCommand.part.2
 .text.WriteUnaligned32
                0x00000000000505dc       0x2c /tmp/ccwaw90K.ltrans8.ltrans.o
 .text.GetDevicePathForDriverHandle
                0x0000000000050608       0xfc /tmp/ccwaw90K.ltrans8.ltrans.o
 .text.CatVSPrint
                0x0000000000050704       0xd0 /tmp/ccwaw90K.ltrans8.ltrans.o
 .text.PeCoffLoaderGetPdbPointer
                0x00000000000507d4      0x178 /tmp/ccwaw90K.ltrans8.ltrans.o
                0x00000000000507d4                PeCoffLoaderGetPdbPointer
 .text.CatSPrint
                0x000000000005094c       0x74 /tmp/ccwaw90K.ltrans8.ltrans.o
                0x000000000005094c                CatSPrint
 .text.Print    0x00000000000509c0       0xf0 /tmp/ccwaw90K.ltrans8.ltrans.o
                0x00000000000509c0                Print
 .text.MmioWrite64
                0x0000000000050ab0        0xc /tmp/ccwaw90K.ltrans8.ltrans.o
                0x0000000000050ab0                MmioWrite64
 .text.MmioRead64
                0x0000000000050abc        0x8 /tmp/ccwaw90K.ltrans8.ltrans.o
                0x0000000000050abc                MmioRead64
 .text.MmioWrite32
                0x0000000000050ac4        0xc /tmp/ccwaw90K.ltrans8.ltrans.o
                0x0000000000050ac4                MmioWrite32
 .text.MmioRead32
                0x0000000000050ad0        0x8 /tmp/ccwaw90K.ltrans8.ltrans.o
                0x0000000000050ad0                MmioRead32
 .text.MmioWrite16
                0x0000000000050ad8       0x10 /tmp/ccwaw90K.ltrans8.ltrans.o
                0x0000000000050ad8                MmioWrite16
 .text.MmioRead16
                0x0000000000050ae8        0x8 /tmp/ccwaw90K.ltrans8.ltrans.o
                0x0000000000050ae8                MmioRead16
 .text.MmioWrite8
                0x0000000000050af0       0x10 /tmp/ccwaw90K.ltrans8.ltrans.o
                0x0000000000050af0                MmioWrite8
 .text.MmioRead8
                0x0000000000050b00        0x8 /tmp/ccwaw90K.ltrans8.ltrans.o
                0x0000000000050b00                MmioRead8
 .text.WriteUnaligned64
                0x0000000000050b08       0x2c /tmp/ccwaw90K.ltrans8.ltrans.o
                0x0000000000050b08                WriteUnaligned64
 .text.WriteUnaligned16
                0x0000000000050b34       0x1c /tmp/ccwaw90K.ltrans8.ltrans.o
                0x0000000000050b34                WriteUnaligned16
 .text.ReadUnaligned16
                0x0000000000050b50       0x30 /tmp/ccwaw90K.ltrans8.ltrans.o
                0x0000000000050b50                ReadUnaligned16
 .text.ReadUnaligned32
                0x0000000000050b80       0x28 /tmp/ccwaw90K.ltrans8.ltrans.o
                0x0000000000050b80                ReadUnaligned32
 .text.BcfgMod  0x0000000000050ba8      0x87c /tmp/ccwaw90K.ltrans8.ltrans.o
 .text.ShellCommandRunBcfg
                0x0000000000051424     0x1e8c /tmp/ccwaw90K.ltrans8.ltrans.o
                0x0000000000051424                ShellCommandRunBcfg
 .text.ReadUnaligned64
                0x00000000000532b0       0x28 /tmp/ccwaw90K.ltrans8.ltrans.o
                0x00000000000532b0                ReadUnaligned64
 .text.DivU64x32Remainder
                0x00000000000532d8       0x18 /tmp/ccwaw90K.ltrans8.ltrans.o
                0x00000000000532d8                DivU64x32Remainder
 .text.SwapBytes64
                0x00000000000532f0       0x30 /tmp/ccwaw90K.ltrans8.ltrans.o
                0x00000000000532f0                SwapBytes64
 .text.CompareMem
                0x0000000000053320       0x18 /tmp/ccwaw90K.ltrans8.ltrans.o
                0x0000000000053320                CompareMem
 .text.DisplayMemoryErrorOperation
                0x0000000000053338       0x88 /tmp/ccwaw90K.ltrans8.ltrans.o
                0x0000000000053338                DisplayMemoryErrorOperation
 .text.DisplayMemoryErrorGranularity
                0x00000000000533c0       0x88 /tmp/ccwaw90K.ltrans8.ltrans.o
                0x00000000000533c0                DisplayMemoryErrorGranularity
 .text.DisplayMemoryErrorType
                0x0000000000053448       0x88 /tmp/ccwaw90K.ltrans8.ltrans.o
                0x0000000000053448                DisplayMemoryErrorType
 .text.DisplaySELVarDataFormatType
                0x00000000000534d0       0x88 /tmp/ccwaw90K.ltrans8.ltrans.o
                0x00000000000534d0                DisplaySELVarDataFormatType
 .text.DisplayOnboardDeviceTypes
                0x0000000000053558       0x88 /tmp/ccwaw90K.ltrans8.ltrans.o
                0x0000000000053558                DisplayOnboardDeviceTypes
 .text.DisplaySystemSlotType
                0x00000000000535e0       0x88 /tmp/ccwaw90K.ltrans8.ltrans.o
                0x00000000000535e0                DisplaySystemSlotType
 .text.DisplayPortConnectorType
                0x0000000000053668       0x88 /tmp/ccwaw90K.ltrans8.ltrans.o
                0x0000000000053668                DisplayPortConnectorType
 .text.DisplayMcInterleaveSupport
                0x00000000000536f0       0x88 /tmp/ccwaw90K.ltrans8.ltrans.o
                0x00000000000536f0                DisplayMcInterleaveSupport
 .text.DisplaySystemEnclosureStatus
                0x0000000000053778       0x88 /tmp/ccwaw90K.ltrans8.ltrans.o
                0x0000000000053778                DisplaySystemEnclosureStatus
 .text.DisplaySystemEnclosureType
                0x0000000000053800       0xac /tmp/ccwaw90K.ltrans8.ltrans.o
                0x0000000000053800                DisplaySystemEnclosureType
 .text.PrintBitsInfo
                0x00000000000538ac       0xd0 /tmp/ccwaw90K.ltrans8.ltrans.o
                0x00000000000538ac                PrintBitsInfo
 .text.DisplayMmMemoryType
                0x000000000005397c       0x7c /tmp/ccwaw90K.ltrans8.ltrans.o
                0x000000000005397c                DisplayMmMemoryType
 .text.DisplayMcErrorCorrectCapability
                0x00000000000539f8       0x7c /tmp/ccwaw90K.ltrans8.ltrans.o
                0x00000000000539f8                DisplayMcErrorCorrectCapability
 *fill*         0x0000000000053a74        0xc 
 .text          0x0000000000053a80      0x200 /home/uwe/git/ms/iot_core_tx8mmini/mu_platform_nxp/Build/TX8M_MINI_EVK_1GB/RELEASE_GCC5/AARCH64/MdePkg/Library/BaseMemoryLibOptDxe/BaseMemoryLibOptDxe/OUTPUT/BaseMemoryLibOptDxe.lib(SetMem.obj)
                0x0000000000053a80                InternalMemSetMem16
                0x0000000000053a8c                InternalMemSetMem32
                0x0000000000053a98                InternalMemSetMem64
                0x0000000000053aa4                InternalMemZeroMem
                0x0000000000053aac                InternalMemSetMem
 .text          0x0000000000053c80      0x218 /home/uwe/git/ms/iot_core_tx8mmini/mu_platform_nxp/Build/TX8M_MINI_EVK_1GB/RELEASE_GCC5/AARCH64/MdePkg/Library/BaseMemoryLibOptDxe/BaseMemoryLibOptDxe/OUTPUT/BaseMemoryLibOptDxe.lib(CopyMem.obj)
                0x0000000000053dec                InternalMemCopyMem
 *fill*         0x0000000000053e98        0x8 
 .text          0x0000000000053ea0       0x20 /home/uwe/git/ms/iot_core_tx8mmini/mu_platform_nxp/Build/TX8M_MINI_EVK_1GB/RELEASE_GCC5/AARCH64/MdePkg/Library/BaseMemoryLibOptDxe/BaseMemoryLibOptDxe/OUTPUT/BaseMemoryLibOptDxe.lib(CompareGuid.obj)
                0x0000000000053ea0                InternalMemCompareGuid
 .text          0x0000000000053ec0       0xe0 /home/uwe/git/ms/iot_core_tx8mmini/mu_platform_nxp/Build/TX8M_MINI_EVK_1GB/RELEASE_GCC5/AARCH64/MdePkg/Library/BaseMemoryLibOptDxe/BaseMemoryLibOptDxe/OUTPUT/BaseMemoryLibOptDxe.lib(CompareMem.obj)
                0x0000000000053ec0                InternalMemCompareMem
 .text.ArmIsArchTimerImplemented
                0x0000000000053fa0        0x8 /home/uwe/git/ms/iot_core_tx8mmini/mu_platform_nxp/Build/TX8M_MINI_EVK_1GB/RELEASE_GCC5/AARCH64/ArmPkg/Library/ArmLib/ArmBaseLib/OUTPUT/ArmBaseLib.lib(AArch64Support.obj)
                0x0000000000053fa0                ArmIsArchTimerImplemented
 *(.rodata .rodata.* .gnu.linkonce.r.*)
 .rodata.FileInterfaceStdInRead
                0x0000000000053fa8       0x17 /tmp/ccwaw90K.ltrans0.ltrans.o
 .rodata.AppendStringToHistory.str2.2
                0x0000000000053fbf        0x0 /tmp/ccwaw90K.ltrans0.ltrans.o
                                          0x6 (size before relaxing)
 *fill*         0x0000000000053fbf        0x1 
 .rodata.ContainsSplit.str2.2
                0x0000000000053fc0        0x4 /tmp/ccwaw90K.ltrans0.ltrans.o
 .rodata.EfiShellExecute.str2.2
                0x0000000000053fc4       0x22 /tmp/ccwaw90K.ltrans0.ltrans.o
 .rodata.EfiShellFindFilesInDir.str2.2
                0x0000000000053fe6       0x22 /tmp/ccwaw90K.ltrans0.ltrans.o
                                          0xa (size before relaxing)
 .rodata.EfiShellGetCurDir.str2.2
                0x0000000000053fe6        0x8 /tmp/ccwaw90K.ltrans0.ltrans.o
 .rodata.EfiShellGetDevicePathFromMap.str2.2
                0x0000000000053fee        0x8 /tmp/ccwaw90K.ltrans0.ltrans.o
                                          0x4 (size before relaxing)
 .rodata.EfiShellGetFilePathFromDevicePath.str2.2
                0x0000000000053fee        0x8 /tmp/ccwaw90K.ltrans0.ltrans.o
                                          0x4 (size before relaxing)
 .rodata.EfiShellGetMapFromDevicePath.str2.2
                0x0000000000053fee        0x8 /tmp/ccwaw90K.ltrans0.ltrans.o
                                          0x4 (size before relaxing)
 .rodata.EfiShellOpenFileByName.str2.2
                0x0000000000053fee       0x2a /tmp/ccwaw90K.ltrans0.ltrans.o
 .rodata.EfiShellRegisterGuidName.str1.1
                0x0000000000054018        0x7 /tmp/ccwaw90K.ltrans0.ltrans.o
 *fill*         0x000000000005401f        0x1 
 .rodata.EfiShellSetEnv.str2.2
                0x0000000000054020       0x6e /tmp/ccwaw90K.ltrans0.ltrans.o
                                         0x82 (size before relaxing)
 .rodata.FileInterfaceFileWrite.str1.1
                0x000000000005408e        0x3 /tmp/ccwaw90K.ltrans0.ltrans.o
 *fill*         0x0000000000054091        0x1 
 .rodata.FileInterfaceStdInRead.str2.2
                0x0000000000054092       0x28 /tmp/ccwaw90K.ltrans0.ltrans.o
                                         0x30 (size before relaxing)
 .rodata.FixFileName.str2.2
                0x00000000000540ba       0x28 /tmp/ccwaw90K.ltrans0.ltrans.o
                                          0x8 (size before relaxing)
 .rodata.FixVarName.str2.2
                0x00000000000540ba       0x28 /tmp/ccwaw90K.ltrans0.ltrans.o
                                          0x4 (size before relaxing)
 .rodata.GetNextParameter.str2.2
                0x00000000000540ba        0x6 /tmp/ccwaw90K.ltrans0.ltrans.o
                                          0xc (size before relaxing)
 .rodata.IsScriptOnlyCommand.str2.2
                0x00000000000540c0       0x2e /tmp/ccwaw90K.ltrans0.ltrans.o
                                         0x3c (size before relaxing)
 .rodata.ManFileFindSections.str2.2
                0x00000000000540ee       0x10 /tmp/ccwaw90K.ltrans0.ltrans.o
 .rodata.ProcessCommandLineToFinal.str2.2
                0x00000000000540fe       0x18 /tmp/ccwaw90K.ltrans0.ltrans.o
                                         0x1c (size before relaxing)
 .rodata.ProcessLibraryConstructorList.str2.2
                0x0000000000054116      0x2c2 /tmp/ccwaw90K.ltrans0.ltrans.o
                                        0x36e (size before relaxing)
 .rodata.RunShellCommand.str2.2
                0x00000000000543d8       0xf6 /tmp/ccwaw90K.ltrans0.ltrans.o
 .rodata.SetEnvironmentVariables.part.1.str2.2
                0x00000000000544ce       0xf6 /tmp/ccwaw90K.ltrans0.ltrans.o
                                          0x4 (size before relaxing)
 .rodata.SetLastError.str2.2
                0x00000000000544ce       0x2a /tmp/ccwaw90K.ltrans0.ltrans.o
 .rodata._ModuleEntryPoint.str2.2
                0x00000000000544f8      0x11a /tmp/ccwaw90K.ltrans0.ltrans.o
                                        0x130 (size before relaxing)
 .rodata.mNoNestingEnvVarName
                0x0000000000054612       0x14 /tmp/ccwaw90K.ltrans0.ltrans.o
 .rodata.mNoNestingTrue
                0x0000000000054626        0xa /tmp/ccwaw90K.ltrans0.ltrans.o
 .rodata.mScriptExtension
                0x0000000000054630        0xa /tmp/ccwaw90K.ltrans0.ltrans.o
 .rodata.mStartupScript
                0x000000000005463a       0x18 /tmp/ccwaw90K.ltrans0.ltrans.o
 *fill*         0x0000000000054652        0x2 
 .rodata.ShellCommandRunCls
                0x0000000000054654        0xf /tmp/ccwaw90K.ltrans1.ltrans.o
 *fill*         0x0000000000054663        0x1 
 .rodata.ShellCommandRunIf
                0x0000000000054664       0x12 /tmp/ccwaw90K.ltrans1.ltrans.o
 .rodata.AllFiles
                0x0000000000054676        0x4 /tmp/ccwaw90K.ltrans1.ltrans.o
 *fill*         0x000000000005467a        0x6 
 .rodata.AttribParamList
                0x0000000000054680       0x90 /tmp/ccwaw90K.ltrans1.ltrans.o
 .rodata.CSWTCH.29
                0x0000000000054710        0x7 /tmp/ccwaw90K.ltrans1.ltrans.o
 *fill*         0x0000000000054717        0x1 
 .rodata.CSWTCH.37
                0x0000000000054718      0x180 /tmp/ccwaw90K.ltrans1.ltrans.o
 .rodata.DoDevTreeForHandle.str2.2
                0x0000000000054898       0x12 /tmp/ccwaw90K.ltrans1.ltrans.o
                                         0x22 (size before relaxing)
 .rodata.DoDhByHandle.str2.2
                0x00000000000548aa       0xc2 /tmp/ccwaw90K.ltrans1.ltrans.o
                                         0xec (size before relaxing)
 .rodata.DoTouchByHandle.str2.2
                0x000000000005496c       0x1a /tmp/ccwaw90K.ltrans1.ltrans.o
                                         0x2a (size before relaxing)
 .rodata.GetProtocolInfoString.str2.2
                0x0000000000054986       0x10 /tmp/ccwaw90K.ltrans1.ltrans.o
                                         0x30 (size before relaxing)
 *fill*         0x0000000000054996        0x2 
 .rodata.ParamList.lto_priv.169
                0x0000000000054998       0x30 /tmp/ccwaw90K.ltrans1.ltrans.o
 .rodata.ParamList.lto_priv.170
                0x00000000000549c8       0x20 /tmp/ccwaw90K.ltrans1.ltrans.o
 .rodata.ParamList.lto_priv.171
                0x00000000000549e8       0x20 /tmp/ccwaw90K.ltrans1.ltrans.o
 .rodata.ParamList.lto_priv.172
                0x0000000000054a08       0x30 /tmp/ccwaw90K.ltrans1.ltrans.o
 .rodata.ParamList.lto_priv.173
                0x0000000000054a38       0x30 /tmp/ccwaw90K.ltrans1.ltrans.o
 .rodata.ParamList.lto_priv.174
                0x0000000000054a68       0x20 /tmp/ccwaw90K.ltrans1.ltrans.o
 .rodata.ParamList.lto_priv.175
                0x0000000000054a88       0x50 /tmp/ccwaw90K.ltrans1.ltrans.o
 .rodata.ParamList.lto_priv.176
                0x0000000000054ad8       0x30 /tmp/ccwaw90K.ltrans1.ltrans.o
 .rodata.ParamList.lto_priv.177
                0x0000000000054b08       0x20 /tmp/ccwaw90K.ltrans1.ltrans.o
 .rodata.ParamList.lto_priv.178
                0x0000000000054b28       0x50 /tmp/ccwaw90K.ltrans1.ltrans.o
 .rodata.ParamList.lto_priv.179
                0x0000000000054b78       0x30 /tmp/ccwaw90K.ltrans1.ltrans.o
 .rodata.ParamList.lto_priv.180
                0x0000000000054ba8       0x30 /tmp/ccwaw90K.ltrans1.ltrans.o
 .rodata.ParamList.lto_priv.181
                0x0000000000054bd8       0x30 /tmp/ccwaw90K.ltrans1.ltrans.o
 .rodata.ParamList.lto_priv.182
                0x0000000000054c08       0x20 /tmp/ccwaw90K.ltrans1.ltrans.o
 .rodata.ParamList.lto_priv.183
                0x0000000000054c28       0x40 /tmp/ccwaw90K.ltrans1.ltrans.o
 .rodata.ParamList.lto_priv.184
                0x0000000000054c68       0x60 /tmp/ccwaw90K.ltrans1.ltrans.o
 .rodata.ParamList.lto_priv.185
                0x0000000000054cc8       0x70 /tmp/ccwaw90K.ltrans1.ltrans.o
 .rodata.ParamList.lto_priv.186
                0x0000000000054d38       0x30 /tmp/ccwaw90K.ltrans1.ltrans.o
 .rodata.PerformResultOperation.part.1.str2.2
                0x0000000000054d68       0x10 /tmp/ccwaw90K.ltrans1.ltrans.o
                                         0x1c (size before relaxing)
 .rodata.ShellCommandRunAttrib.str2.2
                0x0000000000054d68       0x24 /tmp/ccwaw90K.ltrans1.ltrans.o
                                         0x3c (size before relaxing)
 .rodata.ShellCommandRunCls.str2.2
                0x0000000000054d8c        0x8 /tmp/ccwaw90K.ltrans1.ltrans.o
 .rodata.ShellCommandRunConnect.str2.2
                0x0000000000054d8c       0x10 /tmp/ccwaw90K.ltrans1.ltrans.o
                                         0x20 (size before relaxing)
 .rodata.ShellCommandRunDevices.str2.2
                0x0000000000054d9c       0x14 /tmp/ccwaw90K.ltrans1.ltrans.o
                                         0x24 (size before relaxing)
 .rodata.ShellCommandRunDh.str1.1
                0x0000000000054db0        0x6 /tmp/ccwaw90K.ltrans1.ltrans.o
 .rodata.ShellCommandRunDh.str2.2
                0x0000000000054db6       0x24 /tmp/ccwaw90K.ltrans1.ltrans.o
                                         0x38 (size before relaxing)
 .rodata.ShellCommandRunDisconnect.str2.2
                0x0000000000054dda       0x9c /tmp/ccwaw90K.ltrans1.ltrans.o
                                         0xb8 (size before relaxing)
 .rodata.ShellCommandRunDrivers.str1.1
                0x0000000000054e76        0x3 /tmp/ccwaw90K.ltrans1.ltrans.o
 .rodata.ShellCommandRunDrivers.str2.2
                0x0000000000054e76       0x10 /tmp/ccwaw90K.ltrans1.ltrans.o
                                         0x26 (size before relaxing)
 .rodata.ShellCommandRunDrvDiag.str2.2
                0x0000000000054e86       0xac /tmp/ccwaw90K.ltrans1.ltrans.o
                                         0xbc (size before relaxing)
 .rodata.ShellCommandRunEcho.str2.2
                0x0000000000054f32       0xac /tmp/ccwaw90K.ltrans1.ltrans.o
                                         0x2a (size before relaxing)
 .rodata.ShellCommandRunElse.str1.1
                0x0000000000054f32        0x5 /tmp/ccwaw90K.ltrans1.ltrans.o
 *fill*         0x0000000000054f37        0x1 
 .rodata.ShellCommandRunElse.str2.2
                0x0000000000054f38        0xa /tmp/ccwaw90K.ltrans1.ltrans.o
 .rodata.ShellCommandRunEndFor.str2.2
                0x0000000000054f42        0xe /tmp/ccwaw90K.ltrans1.ltrans.o
                                         0x2c (size before relaxing)
 .rodata.ShellCommandRunEndIf.str2.2
                0x0000000000054f50       0x18 /tmp/ccwaw90K.ltrans1.ltrans.o
                                         0x1e (size before relaxing)
 .rodata.ShellCommandRunExit.str2.2
                0x0000000000054f68        0x6 /tmp/ccwaw90K.ltrans1.ltrans.o
                                         0x10 (size before relaxing)
 .rodata.ShellCommandRunFor.str2.2
                0x0000000000054f6e       0x10 /tmp/ccwaw90K.ltrans1.ltrans.o
                                         0x22 (size before relaxing)
 .rodata.ShellCommandRunGetMtc.str2.2
                0x0000000000054f7e        0xe /tmp/ccwaw90K.ltrans1.ltrans.o
 .rodata.ShellCommandRunGoto.str2.2
                0x0000000000054f7e        0xa /tmp/ccwaw90K.ltrans1.ltrans.o
                                         0x14 (size before relaxing)
 .rodata.ShellCommandRunHelp.str2.2
                0x0000000000054f88       0xac /tmp/ccwaw90K.ltrans1.ltrans.o
                                         0xba (size before relaxing)
 .rodata.ShellCommandRunIf.str2.2
                0x0000000000055034       0xba /tmp/ccwaw90K.ltrans1.ltrans.o
                                        0x12c (size before relaxing)
 .rodata.ShellCommandRunMv.str2.2
                0x00000000000550ee        0x6 /tmp/ccwaw90K.ltrans1.ltrans.o
 .rodata.ShellCommandRunOpenInfo.str2.2
                0x00000000000550ee       0x12 /tmp/ccwaw90K.ltrans1.ltrans.o
                                         0x24 (size before relaxing)
 .rodata.ShellCommandRunPause.str2.2
                0x0000000000055100        0x6 /tmp/ccwaw90K.ltrans1.ltrans.o
                                         0x12 (size before relaxing)
 .rodata.ShellCommandRunReconnect.str2.2
                0x0000000000055106       0x14 /tmp/ccwaw90K.ltrans1.ltrans.o
 .rodata.ShellCommandRunShift.str2.2
                0x0000000000055106        0xc /tmp/ccwaw90K.ltrans1.ltrans.o
 .rodata.ShellCommandRunStall.str2.2
                0x0000000000055106        0xc /tmp/ccwaw90K.ltrans1.ltrans.o
 .rodata.ShellCommandRunType.str2.2
                0x0000000000055106       0x10 /tmp/ccwaw90K.ltrans1.ltrans.o
                                         0x26 (size before relaxing)
 .rodata.ShellCommandRunUnload.str2.2
                0x0000000000055116       0x14 /tmp/ccwaw90K.ltrans1.ltrans.o
                                         0x28 (size before relaxing)
 .rodata.ShellCommandRunVer.str2.2
                0x000000000005512a       0x34 /tmp/ccwaw90K.ltrans1.ltrans.o
                                         0x6e (size before relaxing)
 .rodata.ShellCommandRunVol.str2.2
                0x000000000005515e       0x1c /tmp/ccwaw90K.ltrans1.ltrans.o
                                         0x4c (size before relaxing)
 .rodata.ShellLevel3CommandsLibSetAlias.str2.2
                0x000000000005517a        0xc /tmp/ccwaw90K.ltrans1.ltrans.o
 .rodata.StringChild
                0x000000000005517a       0x14 /tmp/ccwaw90K.ltrans1.ltrans.o
 .rodata.StringDriver
                0x000000000005518e       0x14 /tmp/ccwaw90K.ltrans1.ltrans.o
 .rodata.StringDriverEx
                0x00000000000551a2       0x14 /tmp/ccwaw90K.ltrans1.ltrans.o
 .rodata.StringExclusive
                0x00000000000551b6       0x14 /tmp/ccwaw90K.ltrans1.ltrans.o
 .rodata.StringGetProt
                0x00000000000551ca       0x14 /tmp/ccwaw90K.ltrans1.ltrans.o
 .rodata.StringHandProt
                0x00000000000551de       0x14 /tmp/ccwaw90K.ltrans1.ltrans.o
 .rodata.StringTestProt
                0x00000000000551f2       0x14 /tmp/ccwaw90K.ltrans1.ltrans.o
 .rodata.StringUnknown
                0x0000000000055206       0x14 /tmp/ccwaw90K.ltrans1.ltrans.o
 .rodata._gPcd_FixedAtBuild_PcdShellSupplier
                0x000000000005521a        0xe /tmp/ccwaw90K.ltrans1.ltrans.o
                0x000000000005521a                _gPcd_FixedAtBuild_PcdShellSupplier
 .rodata.gShellLevel3FileName
                0x0000000000055228       0x1c /tmp/ccwaw90K.ltrans1.ltrans.o
 .rodata.mFileName.lto_priv.187
                0x0000000000055244       0x1c /tmp/ccwaw90K.ltrans1.ltrans.o
 .rodata.mFileName.lto_priv.188
                0x0000000000055260       0x20 /tmp/ccwaw90K.ltrans1.ltrans.o
 .rodata.mGuidDataLen
                0x0000000000055280       0x28 /tmp/ccwaw90K.ltrans1.ltrans.o
 .rodata.DevPathToTextBBS
                0x00000000000552a8        0x6 /tmp/ccwaw90K.ltrans2.ltrans.o
 *fill*         0x00000000000552ae        0x2 
 .rodata.DevPathToTextUart
                0x00000000000552b0        0x4 /tmp/ccwaw90K.ltrans2.ltrans.o
 .rodata.DevPathFromTextUart
                0x00000000000552b4       0x10 /tmp/ccwaw90K.ltrans2.ltrans.o
 .rodata.GraphicsOutputProtocolDumpInformation
                0x00000000000552c4        0x5 /tmp/ccwaw90K.ltrans2.ltrans.o
 *fill*         0x00000000000552c9        0x3 
 .rodata.ConvertMemoryType
                0x00000000000552cc       0x10 /tmp/ccwaw90K.ltrans2.ltrans.o
 .rodata.ShellPromptForResponse
                0x00000000000552dc        0xa /tmp/ccwaw90K.ltrans2.ltrans.o
 .rodata.AdapterInformationDumpInformation.str2.2
                0x00000000000552e6      0x13a /tmp/ccwaw90K.ltrans2.ltrans.o
 .rodata.BlockIoProtocolDumpInformation.str2.2
                0x0000000000055420       0x70 /tmp/ccwaw90K.ltrans2.ltrans.o
                                         0x86 (size before relaxing)
 .rodata.CSWTCH.42
                0x0000000000055490        0x6 /tmp/ccwaw90K.ltrans2.ltrans.o
 .rodata.CatIPv4Address.str2.2
                0x0000000000055496       0x18 /tmp/ccwaw90K.ltrans2.ltrans.o
 .rodata.CatIPv6Address.str2.2
                0x00000000000554ae       0x90 /tmp/ccwaw90K.ltrans2.ltrans.o
 .rodata.CatNetworkProtocol.str2.2
                0x000000000005553e        0x8 /tmp/ccwaw90K.ltrans2.ltrans.o
                                         0x12 (size before relaxing)
 .rodata.ConvertMemoryType.str2.2
                0x0000000000055546      0x23e /tmp/ccwaw90K.ltrans2.ltrans.o
 .rodata.DebugSupportProtocolDumpInformation.str2.2
                0x0000000000055784       0x1c /tmp/ccwaw90K.ltrans2.ltrans.o
 .rodata.DevPathFromTextIPv6.str2.2
                0x00000000000557a0       0x2e /tmp/ccwaw90K.ltrans2.ltrans.o
 .rodata.DevPathFromTextSasEx.str2.2
                0x00000000000557ce       0x16 /tmp/ccwaw90K.ltrans2.ltrans.o
 .rodata.DevPathFromTextUart.str2.2
                0x00000000000557e4       0x18 /tmp/ccwaw90K.ltrans2.ltrans.o
                                         0x24 (size before relaxing)
 .rodata.DevPathRelativeOffsetRange.str2.2
                0x00000000000557fc       0x28 /tmp/ccwaw90K.ltrans2.ltrans.o
 .rodata.DevPathToText1394.str2.2
                0x0000000000055824       0x1c /tmp/ccwaw90K.ltrans2.ltrans.o
 .rodata.DevPathToTextAcpi.str2.2
                0x0000000000055840       0xfc /tmp/ccwaw90K.ltrans2.ltrans.o
 .rodata.DevPathToTextAcpiAdr.str2.2
                0x000000000005593c       0x26 /tmp/ccwaw90K.ltrans2.ltrans.o
 .rodata.DevPathToTextAcpiEx.str2.2
                0x0000000000055962       0xf2 /tmp/ccwaw90K.ltrans2.ltrans.o
                                        0x102 (size before relaxing)
 .rodata.DevPathToTextAtapi.str2.2
                0x0000000000055a54       0x72 /tmp/ccwaw90K.ltrans2.ltrans.o
 .rodata.DevPathToTextBBS.str2.2
                0x0000000000055ac6       0x5c /tmp/ccwaw90K.ltrans2.ltrans.o
                                         0x80 (size before relaxing)
 .rodata.DevPathToTextBluetooth.str2.2
                0x0000000000055b22       0x48 /tmp/ccwaw90K.ltrans2.ltrans.o
 .rodata.DevPathToTextBluetoothLE.str2.2
                0x0000000000055b6a       0x5a /tmp/ccwaw90K.ltrans2.ltrans.o
 .rodata.DevPathToTextBmc.str2.2
                0x0000000000055bc4       0x20 /tmp/ccwaw90K.ltrans2.ltrans.o
 .rodata.DevPathToTextCDROM.str2.2
                0x0000000000055be4       0x48 /tmp/ccwaw90K.ltrans2.ltrans.o
 .rodata.DevPathToTextController.str2.2
                0x0000000000055c2c       0x16 /tmp/ccwaw90K.ltrans2.ltrans.o
 .rodata.DevPathToTextDns.str2.2
                0x0000000000055c42        0xa /tmp/ccwaw90K.ltrans2.ltrans.o
 .rodata.DevPathToTextEmmc.str2.2
                0x0000000000055c4c       0x16 /tmp/ccwaw90K.ltrans2.ltrans.o
 .rodata.DevPathToTextFibre.str2.2
                0x0000000000055c62       0x26 /tmp/ccwaw90K.ltrans2.ltrans.o
 .rodata.DevPathToTextFibreEx.str2.2
                0x0000000000055c88       0x16 /tmp/ccwaw90K.ltrans2.ltrans.o
 .rodata.DevPathToTextFilePath.str2.2
                0x0000000000055c9e        0x6 /tmp/ccwaw90K.ltrans2.ltrans.o
 .rodata.DevPathToTextFv.str2.2
                0x0000000000055c9e        0xe /tmp/ccwaw90K.ltrans2.ltrans.o
 .rodata.DevPathToTextFvFile.str2.2
                0x0000000000055cac       0x16 /tmp/ccwaw90K.ltrans2.ltrans.o
 .rodata.DevPathToTextHardDrive.str2.2
                0x0000000000055cc2       0x64 /tmp/ccwaw90K.ltrans2.ltrans.o
                                         0x7e (size before relaxing)
 .rodata.DevPathToTextI2O.str2.2
                0x0000000000055d26       0x14 /tmp/ccwaw90K.ltrans2.ltrans.o
 .rodata.DevPathToTextIPv4.str2.2
                0x0000000000055d3a       0x24 /tmp/ccwaw90K.ltrans2.ltrans.o
 .rodata.DevPathToTextIPv6.str2.2
                0x0000000000055d5e       0x80 /tmp/ccwaw90K.ltrans2.ltrans.o
                                         0x8e (size before relaxing)
 .rodata.DevPathToTextInfiniBand.str2.2
                0x0000000000055dde       0x4c /tmp/ccwaw90K.ltrans2.ltrans.o
 .rodata.DevPathToTextLogicalUnit.str2.2
                0x0000000000055e2a       0x16 /tmp/ccwaw90K.ltrans2.ltrans.o
 .rodata.DevPathToTextMacAddr.str2.2
                0x0000000000055e40        0xa /tmp/ccwaw90K.ltrans2.ltrans.o
 .rodata.DevPathToTextMediaProtocol.str2.2
                0x0000000000055e4a       0x14 /tmp/ccwaw90K.ltrans2.ltrans.o
 .rodata.DevPathToTextMemMap.str2.2
                0x0000000000055e5e       0x3e /tmp/ccwaw90K.ltrans2.ltrans.o
 .rodata.DevPathToTextNVMe.str2.2
                0x0000000000055e9c       0x66 /tmp/ccwaw90K.ltrans2.ltrans.o
 .rodata.DevPathToTextNodeGeneric.str2.2
                0x0000000000055f02       0x22 /tmp/ccwaw90K.ltrans2.ltrans.o
                                         0x34 (size before relaxing)
 .rodata.DevPathToTextPccard.str2.2
                0x0000000000055f24       0x1a /tmp/ccwaw90K.ltrans2.ltrans.o
 .rodata.DevPathToTextPci.str2.2
                0x0000000000055f3e       0x1e /tmp/ccwaw90K.ltrans2.ltrans.o
 .rodata.DevPathToTextRamDisk.str2.2
                0x0000000000055f5c       0xca /tmp/ccwaw90K.ltrans2.ltrans.o
                                        0x136 (size before relaxing)
 .rodata.DevPathToTextSasEx.str2.2
                0x0000000000056026       0xb4 /tmp/ccwaw90K.ltrans2.ltrans.o
                                         0xc0 (size before relaxing)
 .rodata.DevPathToTextSata.str2.2
                0x00000000000560da       0x2a /tmp/ccwaw90K.ltrans2.ltrans.o
 .rodata.DevPathToTextScsi.str2.2
                0x0000000000056104       0x20 /tmp/ccwaw90K.ltrans2.ltrans.o
 .rodata.DevPathToTextSd.str2.2
                0x0000000000056124       0x12 /tmp/ccwaw90K.ltrans2.ltrans.o
 .rodata.DevPathToTextUart.str2.2
                0x0000000000056136       0x56 /tmp/ccwaw90K.ltrans2.ltrans.o
                                         0x74 (size before relaxing)
 .rodata.DevPathToTextUfs.str2.2
                0x000000000005618c       0x1e /tmp/ccwaw90K.ltrans2.ltrans.o
 .rodata.DevPathToTextUri.str2.2
                0x00000000000561aa       0x10 /tmp/ccwaw90K.ltrans2.ltrans.o
 .rodata.DevPathToTextUsb.str2.2
                0x00000000000561ba       0x1e /tmp/ccwaw90K.ltrans2.ltrans.o
 .rodata.DevPathToTextUsbClass.str2.2
                0x00000000000561d8      0x250 /tmp/ccwaw90K.ltrans2.ltrans.o
 .rodata.DevPathToTextUsbWWID.str2.2
                0x0000000000056428       0x3a /tmp/ccwaw90K.ltrans2.ltrans.o
 .rodata.DevPathToTextVendor.str2.2
                0x0000000000056462      0x136 /tmp/ccwaw90K.ltrans2.ltrans.o
                                        0x172 (size before relaxing)
 .rodata.DevPathToTextVlan.str2.2
                0x0000000000056598       0x12 /tmp/ccwaw90K.ltrans2.ltrans.o
 .rodata.DevPathToTextWiFi.str2.2
                0x00000000000565aa       0x14 /tmp/ccwaw90K.ltrans2.ltrans.o
 .rodata.DevPathToTextiSCSI.str2.2
                0x00000000000565be       0x6c /tmp/ccwaw90K.ltrans2.ltrans.o
                                         0x90 (size before relaxing)
 .rodata.DevicePathProtocolDumpInformationEx.str2.2
                0x000000000005662a       0x6c /tmp/ccwaw90K.ltrans2.ltrans.o
                                          0xc (size before relaxing)
 .rodata.DriverEfiVersionProtocolDumpInformation.str2.2
                0x000000000005662a        0xe /tmp/ccwaw90K.ltrans2.ltrans.o
 .rodata.EdidActiveProtocolDumpInformation.str2.2
                0x0000000000056638       0x16 /tmp/ccwaw90K.ltrans2.ltrans.o
 .rodata.EdidDiscoveredProtocolDumpInformation.str2.2
                0x000000000005664e       0x1e /tmp/ccwaw90K.ltrans2.ltrans.o
 .rodata.FirmwareManagementDumpInformation.str2.2
                0x000000000005666c      0x168 /tmp/ccwaw90K.ltrans2.ltrans.o
                                        0x16c (size before relaxing)
 .rodata.GraphicsOutputProtocolDumpInformation.str2.2
                0x00000000000567d4      0x108 /tmp/ccwaw90K.ltrans2.ltrans.o
 .rodata.HiiGetString.str1.1
                0x00000000000568dc        0x5 /tmp/ccwaw90K.ltrans2.ltrans.o
                                          0x1 (size before relaxing)
 .rodata.HiiGetString.str2.2
                0x00000000000568dc       0x1a /tmp/ccwaw90K.ltrans2.ltrans.o
 .rodata.InternalShellPrintWorker.str2.2
                0x00000000000568f6       0x20 /tmp/ccwaw90K.ltrans2.ltrans.o
                                         0x4a (size before relaxing)
 .rodata.PartitionInfoProtocolDumpInformation.str2.2
                0x0000000000056916        0xe /tmp/ccwaw90K.ltrans2.ltrans.o
 .rodata.PathCleanUpDirectories.str2.2
                0x0000000000056924       0x1c /tmp/ccwaw90K.ltrans2.ltrans.o
 .rodata.PciIoProtocolDumpInformation.str2.2
                0x0000000000056940       0x1c /tmp/ccwaw90K.ltrans2.ltrans.o
 .rodata.PciRootBridgeIoDumpInformation.str2.2
                0x000000000005695c       0x66 /tmp/ccwaw90K.ltrans2.ltrans.o
                                         0x70 (size before relaxing)
 .rodata.ShellConvertStringToUint64.str2.2
                0x00000000000569c2        0x6 /tmp/ccwaw90K.ltrans2.ltrans.o
                                          0xc (size before relaxing)
 .rodata.ShellFindFilePath.str2.2
                0x00000000000569c8        0xa /tmp/ccwaw90K.ltrans2.ltrans.o
                                         0x16 (size before relaxing)
 .rodata.ShellIsDirectory.str2.2
                0x00000000000569d2        0x8 /tmp/ccwaw90K.ltrans2.ltrans.o
 .rodata.ShellOpenFileByName.str2.2
                0x00000000000569d2       0x12 /tmp/ccwaw90K.ltrans2.ltrans.o
 .rodata.ShellPrintHelp.str2.2
                0x00000000000569d2       0x2e /tmp/ccwaw90K.ltrans2.ltrans.o
 .rodata.ShellPromptForResponse.str2.2
                0x0000000000056a00        0xc /tmp/ccwaw90K.ltrans2.ltrans.o
 .rodata.UefiDevicePathLibConvertDevicePathToText.str2.2
                0x0000000000056a00        0x4 /tmp/ccwaw90K.ltrans2.ltrans.o
 .rodata.mEndOfPakageList
                0x0000000000056a00        0x4 /tmp/ccwaw90K.ltrans2.ltrans.o
 .rodata.mHexStr
                0x0000000000056a04       0x10 /tmp/ccwaw90K.ltrans2.ltrans.o
 .rodata.mUefiDevicePathLibEndDevicePath
                0x0000000000056a14        0x4 /tmp/ccwaw90K.ltrans2.ltrans.o
 .rodata.mUefiDevicePathLibToTextTable
                0x0000000000056a18      0x320 /tmp/ccwaw90K.ltrans2.ltrans.o
 .rodata.mUefiDevicePathLibToTextTableGeneric
                0x0000000000056d38       0x60 /tmp/ccwaw90K.ltrans2.ltrans.o
 .rodata.str2.2
                0x0000000000056d98       0x50 /tmp/ccwaw90K.ltrans2.ltrans.o
 .rodata.ShellCommandRunTime
                0x0000000000056de8        0x4 /tmp/ccwaw90K.ltrans3.ltrans.o
 .rodata.CopySingleFile
                0x0000000000056dec        0xc /tmp/ccwaw90K.ltrans3.ltrans.o
 .rodata.DevPathSerialUsb
                0x0000000000056df8        0x5 /tmp/ccwaw90K.ltrans3.ltrans.o
 *fill*         0x0000000000056dfd        0x3 
 .rodata.ValidateAndMoveFiles
                0x0000000000056e00        0x6 /tmp/ccwaw90K.ltrans3.ltrans.o
 .rodata.AppendCSDNum.str2.2
                0x0000000000056e06        0x8 /tmp/ccwaw90K.ltrans3.ltrans.o
 .rodata.AppendCSDStr.str2.2
                0x0000000000056e0e        0x8 /tmp/ccwaw90K.ltrans3.ltrans.o
                                         0x14 (size before relaxing)
 .rodata.CascadeDelete.str2.2
                0x0000000000056e16        0x6 /tmp/ccwaw90K.ltrans3.ltrans.o
 .rodata.Cd     0x0000000000056e16        0x8 /tmp/ccwaw90K.ltrans3.ltrans.o
 .rodata.CommandInit.str2.2
                0x0000000000056e1e       0x1a /tmp/ccwaw90K.ltrans3.ltrans.o
 .rodata.CopySingleFile.str2.2
                0x0000000000056e1e        0x6 /tmp/ccwaw90K.ltrans3.ltrans.o
 *fill*         0x0000000000056e24        0x4 
 .rodata.DevPathConsistMappingTable
                0x0000000000056e28      0x1f8 /tmp/ccwaw90K.ltrans3.ltrans.o
 .rodata.DevPathSerial1394.str2.2
                0x0000000000057020        0x8 /tmp/ccwaw90K.ltrans3.ltrans.o
 .rodata.DevPathSerialIPv4.str2.2
                0x0000000000057028       0x22 /tmp/ccwaw90K.ltrans3.ltrans.o
 .rodata.DevPathSerialMacAddr.str2.2
                0x000000000005704a        0xa /tmp/ccwaw90K.ltrans3.ltrans.o
 .rodata.DevPathSerialVendor.str2.2
                0x000000000005704a        0x6 /tmp/ccwaw90K.ltrans3.ltrans.o
 .rodata.DumpHex.str1.1
                0x000000000005704a        0x1 /tmp/ccwaw90K.ltrans3.ltrans.o
 .rodata.DumpHex.str2.2
                0x000000000005704a       0x2c /tmp/ccwaw90K.ltrans3.ltrans.o
 *fill*         0x0000000000057076        0x2 
 .rodata.EfiIsaAcpiProtocolGuid.lto_priv.204
                0x0000000000057078       0x10 /tmp/ccwaw90K.ltrans3.ltrans.o
                0x0000000000057078                EfiIsaAcpiProtocolGuid.lto_priv.204
 .rodata.EfiIsaIoProtocolGuid.lto_priv.203
                0x0000000000057088       0x10 /tmp/ccwaw90K.ltrans3.ltrans.o
                0x0000000000057088                EfiIsaIoProtocolGuid.lto_priv.203
 .rodata.Fp     0x0000000000057098        0x8 /tmp/ccwaw90K.ltrans3.ltrans.o
 .rodata.GetFullyQualifiedPath.str2.2
                0x00000000000570a0        0x8 /tmp/ccwaw90K.ltrans3.ltrans.o
 .rodata.Hd     0x00000000000570a0        0x8 /tmp/ccwaw90K.ltrans3.ltrans.o
 .rodata.LoadParamList
                0x00000000000570a8       0x20 /tmp/ccwaw90K.ltrans3.ltrans.o
 .rodata.LsParamList
                0x00000000000570c8       0x40 /tmp/ccwaw90K.ltrans3.ltrans.o
 .rodata.MapParamList
                0x0000000000057108       0x90 /tmp/ccwaw90K.ltrans3.ltrans.o
 .rodata.ParamList.lto_priv.191
                0x0000000000057198       0x30 /tmp/ccwaw90K.ltrans3.ltrans.o
 .rodata.ParamList.lto_priv.192
                0x00000000000571c8       0x30 /tmp/ccwaw90K.ltrans3.ltrans.o
 .rodata.ParamList.lto_priv.193
                0x00000000000571f8       0x20 /tmp/ccwaw90K.ltrans3.ltrans.o
 .rodata.PerformMappingDisplay.str2.2
                0x0000000000057218        0x8 /tmp/ccwaw90K.ltrans3.ltrans.o
 .rodata.PerformSingleMappingDisplay.str2.2
                0x0000000000057218       0x2e /tmp/ccwaw90K.ltrans3.ltrans.o
                                         0x3e (size before relaxing)
 .rodata.PrintLsOutput.str2.2
                0x0000000000057246       0x36 /tmp/ccwaw90K.ltrans3.ltrans.o
                                         0x60 (size before relaxing)
 *fill*         0x000000000005727c        0x4 
 .rodata.ResetParamList
                0x0000000000057280       0x50 /tmp/ccwaw90K.ltrans3.ltrans.o
 .rodata.SetParamList
                0x00000000000572d0       0x30 /tmp/ccwaw90K.ltrans3.ltrans.o
 .rodata.ShellCommandConsistMappingGenMappingName.str2.2
                0x0000000000057300        0x6 /tmp/ccwaw90K.ltrans3.ltrans.o
 .rodata.ShellCommandCreateInitialMappingsAndPaths.str2.2
                0x0000000000057300       0x12 /tmp/ccwaw90K.ltrans3.ltrans.o
 .rodata.ShellCommandCreateNewMappingName.str2.2
                0x0000000000057300       0x1a /tmp/ccwaw90K.ltrans3.ltrans.o
 .rodata.ShellCommandRunCd.str2.2
                0x000000000005731a        0x6 /tmp/ccwaw90K.ltrans3.ltrans.o
 .rodata.ShellCommandRunCp.str2.2
                0x000000000005731a        0x6 /tmp/ccwaw90K.ltrans3.ltrans.o
 .rodata.ShellCommandRunDate.str2.2
                0x000000000005731a       0x32 /tmp/ccwaw90K.ltrans3.ltrans.o
 .rodata.ShellCommandRunLoad.str2.2
                0x000000000005731a       0x12 /tmp/ccwaw90K.ltrans3.ltrans.o
 .rodata.ShellCommandRunLs.str2.2
                0x000000000005731a        0x6 /tmp/ccwaw90K.ltrans3.ltrans.o
 .rodata.ShellCommandRunMap.str2.2
                0x000000000005731a       0x10 /tmp/ccwaw90K.ltrans3.ltrans.o
 .rodata.ShellCommandRunMkDir.str2.2
                0x000000000005731a        0xc /tmp/ccwaw90K.ltrans3.ltrans.o
 .rodata.ShellCommandRunParse.str2.2
                0x000000000005731a       0x42 /tmp/ccwaw90K.ltrans3.ltrans.o
                                         0x5e (size before relaxing)
 .rodata.ShellCommandRunReset.str2.2
                0x000000000005735c       0x8e /tmp/ccwaw90K.ltrans3.ltrans.o
                                         0xa0 (size before relaxing)
 .rodata.ShellCommandRunRm.str2.2
                0x00000000000573ea        0xc /tmp/ccwaw90K.ltrans3.ltrans.o
 .rodata.ShellCommandRunSet.str2.2
                0x00000000000573ea        0xe /tmp/ccwaw90K.ltrans3.ltrans.o
 .rodata.ShellCommandRunTime.str2.2
                0x00000000000573ea       0x38 /tmp/ccwaw90K.ltrans3.ltrans.o
                                         0x50 (size before relaxing)
 .rodata.ShellCommandRunTimeZone.str2.2
                0x0000000000057422       0x12 /tmp/ccwaw90K.ltrans3.ltrans.o
                                         0x36 (size before relaxing)
 *fill*         0x0000000000057434        0x4 
 .rodata.TimeParamList3
                0x0000000000057438       0x30 /tmp/ccwaw90K.ltrans3.ltrans.o
 .rodata.TimeZoneList
                0x0000000000057468       0x90 /tmp/ccwaw90K.ltrans3.ltrans.o
 .rodata.TimeZoneParamList3
                0x00000000000574f8       0x40 /tmp/ccwaw90K.ltrans3.ltrans.o
 .rodata.ValidateAndCopyFiles.str2.2
                0x0000000000057538        0xc /tmp/ccwaw90K.ltrans3.ltrans.o
 .rodata.ValidateAndMoveFiles.str2.2
                0x0000000000057538        0x6 /tmp/ccwaw90K.ltrans3.ltrans.o
 .rodata.WinNtIoProtocolGuid.lto_priv.201
                0x0000000000057538       0x10 /tmp/ccwaw90K.ltrans3.ltrans.o
                0x0000000000057538                WinNtIoProtocolGuid.lto_priv.201
 .rodata.WinNtSerialPortGuid.lto_priv.202
                0x0000000000057548       0x10 /tmp/ccwaw90K.ltrans3.ltrans.o
                0x0000000000057548                WinNtSerialPortGuid.lto_priv.202
 .rodata.WinNtThunkProtocolGuid.lto_priv.200
                0x0000000000057558       0x10 /tmp/ccwaw90K.ltrans3.ltrans.o
                0x0000000000057558                WinNtThunkProtocolGuid.lto_priv.200
 .rodata.mFileName
                0x0000000000057568       0x1c /tmp/ccwaw90K.ltrans3.ltrans.o
 *fill*         0x0000000000057584        0x4 
 .rodata.mGuidStringList.lto_priv.199
                0x0000000000057588     0x1bc0 /tmp/ccwaw90K.ltrans3.ltrans.o
                0x0000000000057588                mGuidStringList.lto_priv.199
 .rodata.mGuidStringListNT.lto_priv.198
                0x0000000000059148       0x60 /tmp/ccwaw90K.ltrans3.ltrans.o
                0x0000000000059148                mGuidStringListNT.lto_priv.198
 .rodata.mMTDName
                0x00000000000591a8       0x50 /tmp/ccwaw90K.ltrans3.ltrans.o
 .rodata.str2.2
                0x00000000000591f8        0x6 /tmp/ccwaw90K.ltrans3.ltrans.o
                                         0x16 (size before relaxing)
 *fill*         0x00000000000591fe        0x2 
 .rodata.ShellCommandRunMemMap
                0x0000000000059200       0x1e /tmp/ccwaw90K.ltrans4.ltrans.o
 *fill*         0x000000000005921e        0x2 
 .rodata.ShellCmdDriverConfigurationProcessActionRequired
                0x0000000000059220        0x4 /tmp/ccwaw90K.ltrans4.ltrans.o
 .rodata.ShellCommandRunEdit
                0x0000000000059224       0x30 /tmp/ccwaw90K.ltrans4.ltrans.o
 .rodata        0x0000000000059254        0x4 /tmp/ccwaw90K.ltrans4.ltrans.o
 .rodata.EditGetDefaultFileName.str2.2
                0x0000000000059258       0x1a /tmp/ccwaw90K.ltrans4.ltrans.o
 .rodata.FileBufferPrintLine.str2.2
                0x0000000000059272        0xa /tmp/ccwaw90K.ltrans4.ltrans.o
 .rodata.FileBufferRead.str2.2
                0x0000000000059272      0x10e /tmp/ccwaw90K.ltrans4.ltrans.o
 .rodata.FileBufferRestoreMousePosition.str2.2
                0x0000000000059380        0x4 /tmp/ccwaw90K.ltrans4.ltrans.o
 .rodata.FileBufferSave.str2.2
                0x0000000000059380       0xde /tmp/ccwaw90K.ltrans4.ltrans.o
 .rodata.HMainCommandCut.str2.2
                0x000000000005945e       0x2a /tmp/ccwaw90K.ltrans4.ltrans.o
 .rodata.HMainCommandDisplayHelp.str2.2
                0x0000000000059488        0xe /tmp/ccwaw90K.ltrans4.ltrans.o
 .rodata.HMainCommandExit.str2.2
                0x0000000000059496       0x52 /tmp/ccwaw90K.ltrans4.ltrans.o
 .rodata.HMainCommandGoToOffset.str2.2
                0x00000000000594e8       0x3c /tmp/ccwaw90K.ltrans4.ltrans.o
 .rodata.HMainCommandOpenDisk.str2.2
                0x0000000000059524       0x78 /tmp/ccwaw90K.ltrans4.ltrans.o
 .rodata.HMainCommandOpenFile.str2.2
                0x000000000005959c       0x4c /tmp/ccwaw90K.ltrans4.ltrans.o
 .rodata.HMainCommandOpenMemory.str2.2
                0x00000000000595e8       0x8a /tmp/ccwaw90K.ltrans4.ltrans.o
 .rodata.HMainCommandPaste.str2.2
                0x0000000000059672       0x22 /tmp/ccwaw90K.ltrans4.ltrans.o
 .rodata.HMainCommandSaveBuffer.str2.2
                0x0000000000059694      0x146 /tmp/ccwaw90K.ltrans4.ltrans.o
 .rodata.HMainCommandSelectEnd.str2.2
                0x00000000000597da       0x24 /tmp/ccwaw90K.ltrans4.ltrans.o
 .rodata.HMainCommandSelectStart.str2.2
                0x00000000000597fe       0x28 /tmp/ccwaw90K.ltrans4.ltrans.o
 *fill*         0x0000000000059826        0x2 
 .rodata.HexEditorMenuItems
                0x0000000000059828       0xb0 /tmp/ccwaw90K.ltrans4.ltrans.o
 .rodata.HexMainMenuHelpInfo
                0x00000000000598d8       0x30 /tmp/ccwaw90K.ltrans4.ltrans.o
 .rodata.LineCat.str2.2
                0x0000000000059908        0xa /tmp/ccwaw90K.ltrans4.ltrans.o
 .rodata.MainCommandCutLine.str2.2
                0x0000000000059912       0x1e /tmp/ccwaw90K.ltrans4.ltrans.o
 .rodata.MainCommandExit.str2.2
                0x0000000000059930       0x4e /tmp/ccwaw90K.ltrans4.ltrans.o
 .rodata.MainCommandGotoLine.str2.2
                0x000000000005997e       0x34 /tmp/ccwaw90K.ltrans4.ltrans.o
 .rodata.MainCommandPasteLine.str2.2
                0x00000000000599b2       0x22 /tmp/ccwaw90K.ltrans4.ltrans.o
                                         0x28 (size before relaxing)
 .rodata.MainCommandSaveFile.str2.2
                0x00000000000599d4       0x4c /tmp/ccwaw90K.ltrans4.ltrans.o
 .rodata.MainCommandSearchReplace.str2.2
                0x0000000000059a20       0xe0 /tmp/ccwaw90K.ltrans4.ltrans.o
 .rodata.MainCommandSwitchFileType.str2.2
                0x0000000000059b00       0x46 /tmp/ccwaw90K.ltrans4.ltrans.o
 .rodata.MainMenuHelpInfo
                0x0000000000059b46       0x30 /tmp/ccwaw90K.ltrans4.ltrans.o
 .rodata.NameEfiACPIMemoryNVS
                0x0000000000059b76       0x1c /tmp/ccwaw90K.ltrans4.ltrans.o
 .rodata.NameEfiACPIMemoryNVSShort
                0x0000000000059b92       0x12 /tmp/ccwaw90K.ltrans4.ltrans.o
 .rodata.NameEfiACPIReclaimMemory
                0x0000000000059ba4       0x24 /tmp/ccwaw90K.ltrans4.ltrans.o
 .rodata.NameEfiACPIReclaimMemoryShort
                0x0000000000059bc8       0x14 /tmp/ccwaw90K.ltrans4.ltrans.o
 .rodata.NameEfiBootServicesCode
                0x0000000000059bdc       0x20 /tmp/ccwaw90K.ltrans4.ltrans.o
 .rodata.NameEfiBootServicesCodeShort
                0x0000000000059bfc       0x10 /tmp/ccwaw90K.ltrans4.ltrans.o
 .rodata.NameEfiBootServicesData
                0x0000000000059c0c       0x20 /tmp/ccwaw90K.ltrans4.ltrans.o
 .rodata.NameEfiBootServicesDataShort
                0x0000000000059c2c       0x10 /tmp/ccwaw90K.ltrans4.ltrans.o
 .rodata.NameEfiConventionalMemory
                0x0000000000059c3c       0x14 /tmp/ccwaw90K.ltrans4.ltrans.o
 .rodata.NameEfiLoaderCode
                0x0000000000059c50       0x16 /tmp/ccwaw90K.ltrans4.ltrans.o
 .rodata.NameEfiLoaderData
                0x0000000000059c66       0x16 /tmp/ccwaw90K.ltrans4.ltrans.o
 .rodata.NameEfiMemoryMappedIO
                0x0000000000059c7c       0x1e /tmp/ccwaw90K.ltrans4.ltrans.o
 .rodata.NameEfiMemoryMappedIOPortSpace
                0x0000000000059c9a       0x30 /tmp/ccwaw90K.ltrans4.ltrans.o
 .rodata.NameEfiMemoryMappedIOPortSpaceShort
                0x0000000000059cca       0x14 /tmp/ccwaw90K.ltrans4.ltrans.o
 .rodata.NameEfiMemoryMappedIOShort
                0x0000000000059cde        0xa /tmp/ccwaw90K.ltrans4.ltrans.o
 .rodata.NameEfiPalCode
                0x0000000000059ce8       0x10 /tmp/ccwaw90K.ltrans4.ltrans.o
 .rodata.NameEfiPersistentMemory
                0x0000000000059cf8       0x16 /tmp/ccwaw90K.ltrans4.ltrans.o
 .rodata.NameEfiReservedMemoryType
                0x0000000000059d0e       0x12 /tmp/ccwaw90K.ltrans4.ltrans.o
 .rodata.NameEfiRuntimeServicesCode
                0x0000000000059d20       0x18 /tmp/ccwaw90K.ltrans4.ltrans.o
 .rodata.NameEfiRuntimeServicesCodeShort
                0x0000000000059d38       0x10 /tmp/ccwaw90K.ltrans4.ltrans.o
 .rodata.NameEfiRuntimeServicesData
                0x0000000000059d48       0x18 /tmp/ccwaw90K.ltrans4.ltrans.o
 .rodata.NameEfiRuntimeServicesDataShort
                0x0000000000059d60       0x10 /tmp/ccwaw90K.ltrans4.ltrans.o
 .rodata.NameEfiUnusableMemory
                0x0000000000059d70       0x1e /tmp/ccwaw90K.ltrans4.ltrans.o
 .rodata.NameEfiUnusableMemoryShort
                0x0000000000059d8e       0x12 /tmp/ccwaw90K.ltrans4.ltrans.o
 .rodata.ParamList.lto_priv.165
                0x0000000000059da0       0x30 /tmp/ccwaw90K.ltrans4.ltrans.o
 .rodata.ParamList.lto_priv.166
                0x0000000000059dd0       0x40 /tmp/ccwaw90K.ltrans4.ltrans.o
 .rodata.ParamList.lto_priv.167
                0x0000000000059e10       0x30 /tmp/ccwaw90K.ltrans4.ltrans.o
 .rodata.ParamList.lto_priv.168
                0x0000000000059e40       0x20 /tmp/ccwaw90K.ltrans4.ltrans.o
 .rodata.ParamListHii
                0x0000000000059e60       0x60 /tmp/ccwaw90K.ltrans4.ltrans.o
 .rodata.ParamListPreHii
                0x0000000000059ec0       0x60 /tmp/ccwaw90K.ltrans4.ltrans.o
 .rodata.PreHiiDrvCfg.str1.1
                0x0000000000059f20        0x1 /tmp/ccwaw90K.ltrans4.ltrans.o
 .rodata.PreHiiDrvCfg.str2.2
                0x0000000000059f20       0x18 /tmp/ccwaw90K.ltrans4.ltrans.o
 .rodata.PrintDifferentPoint.str2.2
                0x0000000000059f20       0x2c /tmp/ccwaw90K.ltrans4.ltrans.o
                                         0x4a (size before relaxing)
 .rodata.ShellCmdDriverConfigurationProcessActionRequired.str2.2
                0x0000000000059f4c       0x8c /tmp/ccwaw90K.ltrans4.ltrans.o
                                         0xb4 (size before relaxing)
 .rodata.ShellCommandRunComp.str2.2
                0x0000000000059fd8       0x18 /tmp/ccwaw90K.ltrans4.ltrans.o
                                         0x36 (size before relaxing)
 .rodata.ShellCommandRunDevTree.str1.1
                0x0000000000059ff0        0x3 /tmp/ccwaw90K.ltrans4.ltrans.o
 .rodata.ShellCommandRunDevTree.str2.2
                0x0000000000059ff0       0x10 /tmp/ccwaw90K.ltrans4.ltrans.o
 .rodata.ShellCommandRunDmem.str2.2
                0x0000000000059ff0        0xc /tmp/ccwaw90K.ltrans4.ltrans.o
                                         0x16 (size before relaxing)
 .rodata.ShellCommandRunDrvCfg.str2.2
                0x0000000000059ffc       0x72 /tmp/ccwaw90K.ltrans4.ltrans.o
                                         0x92 (size before relaxing)
 .rodata.ShellCommandRunEdit.str2.2
                0x000000000005a06e       0x1c /tmp/ccwaw90K.ltrans4.ltrans.o
                                         0x38 (size before relaxing)
 .rodata.ShellCommandRunEfiCompress.str2.2
                0x000000000005a08a       0x18 /tmp/ccwaw90K.ltrans4.ltrans.o
 .rodata.ShellCommandRunEfiDecompress.str2.2
                0x000000000005a08a       0x1c /tmp/ccwaw90K.ltrans4.ltrans.o
 .rodata.ShellCommandRunHexEdit.str2.2
                0x000000000005a08a       0xc8 /tmp/ccwaw90K.ltrans4.ltrans.o
                                         0xf6 (size before relaxing)
 .rodata.ShellCommandRunMemMap.str2.2
                0x000000000005a152       0x18 /tmp/ccwaw90K.ltrans4.ltrans.o
 .rodata.ShellCommandRunMode.str2.2
                0x000000000005a152        0xa /tmp/ccwaw90K.ltrans4.ltrans.o
 .rodata.ShellCommandRunSetSize.str2.2
                0x000000000005a152       0x10 /tmp/ccwaw90K.ltrans4.ltrans.o
 .rodata.gUnicodeFileTag
                0x000000000005a152        0x2 /tmp/ccwaw90K.ltrans4.ltrans.o
                0x000000000005a152                gUnicodeFileTag
 .rodata.mFileName
                0x000000000005a154       0x1e /tmp/ccwaw90K.ltrans4.ltrans.o
 *fill*         0x000000000005a172        0x2 
 .rodata.ShellCommandRunPci
                0x000000000005a174       0x32 /tmp/ccwaw90K.ltrans5.ltrans.o
 *fill*         0x000000000005a1a6        0x2 
 .rodata.ShellMmAccess
                0x000000000005a1a8       0x10 /tmp/ccwaw90K.ltrans5.ltrans.o
 .rodata.HBufferImageHandleInput
                0x000000000005a1b8       0x16 /tmp/ccwaw90K.ltrans5.ltrans.o
 *fill*         0x000000000005a1ce        0x2 
 .rodata.MainTitleBarRefresh
                0x000000000005a1d0        0x4 /tmp/ccwaw90K.ltrans5.ltrans.o
 *fill*         0x000000000005a1d4        0x4 
 .rodata.ASPMCtrlStrTable
                0x000000000005a1d8       0x20 /tmp/ccwaw90K.ltrans5.ltrans.o
 .rodata.CSWTCH.173
                0x000000000005a1f8       0x28 /tmp/ccwaw90K.ltrans5.ltrans.o
 .rodata.CSWTCH.453
                0x000000000005a220       0x18 /tmp/ccwaw90K.ltrans5.ltrans.o
 .rodata.CSWTCH.454
                0x000000000005a238       0x20 /tmp/ccwaw90K.ltrans5.ltrans.o
 .rodata.CSWTCH.68
                0x000000000005a258        0x6 /tmp/ccwaw90K.ltrans5.ltrans.o
 *fill*         0x000000000005a25e        0x2 
 .rodata.CSWTCH.69
                0x000000000005a260       0x20 /tmp/ccwaw90K.ltrans5.ltrans.o
 .rodata.CascadeProcessVariables.str2.2
                0x000000000005a280        0xa /tmp/ccwaw90K.ltrans5.ltrans.o
 .rodata.DevicePortTypeTable
                0x000000000005a280       0x58 /tmp/ccwaw90K.ltrans5.ltrans.o
 .rodata.DisplaySettings.str2.2
                0x000000000005a2d8       0x10 /tmp/ccwaw90K.ltrans5.ltrans.o
 .rodata.ExplainPcieCapReg.str2.2
                0x000000000005a2d8      0x192 /tmp/ccwaw90K.ltrans5.ltrans.o
 .rodata.ExplainPcieDeviceCap.str2.2
                0x000000000005a46a      0x43c /tmp/ccwaw90K.ltrans5.ltrans.o
 .rodata.ExplainPcieDeviceControl.str2.2
                0x000000000005a8a6      0x50e /tmp/ccwaw90K.ltrans5.ltrans.o
 .rodata.ExplainPcieDeviceStatus.str2.2
                0x000000000005adb4      0x27c /tmp/ccwaw90K.ltrans5.ltrans.o
 .rodata.ExplainPcieLinkCap.str2.2
                0x000000000005b030      0x50a /tmp/ccwaw90K.ltrans5.ltrans.o
                                        0x51a (size before relaxing)
 .rodata.ExplainPcieLinkControl.str2.2
                0x000000000005b53a      0x478 /tmp/ccwaw90K.ltrans5.ltrans.o
 .rodata.ExplainPcieLinkStatus.str2.2
                0x000000000005b9b2      0x374 /tmp/ccwaw90K.ltrans5.ltrans.o
                                        0x386 (size before relaxing)
 .rodata.ExplainPcieRootCap.str2.2
                0x000000000005bd26       0x72 /tmp/ccwaw90K.ltrans5.ltrans.o
 .rodata.ExplainPcieRootControl.str2.2
                0x000000000005bd98      0x23a /tmp/ccwaw90K.ltrans5.ltrans.o
 .rodata.ExplainPcieRootStatus.str2.2
                0x000000000005bfd2      0x15e /tmp/ccwaw90K.ltrans5.ltrans.o
 .rodata.ExplainPcieSlotCap.str2.2
                0x000000000005c130      0x5f0 /tmp/ccwaw90K.ltrans5.ltrans.o
 .rodata.ExplainPcieSlotControl.str2.2
                0x000000000005c720      0x588 /tmp/ccwaw90K.ltrans5.ltrans.o
 .rodata.ExplainPcieSlotStatus.str2.2
                0x000000000005cca8      0x45a /tmp/ccwaw90K.ltrans5.ltrans.o
 .rodata.GetAttrType.str2.2
                0x000000000005d102       0x3e /tmp/ccwaw90K.ltrans5.ltrans.o
                                         0x46 (size before relaxing)
 .rodata.HBufferImageHandleInput.str2.2
                0x000000000005d140       0x20 /tmp/ccwaw90K.ltrans5.ltrans.o
 .rodata.HBufferImagePrintLine.str2.2
                0x000000000005d140       0x1c /tmp/ccwaw90K.ltrans5.ltrans.o
                                         0x42 (size before relaxing)
 .rodata.HBufferImageRestoreMousePosition.str2.2
                0x000000000005d15c        0x6 /tmp/ccwaw90K.ltrans5.ltrans.o
 .rodata.HDiskImageRead.str2.2
                0x000000000005d15c       0x74 /tmp/ccwaw90K.ltrans5.ltrans.o
 .rodata.HFileImageRead.str2.2
                0x000000000005d1d0       0x5c /tmp/ccwaw90K.ltrans5.ltrans.o
 .rodata.HMemImageRead.str2.2
                0x000000000005d22c       0x66 /tmp/ccwaw90K.ltrans5.ltrans.o
                                         0x82 (size before relaxing)
 *fill*         0x000000000005d292        0x6 
 .rodata.IndicatorTable
                0x000000000005d298       0x20 /tmp/ccwaw90K.ltrans5.ltrans.o
 .rodata.InputBarPrintInput.str2.2
                0x000000000005d2b8        0x6 /tmp/ccwaw90K.ltrans5.ltrans.o
 .rodata.InputBarRefresh.str2.2
                0x000000000005d2b8        0xe /tmp/ccwaw90K.ltrans5.ltrans.o
 .rodata.InputBarSetPrompt.str2.2
                0x000000000005d2c6        0x8 /tmp/ccwaw90K.ltrans5.ltrans.o
 *fill*         0x000000000005d2ce        0x2 
 .rodata.L0sLatencyStrTable
                0x000000000005d2d0       0x40 /tmp/ccwaw90K.ltrans5.ltrans.o
 .rodata.L1LatencyStrTable
                0x000000000005d310       0x40 /tmp/ccwaw90K.ltrans5.ltrans.o
 .rodata.LoadEfiDriversFromRomImage.str2.2
                0x000000000005d350        0xe /tmp/ccwaw90K.ltrans5.ltrans.o
                                         0x24 (size before relaxing)
 .rodata.MainTitleBarRefresh.str2.2
                0x000000000005d35e       0x9a /tmp/ccwaw90K.ltrans5.ltrans.o
                                         0xc4 (size before relaxing)
 .rodata.ParamList.lto_priv.159
                0x000000000005d3f8       0x20 /tmp/ccwaw90K.ltrans5.ltrans.o
 .rodata.ParamList.lto_priv.160
                0x000000000005d418       0x80 /tmp/ccwaw90K.ltrans5.ltrans.o
 .rodata.ParamList.lto_priv.161
                0x000000000005d498       0x50 /tmp/ccwaw90K.ltrans5.ltrans.o
 .rodata.ParamList.lto_priv.162
                0x000000000005d4e8       0x40 /tmp/ccwaw90K.ltrans5.ltrans.o
 .rodata.ParamList.lto_priv.163
                0x000000000005d528       0x70 /tmp/ccwaw90K.ltrans5.ltrans.o
 .rodata.ParamList.lto_priv.164
                0x000000000005d598       0x50 /tmp/ccwaw90K.ltrans5.ltrans.o
 .rodata.ParseParameterData.str1.1
                0x000000000005d5e8        0x3 /tmp/ccwaw90K.ltrans5.ltrans.o
 *fill*         0x000000000005d5eb        0x1 
 .rodata.ParseParameterData.str2.2
                0x000000000005d5ec        0x6 /tmp/ccwaw90K.ltrans5.ltrans.o
                                         0x14 (size before relaxing)
 .rodata.PciGetClassStrings.str2.2
                0x000000000005d5f2       0x14 /tmp/ccwaw90K.ltrans5.ltrans.o
 *fill*         0x000000000005d606        0x2 
 .rodata.PcieExplainList
                0x000000000005d608      0x280 /tmp/ccwaw90K.ltrans5.ltrans.o
 .rodata.ShellCommandRunDblk.str2.2
                0x000000000005d888       0x64 /tmp/ccwaw90K.ltrans5.ltrans.o
                                         0x6e (size before relaxing)
 .rodata.ShellCommandRunDmpStore.str2.2
                0x000000000005d8ec       0x28 /tmp/ccwaw90K.ltrans5.ltrans.o
                                         0x56 (size before relaxing)
 .rodata.ShellCommandRunLoadPciRom.str1.1
                0x000000000005d914        0xb /tmp/ccwaw90K.ltrans5.ltrans.o
 .rodata.ShellCommandRunLoadPciRom.str2.2
                0x000000000005d91f        0x8 /tmp/ccwaw90K.ltrans5.ltrans.o
 *fill*         0x000000000005d91f        0x1 
 .rodata.ShellCommandRunMm.str2.2
                0x000000000005d920       0x28 /tmp/ccwaw90K.ltrans5.ltrans.o
                                         0x4e (size before relaxing)
 .rodata.ShellCommandRunPci.str2.2
                0x000000000005d948      0x1ae /tmp/ccwaw90K.ltrans5.ltrans.o
                                        0x1d2 (size before relaxing)
 .rodata.ShellCommandRunSetVar.str2.2
                0x000000000005daf6       0x24 /tmp/ccwaw90K.ltrans5.ltrans.o
 .rodata.ShellCommandRunSmbiosView.str1.1
                0x000000000005db1a        0xb /tmp/ccwaw90K.ltrans5.ltrans.o
 *fill*         0x000000000005db25        0x1 
 .rodata.ShellCommandRunSmbiosView.str2.2
                0x000000000005db26      0x11a /tmp/ccwaw90K.ltrans5.ltrans.o
                                        0x238 (size before relaxing)
 .rodata.SlotPwrLmtScaleTable
                0x000000000005dc40       0x20 /tmp/ccwaw90K.ltrans5.ltrans.o
 .rodata.mShellMmAccessTypeStr
                0x000000000005dc60        0xa /tmp/ccwaw90K.ltrans5.ltrans.o
 *fill*         0x000000000005dc6a        0x6 
 .rodata.mShellMmMaxNumber
                0x000000000005dc70       0x48 /tmp/ccwaw90K.ltrans5.ltrans.o
 .rodata.mShellMmRootBridgeIoWidth
                0x000000000005dcb8       0x24 /tmp/ccwaw90K.ltrans5.ltrans.o
 *fill*         0x000000000005dcdc        0x4 
 .rodata.mUefiDevicePathLibDevPathFromTextTable
                0x000000000005dce0      0x570 /tmp/ccwaw90K.ltrans5.ltrans.o
 .rodata.str2.2
                0x000000000005e250     0x2990 /tmp/ccwaw90K.ltrans5.ltrans.o
                                       0x2e86 (size before relaxing)
 .rodata.DisplayProcessorFamily.part.5
                0x0000000000060be0      0x1f6 /tmp/ccwaw90K.ltrans6.ltrans.o
 *fill*         0x0000000000060dd6        0x2 
 .rodata.SmbiosPrintStructure.part.21
                0x0000000000060dd8      0x12e /tmp/ccwaw90K.ltrans6.ltrans.o
 .rodata.DisplayMmMemorySize.str2.2
                0x0000000000060f06     0x2990 /tmp/ccwaw90K.ltrans6.ltrans.o
                                          0xc (size before relaxing)
 .rodata.DisplayProcessorFamily.part.5.str2.2
                0x0000000000060f06     0x11a0 /tmp/ccwaw90K.ltrans6.ltrans.o
                                       0x11ba (size before relaxing)
 .rodata.Smbios64BitPrintEPSInfo.str2.2
                0x00000000000620a6        0x4 /tmp/ccwaw90K.ltrans6.ltrans.o
 .rodata.SmbiosPrintStructure.part.21.str1.1
                0x00000000000620a6      0xb33 /tmp/ccwaw90K.ltrans6.ltrans.o
                                        0xbd7 (size before relaxing)
 *fill*         0x0000000000062bd9        0x1 
 .rodata.SmbiosPrintStructure.part.21.str2.2
                0x0000000000062bda      0x23a /tmp/ccwaw90K.ltrans6.ltrans.o
                                        0x25e (size before relaxing)
 .rodata.str2.2
                0x0000000000062e14     0x40d4 /tmp/ccwaw90K.ltrans6.ltrans.o
                                       0x426e (size before relaxing)
 .rodata.InternalCommandLineParse.part.15.constprop.52
                0x0000000000066ee8        0x6 /tmp/ccwaw90K.ltrans7.ltrans.o
 *fill*         0x0000000000066eee        0x2 
 .rodata.RunScriptFile.constprop.110
                0x0000000000066ef0        0xa /tmp/ccwaw90K.ltrans7.ltrans.o
 .rodata        0x0000000000066efa        0x4 /tmp/ccwaw90K.ltrans7.ltrans.o
 .rodata.BasePrintLibSPrintMarker.constprop.119.str1.1
                0x0000000000066efe       0x7b /tmp/ccwaw90K.ltrans7.ltrans.o
 *fill*         0x0000000000066f79        0x1 
 .rodata.BcfgLibraryRegisterBcfgCommand.part.2.str2.2
                0x0000000000066f7a        0xa /tmp/ccwaw90K.ltrans7.ltrans.o
 .rodata.CatSDumpHex.constprop.47.str2.2
                0x0000000000066f84       0x2c /tmp/ccwaw90K.ltrans7.ltrans.o
 .rodata.GetBestLanguageForDriver.constprop.82.str1.1
                0x0000000000066f84        0x1 /tmp/ccwaw90K.ltrans7.ltrans.o
 .rodata.GetBestLanguageForDriver.constprop.82.str2.2
                0x0000000000066f84       0x1a /tmp/ccwaw90K.ltrans7.ltrans.o
 .rodata.HBufferImageSave.constprop.28.str2.2
                0x0000000000066f84       0xde /tmp/ccwaw90K.ltrans7.ltrans.o
 .rodata.Hex.lto_priv.194
                0x0000000000066f84       0x10 /tmp/ccwaw90K.ltrans7.ltrans.o
                0x0000000000066f84                Hex.lto_priv.194
 .rodata.InternalCommandLineParse.part.15.constprop.52.str2.2
                0x0000000000066f94        0x6 /tmp/ccwaw90K.ltrans7.ltrans.o
                                         0x10 (size before relaxing)
 .rodata.ManFileFindTitleSection.part.3.constprop.79.str2.2
                0x0000000000066f9a       0x14 /tmp/ccwaw90K.ltrans7.ltrans.o
 .rodata.ProcessManFile.constprop.76.str1.1
                0x0000000000066fae       0x7b /tmp/ccwaw90K.ltrans7.ltrans.o
                                          0x3 (size before relaxing)
 .rodata.ProcessManFile.constprop.76.str2.2
                0x0000000000066fae        0xa /tmp/ccwaw90K.ltrans7.ltrans.o
                                         0x14 (size before relaxing)
 .rodata.QueryTable.constprop.10.str2.2
                0x0000000000066fb8       0x22 /tmp/ccwaw90K.ltrans7.ltrans.o
                                         0x26 (size before relaxing)
 .rodata.RunScriptFile.constprop.110.str2.2
                0x0000000000066fda       0x6c /tmp/ccwaw90K.ltrans7.ltrans.o
                                         0xbc (size before relaxing)
 .rodata.RunSplitCommand.constprop.109.str2.2
                0x0000000000067046        0x4 /tmp/ccwaw90K.ltrans7.ltrans.o
 .rodata.ShellCommandAddMapItemAndUpdatePath.constprop.105.str2.2
                0x0000000000067046       0x32 /tmp/ccwaw90K.ltrans7.ltrans.o
                                         0x40 (size before relaxing)
 .rodata.ShellFindFilePathEx.part.12.constprop.114.str2.2
                0x0000000000067078        0x4 /tmp/ccwaw90K.ltrans7.ltrans.o
 .rodata.StatusBarRefresh.constprop.32.str2.2
                0x0000000000067078       0x58 /tmp/ccwaw90K.ltrans7.ltrans.o
                                         0x62 (size before relaxing)
 .rodata.mExecutableExtensions.lto_priv.205
                0x00000000000670d0       0x14 /tmp/ccwaw90K.ltrans7.ltrans.o
                0x00000000000670d0                mExecutableExtensions.lto_priv.205
 .rodata.mFileName
                0x00000000000670e4       0x1c /tmp/ccwaw90K.ltrans7.ltrans.o
 .rodata.mStatusString
                0x0000000000067100      0x138 /tmp/ccwaw90K.ltrans7.ltrans.o
 .rodata.str1.1
                0x0000000000067238      0x224 /tmp/ccwaw90K.ltrans7.ltrans.o
                                        0x235 (size before relaxing)
 .rodata.str2.2
                0x000000000006745c      0x442 /tmp/ccwaw90K.ltrans7.ltrans.o
 *fill*         0x000000000006789e        0x2 
 .rodata.ShellCommandRunBcfg
                0x00000000000678a0       0x14 /tmp/ccwaw90K.ltrans8.ltrans.o
 .rodata.BcfgMod.str2.2
                0x00000000000678b4       0xd0 /tmp/ccwaw90K.ltrans8.ltrans.o
                                         0xec (size before relaxing)
 .rodata.DisplayMemoryErrorOperation.str2.2
                0x0000000000067984        0xc /tmp/ccwaw90K.ltrans8.ltrans.o
 *fill*         0x0000000000067984        0x4 
 .rodata.ParamList
                0x0000000000067988       0x30 /tmp/ccwaw90K.ltrans8.ltrans.o
 .rodata.PrintBitsInfo.str2.2
                0x00000000000679b8        0x8 /tmp/ccwaw90K.ltrans8.ltrans.o
                                          0xc (size before relaxing)
 .rodata.ShellCommandRunBcfg.str2.2
                0x00000000000679c0      0x132 /tmp/ccwaw90K.ltrans8.ltrans.o
                                        0x158 (size before relaxing)
 *fill*         0x0000000000067af2        0x6 
 .rodata.mBmLoadOptionName
                0x0000000000067af8       0x20 /tmp/ccwaw90K.ltrans8.ltrans.o
 .rodata.str2.2
                0x0000000000067b18     0x16d6 /tmp/ccwaw90K.ltrans8.ltrans.o
                                       0x182e (size before relaxing)
 *(.got .got.*)
 *:AutoGen.obj(.data.g*Guid)

.iplt           0x00000000000691f0        0x0
 .iplt          0x00000000000691f0        0x0 /home/uwe/git/ms/iot_core_tx8mmini/mu_platform_nxp/Build/TX8M_MINI_EVK_1GB/RELEASE_GCC5/AARCH64/ArmPkg/Library/ArmLib/ArmBaseLib/OUTPUT/ArmBaseLib.lib(AArch64Support.obj)

.data           0x000000000006a000    0x5f8a0
 *(.data .data.* .gnu.linkonce.d.*)
 .data.FileInterfaceNulFile
                0x000000000006a000       0x78 /tmp/ccwaw90K.ltrans0.ltrans.o
 .data.FileInterfaceStdErr
                0x000000000006a078       0x78 /tmp/ccwaw90K.ltrans0.ltrans.o
 .data.FileInterfaceStdIn
                0x000000000006a0f0       0x78 /tmp/ccwaw90K.ltrans0.ltrans.o
 .data.FileInterfaceStdOut
                0x000000000006a168       0x78 /tmp/ccwaw90K.ltrans0.ltrans.o
 .data.ShellStrings
                0x000000000006a1e0      0x5b7 /tmp/ccwaw90K.ltrans0.ltrans.o
 .data.UefiShellDebug1CommandsLibStrings
                0x000000000006a797    0x1d332 /tmp/ccwaw90K.ltrans0.ltrans.o
 .data.UefiShellDriver1CommandsLibStrings
                0x0000000000087ac9     0xcaee /tmp/ccwaw90K.ltrans0.ltrans.o
 .data.UefiShellLevel1CommandsLibStrings
                0x00000000000945b7     0x8663 /tmp/ccwaw90K.ltrans0.ltrans.o
 .data.UefiShellLevel2CommandsLibStrings
                0x000000000009cc1a    0x138f5 /tmp/ccwaw90K.ltrans0.ltrans.o
 .data.UefiShellLevel3CommandsLibStrings
                0x00000000000b050f     0x83a9 /tmp/ccwaw90K.ltrans0.ltrans.o
 .data.gEfiCallerIdGuid
                0x00000000000b88b8       0x10 /tmp/ccwaw90K.ltrans0.ltrans.o
 .data.gEfiDxeServicesTableGuid
                0x00000000000b88c8       0x10 /tmp/ccwaw90K.ltrans0.ltrans.o
 .data.gEfiHobListGuid
                0x00000000000b88d8       0x10 /tmp/ccwaw90K.ltrans0.ltrans.o
 .data.gShellAliasGuid
                0x00000000000b88e8       0x10 /tmp/ccwaw90K.ltrans0.ltrans.o
 .data.gShellDebug1HiiGuid
                0x00000000000b88f8       0x10 /tmp/ccwaw90K.ltrans0.ltrans.o
 .data.gShellDriver1HiiGuid
                0x00000000000b8908       0x10 /tmp/ccwaw90K.ltrans0.ltrans.o
 .data.gShellLevel1HiiGuid
                0x00000000000b8918       0x10 /tmp/ccwaw90K.ltrans0.ltrans.o
 .data.gShellLevel2HiiGuid
                0x00000000000b8928       0x10 /tmp/ccwaw90K.ltrans0.ltrans.o
 .data.gShellLevel3HiiGuid
                0x00000000000b8938       0x10 /tmp/ccwaw90K.ltrans0.ltrans.o
 .data.gShellVariableGuid
                0x00000000000b8948       0x10 /tmp/ccwaw90K.ltrans0.ltrans.o
 .data.mShellProtocol
                0x00000000000b8958      0x168 /tmp/ccwaw90K.ltrans0.ltrans.o
 .data.DiagGuidList
                0x00000000000b8ac0       0x18 /tmp/ccwaw90K.ltrans1.ltrans.o
 .data.gEfiComponentName2ProtocolGuid
                0x00000000000b8ad8       0x10 /tmp/ccwaw90K.ltrans1.ltrans.o
                0x00000000000b8ad8                gEfiComponentName2ProtocolGuid
 .data.gEfiComponentNameProtocolGuid
                0x00000000000b8ae8       0x10 /tmp/ccwaw90K.ltrans1.ltrans.o
                0x00000000000b8ae8                gEfiComponentNameProtocolGuid
 .data.gEfiDriverBindingProtocolGuid
                0x00000000000b8af8       0x10 /tmp/ccwaw90K.ltrans1.ltrans.o
                0x00000000000b8af8                gEfiDriverBindingProtocolGuid
 .data.gEfiDriverDiagnostics2ProtocolGuid
                0x00000000000b8b08       0x10 /tmp/ccwaw90K.ltrans1.ltrans.o
                0x00000000000b8b08                gEfiDriverDiagnostics2ProtocolGuid
 .data.gEfiDriverDiagnosticsProtocolGuid
                0x00000000000b8b18       0x10 /tmp/ccwaw90K.ltrans1.ltrans.o
                0x00000000000b8b18                gEfiDriverDiagnosticsProtocolGuid
 .data.gEfiFileSystemInfoGuid
                0x00000000000b8b28       0x10 /tmp/ccwaw90K.ltrans1.ltrans.o
                0x00000000000b8b28                gEfiFileSystemInfoGuid
 .data.gEfiFirmwareVolume2ProtocolGuid
                0x00000000000b8b38       0x10 /tmp/ccwaw90K.ltrans1.ltrans.o
                0x00000000000b8b38                gEfiFirmwareVolume2ProtocolGuid
 .data.gEfiPciIoProtocolGuid
                0x00000000000b8b48       0x10 /tmp/ccwaw90K.ltrans1.ltrans.o
                0x00000000000b8b48                gEfiPciIoProtocolGuid
 .data.gEfiShellDynamicCommandProtocolGuid
                0x00000000000b8b58       0x10 /tmp/ccwaw90K.ltrans1.ltrans.o
                0x00000000000b8b58                gEfiShellDynamicCommandProtocolGuid
 .data.UefiHandleParsingLibStrings
                0x00000000000b8b68     0x4916 /tmp/ccwaw90K.ltrans2.ltrans.o
 *fill*         0x00000000000bd47e        0x2 
 .data.gEfiAdapterInfoMediaStateGuid
                0x00000000000bd480       0x10 /tmp/ccwaw90K.ltrans2.ltrans.o
 .data.gEfiAdapterInfoNetworkBootGuid
                0x00000000000bd490       0x10 /tmp/ccwaw90K.ltrans2.ltrans.o
 .data.gEfiAdapterInfoSanMacAddressGuid
                0x00000000000bd4a0       0x10 /tmp/ccwaw90K.ltrans2.ltrans.o
 .data.gEfiAdapterInfoUndiIpv6SupportGuid
                0x00000000000bd4b0       0x10 /tmp/ccwaw90K.ltrans2.ltrans.o
 .data.gEfiPersistentVirtualCdGuid
                0x00000000000bd4c0       0x10 /tmp/ccwaw90K.ltrans2.ltrans.o
 .data.gEfiPersistentVirtualDiskGuid
                0x00000000000bd4d0       0x10 /tmp/ccwaw90K.ltrans2.ltrans.o
 .data.gEfiUartDevicePathGuid
                0x00000000000bd4e0       0x10 /tmp/ccwaw90K.ltrans2.ltrans.o
 .data.gEfiVirtualCdGuid
                0x00000000000bd4f0       0x10 /tmp/ccwaw90K.ltrans2.ltrans.o
 .data.gEfiVirtualDiskGuid
                0x00000000000bd500       0x10 /tmp/ccwaw90K.ltrans2.ltrans.o
 .data.gHandleParsingHiiGuid
                0x00000000000bd510       0x10 /tmp/ccwaw90K.ltrans2.ltrans.o
 .data.gEfiAbsolutePointerProtocolGuid
                0x00000000000bd520       0x10 /tmp/ccwaw90K.ltrans3.ltrans.o
                0x00000000000bd520                gEfiAbsolutePointerProtocolGuid
 .data.gEfiAcpiSdtProtocolGuid
                0x00000000000bd530       0x10 /tmp/ccwaw90K.ltrans3.ltrans.o
                0x00000000000bd530                gEfiAcpiSdtProtocolGuid
 .data.gEfiAcpiTableProtocolGuid
                0x00000000000bd540       0x10 /tmp/ccwaw90K.ltrans3.ltrans.o
                0x00000000000bd540                gEfiAcpiTableProtocolGuid
 .data.gEfiAdapterInformationProtocolGuid
                0x00000000000bd550       0x10 /tmp/ccwaw90K.ltrans3.ltrans.o
                0x00000000000bd550                gEfiAdapterInformationProtocolGuid
 .data.gEfiArpProtocolGuid
                0x00000000000bd560       0x10 /tmp/ccwaw90K.ltrans3.ltrans.o
                0x00000000000bd560                gEfiArpProtocolGuid
 .data.gEfiArpServiceBindingProtocolGuid
                0x00000000000bd570       0x10 /tmp/ccwaw90K.ltrans3.ltrans.o
                0x00000000000bd570                gEfiArpServiceBindingProtocolGuid
 .data.gEfiAtaPassThruProtocolGuid
                0x00000000000bd580       0x10 /tmp/ccwaw90K.ltrans3.ltrans.o
                0x00000000000bd580                gEfiAtaPassThruProtocolGuid
 .data.gEfiAuthenticationInfoProtocolGuid
                0x00000000000bd590       0x10 /tmp/ccwaw90K.ltrans3.ltrans.o
                0x00000000000bd590                gEfiAuthenticationInfoProtocolGuid
 .data.gEfiBdsArchProtocolGuid
                0x00000000000bd5a0       0x10 /tmp/ccwaw90K.ltrans3.ltrans.o
                0x00000000000bd5a0                gEfiBdsArchProtocolGuid
 .data.gEfiBisProtocolGuid
                0x00000000000bd5b0       0x10 /tmp/ccwaw90K.ltrans3.ltrans.o
                0x00000000000bd5b0                gEfiBisProtocolGuid
 .data.gEfiBlockIo2ProtocolGuid
                0x00000000000bd5c0       0x10 /tmp/ccwaw90K.ltrans3.ltrans.o
                0x00000000000bd5c0                gEfiBlockIo2ProtocolGuid
 .data.gEfiBlockIoCryptoProtocolGuid
                0x00000000000bd5d0       0x10 /tmp/ccwaw90K.ltrans3.ltrans.o
                0x00000000000bd5d0                gEfiBlockIoCryptoProtocolGuid
 .data.gEfiBluetoothAttributeProtocolGuid
                0x00000000000bd5e0       0x10 /tmp/ccwaw90K.ltrans3.ltrans.o
                0x00000000000bd5e0                gEfiBluetoothAttributeProtocolGuid
 .data.gEfiBluetoothAttributeServiceBindingProtocolGuid
                0x00000000000bd5f0       0x10 /tmp/ccwaw90K.ltrans3.ltrans.o
                0x00000000000bd5f0                gEfiBluetoothAttributeServiceBindingProtocolGuid
 .data.gEfiBluetoothConfigProtocolGuid
                0x00000000000bd600       0x10 /tmp/ccwaw90K.ltrans3.ltrans.o
                0x00000000000bd600                gEfiBluetoothConfigProtocolGuid
 .data.gEfiBluetoothHcProtocolGuid
                0x00000000000bd610       0x10 /tmp/ccwaw90K.ltrans3.ltrans.o
                0x00000000000bd610                gEfiBluetoothHcProtocolGuid
 .data.gEfiBluetoothIoProtocolGuid
                0x00000000000bd620       0x10 /tmp/ccwaw90K.ltrans3.ltrans.o
                0x00000000000bd620                gEfiBluetoothIoProtocolGuid
 .data.gEfiBluetoothIoServiceBindingProtocolGuid
                0x00000000000bd630       0x10 /tmp/ccwaw90K.ltrans3.ltrans.o
                0x00000000000bd630                gEfiBluetoothIoServiceBindingProtocolGuid
 .data.gEfiBluetoothLeConfigProtocolGuid
                0x00000000000bd640       0x10 /tmp/ccwaw90K.ltrans3.ltrans.o
                0x00000000000bd640                gEfiBluetoothLeConfigProtocolGuid
 .data.gEfiBootManagerPolicyProtocolGuid
                0x00000000000bd650       0x10 /tmp/ccwaw90K.ltrans3.ltrans.o
                0x00000000000bd650                gEfiBootManagerPolicyProtocolGuid
 .data.gEfiBusSpecificDriverOverrideProtocolGuid
                0x00000000000bd660       0x10 /tmp/ccwaw90K.ltrans3.ltrans.o
                0x00000000000bd660                gEfiBusSpecificDriverOverrideProtocolGuid
 .data.gEfiCapsuleArchProtocolGuid
                0x00000000000bd670       0x10 /tmp/ccwaw90K.ltrans3.ltrans.o
                0x00000000000bd670                gEfiCapsuleArchProtocolGuid
 .data.gEfiConfigKeywordHandlerProtocolGuid
                0x00000000000bd680       0x10 /tmp/ccwaw90K.ltrans3.ltrans.o
                0x00000000000bd680                gEfiConfigKeywordHandlerProtocolGuid
 .data.gEfiConsoleInDeviceGuid
                0x00000000000bd690       0x10 /tmp/ccwaw90K.ltrans3.ltrans.o
                0x00000000000bd690                gEfiConsoleInDeviceGuid
 .data.gEfiConsoleOutDeviceGuid
                0x00000000000bd6a0       0x10 /tmp/ccwaw90K.ltrans3.ltrans.o
                0x00000000000bd6a0                gEfiConsoleOutDeviceGuid
 .data.gEfiCpuArchProtocolGuid
                0x00000000000bd6b0       0x10 /tmp/ccwaw90K.ltrans3.ltrans.o
                0x00000000000bd6b0                gEfiCpuArchProtocolGuid
 .data.gEfiDebugPortProtocolGuid
                0x00000000000bd6c0       0x10 /tmp/ccwaw90K.ltrans3.ltrans.o
                0x00000000000bd6c0                gEfiDebugPortProtocolGuid
 .data.gEfiDebugSupportProtocolGuid
                0x00000000000bd6d0       0x10 /tmp/ccwaw90K.ltrans3.ltrans.o
                0x00000000000bd6d0                gEfiDebugSupportProtocolGuid
 .data.gEfiDeferredImageLoadProtocolGuid
                0x00000000000bd6e0       0x10 /tmp/ccwaw90K.ltrans3.ltrans.o
                0x00000000000bd6e0                gEfiDeferredImageLoadProtocolGuid
 .data.gEfiDeviceIoProtocolGuid
                0x00000000000bd6f0       0x10 /tmp/ccwaw90K.ltrans3.ltrans.o
                0x00000000000bd6f0                gEfiDeviceIoProtocolGuid
 .data.gEfiDevicePathFromTextProtocolGuid
                0x00000000000bd700       0x10 /tmp/ccwaw90K.ltrans3.ltrans.o
                0x00000000000bd700                gEfiDevicePathFromTextProtocolGuid
 .data.gEfiDevicePathToTextProtocolGuid
                0x00000000000bd710       0x10 /tmp/ccwaw90K.ltrans3.ltrans.o
                0x00000000000bd710                gEfiDevicePathToTextProtocolGuid
 .data.gEfiDevicePathUtilitiesProtocolGuid
                0x00000000000bd720       0x10 /tmp/ccwaw90K.ltrans3.ltrans.o
                0x00000000000bd720                gEfiDevicePathUtilitiesProtocolGuid
 .data.gEfiDhcp4ProtocolGuid
                0x00000000000bd730       0x10 /tmp/ccwaw90K.ltrans3.ltrans.o
                0x00000000000bd730                gEfiDhcp4ProtocolGuid
 .data.gEfiDhcp4ServiceBindingProtocolGuid
                0x00000000000bd740       0x10 /tmp/ccwaw90K.ltrans3.ltrans.o
                0x00000000000bd740                gEfiDhcp4ServiceBindingProtocolGuid
 .data.gEfiDhcp6ProtocolGuid
                0x00000000000bd750       0x10 /tmp/ccwaw90K.ltrans3.ltrans.o
                0x00000000000bd750                gEfiDhcp6ProtocolGuid
 .data.gEfiDhcp6ServiceBindingProtocolGuid
                0x00000000000bd760       0x10 /tmp/ccwaw90K.ltrans3.ltrans.o
                0x00000000000bd760                gEfiDhcp6ServiceBindingProtocolGuid
 .data.gEfiDiskInfoProtocolGuid
                0x00000000000bd770       0x10 /tmp/ccwaw90K.ltrans3.ltrans.o
                0x00000000000bd770                gEfiDiskInfoProtocolGuid
 .data.gEfiDiskIo2ProtocolGuid
                0x00000000000bd780       0x10 /tmp/ccwaw90K.ltrans3.ltrans.o
                0x00000000000bd780                gEfiDiskIo2ProtocolGuid
 .data.gEfiDiskIoProtocolGuid
                0x00000000000bd790       0x10 /tmp/ccwaw90K.ltrans3.ltrans.o
                0x00000000000bd790                gEfiDiskIoProtocolGuid
 .data.gEfiDns4ProtocolGuid
                0x00000000000bd7a0       0x10 /tmp/ccwaw90K.ltrans3.ltrans.o
                0x00000000000bd7a0                gEfiDns4ProtocolGuid
 .data.gEfiDns4ServiceBindingProtocolGuid
                0x00000000000bd7b0       0x10 /tmp/ccwaw90K.ltrans3.ltrans.o
                0x00000000000bd7b0                gEfiDns4ServiceBindingProtocolGuid
 .data.gEfiDns6ProtocolGuid
                0x00000000000bd7c0       0x10 /tmp/ccwaw90K.ltrans3.ltrans.o
                0x00000000000bd7c0                gEfiDns6ProtocolGuid
 .data.gEfiDns6ServiceBindingProtocolGuid
                0x00000000000bd7d0       0x10 /tmp/ccwaw90K.ltrans3.ltrans.o
                0x00000000000bd7d0                gEfiDns6ServiceBindingProtocolGuid
 .data.gEfiDriverFamilyOverrideProtocolGuid
                0x00000000000bd7e0       0x10 /tmp/ccwaw90K.ltrans3.ltrans.o
                0x00000000000bd7e0                gEfiDriverFamilyOverrideProtocolGuid
 .data.gEfiDriverHealthProtocolGuid
                0x00000000000bd7f0       0x10 /tmp/ccwaw90K.ltrans3.ltrans.o
                0x00000000000bd7f0                gEfiDriverHealthProtocolGuid
 .data.gEfiDriverSupportedEfiVersionProtocolGuid
                0x00000000000bd800       0x10 /tmp/ccwaw90K.ltrans3.ltrans.o
                0x00000000000bd800                gEfiDriverSupportedEfiVersionProtocolGuid
 .data.gEfiDxeMmReadyToLockProtocolGuid
                0x00000000000bd810       0x10 /tmp/ccwaw90K.ltrans3.ltrans.o
                0x00000000000bd810                gEfiDxeMmReadyToLockProtocolGuid
 .data.gEfiDxeSmmReadyToLockProtocolGuid
                0x00000000000bd820       0x10 /tmp/ccwaw90K.ltrans3.ltrans.o
                0x00000000000bd820                gEfiDxeSmmReadyToLockProtocolGuid
 .data.gEfiEapConfigurationProtocolGuid
                0x00000000000bd830       0x10 /tmp/ccwaw90K.ltrans3.ltrans.o
                0x00000000000bd830                gEfiEapConfigurationProtocolGuid
 .data.gEfiEapManagement2ProtocolGuid
                0x00000000000bd840       0x10 /tmp/ccwaw90K.ltrans3.ltrans.o
                0x00000000000bd840                gEfiEapManagement2ProtocolGuid
 .data.gEfiEapManagementProtocolGuid
                0x00000000000bd850       0x10 /tmp/ccwaw90K.ltrans3.ltrans.o
                0x00000000000bd850                gEfiEapManagementProtocolGuid
 .data.gEfiEapProtocolGuid
                0x00000000000bd860       0x10 /tmp/ccwaw90K.ltrans3.ltrans.o
                0x00000000000bd860                gEfiEapProtocolGuid
 .data.gEfiEbcProtocolGuid
                0x00000000000bd870       0x10 /tmp/ccwaw90K.ltrans3.ltrans.o
                0x00000000000bd870                gEfiEbcProtocolGuid
 .data.gEfiEdidActiveProtocolGuid
                0x00000000000bd880       0x10 /tmp/ccwaw90K.ltrans3.ltrans.o
                0x00000000000bd880                gEfiEdidActiveProtocolGuid
 .data.gEfiEdidDiscoveredProtocolGuid
                0x00000000000bd890       0x10 /tmp/ccwaw90K.ltrans3.ltrans.o
                0x00000000000bd890                gEfiEdidDiscoveredProtocolGuid
 .data.gEfiEdidOverrideProtocolGuid
                0x00000000000bd8a0       0x10 /tmp/ccwaw90K.ltrans3.ltrans.o
                0x00000000000bd8a0                gEfiEdidOverrideProtocolGuid
 .data.gEfiEraseBlockProtocolGuid
                0x00000000000bd8b0       0x10 /tmp/ccwaw90K.ltrans3.ltrans.o
                0x00000000000bd8b0                gEfiEraseBlockProtocolGuid
 .data.gEfiExtScsiPassThruProtocolGuid
                0x00000000000bd8c0       0x10 /tmp/ccwaw90K.ltrans3.ltrans.o
                0x00000000000bd8c0                gEfiExtScsiPassThruProtocolGuid
 .data.gEfiExtendedSalBaseIoServicesProtocolGuid
                0x00000000000bd8d0       0x10 /tmp/ccwaw90K.ltrans3.ltrans.o
                0x00000000000bd8d0                gEfiExtendedSalBaseIoServicesProtocolGuid
 .data.gEfiExtendedSalBaseServicesProtocolGuid
                0x00000000000bd8e0       0x10 /tmp/ccwaw90K.ltrans3.ltrans.o
                0x00000000000bd8e0                gEfiExtendedSalBaseServicesProtocolGuid
 .data.gEfiExtendedSalBootServiceProtocolGuid
                0x00000000000bd8f0       0x10 /tmp/ccwaw90K.ltrans3.ltrans.o
                0x00000000000bd8f0                gEfiExtendedSalBootServiceProtocolGuid
 .data.gEfiExtendedSalCacheServicesProtocolGuid
                0x00000000000bd900       0x10 /tmp/ccwaw90K.ltrans3.ltrans.o
                0x00000000000bd900                gEfiExtendedSalCacheServicesProtocolGuid
 .data.gEfiExtendedSalFvBlockServicesProtocolGuid
                0x00000000000bd910       0x10 /tmp/ccwaw90K.ltrans3.ltrans.o
                0x00000000000bd910                gEfiExtendedSalFvBlockServicesProtocolGuid
 .data.gEfiExtendedSalMcaLogServicesProtocolGuid
                0x00000000000bd920       0x10 /tmp/ccwaw90K.ltrans3.ltrans.o
                0x00000000000bd920                gEfiExtendedSalMcaLogServicesProtocolGuid
 .data.gEfiExtendedSalMcaServicesProtocolGuid
                0x00000000000bd930       0x10 /tmp/ccwaw90K.ltrans3.ltrans.o
                0x00000000000bd930                gEfiExtendedSalMcaServicesProtocolGuid
 .data.gEfiExtendedSalMpServicesProtocolGuid
                0x00000000000bd940       0x10 /tmp/ccwaw90K.ltrans3.ltrans.o
                0x00000000000bd940                gEfiExtendedSalMpServicesProtocolGuid
 .data.gEfiExtendedSalMtcServicesProtocolGuid
                0x00000000000bd950       0x10 /tmp/ccwaw90K.ltrans3.ltrans.o
                0x00000000000bd950                gEfiExtendedSalMtcServicesProtocolGuid
 .data.gEfiExtendedSalPalServicesProtocolGuid
                0x00000000000bd960       0x10 /tmp/ccwaw90K.ltrans3.ltrans.o
                0x00000000000bd960                gEfiExtendedSalPalServicesProtocolGuid
 .data.gEfiExtendedSalPciServicesProtocolGuid
                0x00000000000bd970       0x10 /tmp/ccwaw90K.ltrans3.ltrans.o
                0x00000000000bd970                gEfiExtendedSalPciServicesProtocolGuid
 .data.gEfiExtendedSalResetServicesProtocolGuid
                0x00000000000bd980       0x10 /tmp/ccwaw90K.ltrans3.ltrans.o
                0x00000000000bd980                gEfiExtendedSalResetServicesProtocolGuid
 .data.gEfiExtendedSalRtcServicesProtocolGuid
                0x00000000000bd990       0x10 /tmp/ccwaw90K.ltrans3.ltrans.o
                0x00000000000bd990                gEfiExtendedSalRtcServicesProtocolGuid
 .data.gEfiExtendedSalStallServicesProtocolGuid
                0x00000000000bd9a0       0x10 /tmp/ccwaw90K.ltrans3.ltrans.o
                0x00000000000bd9a0                gEfiExtendedSalStallServicesProtocolGuid
 .data.gEfiExtendedSalStatusCodeServicesProtocolGuid
                0x00000000000bd9b0       0x10 /tmp/ccwaw90K.ltrans3.ltrans.o
                0x00000000000bd9b0                gEfiExtendedSalStatusCodeServicesProtocolGuid
 .data.gEfiExtendedSalVariableServicesProtocolGuid
                0x00000000000bd9c0       0x10 /tmp/ccwaw90K.ltrans3.ltrans.o
                0x00000000000bd9c0                gEfiExtendedSalVariableServicesProtocolGuid
 .data.gEfiFileInfoGuid
                0x00000000000bd9d0       0x10 /tmp/ccwaw90K.ltrans3.ltrans.o
                0x00000000000bd9d0                gEfiFileInfoGuid
 .data.gEfiFirmwareManagementProtocolGuid
                0x00000000000bd9e0       0x10 /tmp/ccwaw90K.ltrans3.ltrans.o
                0x00000000000bd9e0                gEfiFirmwareManagementProtocolGuid
 .data.gEfiFirmwareVolumeBlock2ProtocolGuid
                0x00000000000bd9f0       0x10 /tmp/ccwaw90K.ltrans3.ltrans.o
                0x00000000000bd9f0                gEfiFirmwareVolumeBlock2ProtocolGuid
 .data.gEfiFirmwareVolumeBlockProtocolGuid
                0x00000000000bda00       0x10 /tmp/ccwaw90K.ltrans3.ltrans.o
                0x00000000000bda00                gEfiFirmwareVolumeBlockProtocolGuid
 .data.gEfiFormBrowser2ProtocolGuid
                0x00000000000bda10       0x10 /tmp/ccwaw90K.ltrans3.ltrans.o
                0x00000000000bda10                gEfiFormBrowser2ProtocolGuid
 .data.gEfiFtp4ProtocolGuid
                0x00000000000bda20       0x10 /tmp/ccwaw90K.ltrans3.ltrans.o
                0x00000000000bda20                gEfiFtp4ProtocolGuid
 .data.gEfiFtp4ServiceBindingProtocolGuid
                0x00000000000bda30       0x10 /tmp/ccwaw90K.ltrans3.ltrans.o
                0x00000000000bda30                gEfiFtp4ServiceBindingProtocolGuid
 .data.gEfiGetPcdInfoProtocolGuid
                0x00000000000bda40       0x10 /tmp/ccwaw90K.ltrans3.ltrans.o
                0x00000000000bda40                gEfiGetPcdInfoProtocolGuid
 .data.gEfiGraphicsOutputProtocolGuid
                0x00000000000bda50       0x10 /tmp/ccwaw90K.ltrans3.ltrans.o
                0x00000000000bda50                gEfiGraphicsOutputProtocolGuid
 .data.gEfiHash2ProtocolGuid
                0x00000000000bda60       0x10 /tmp/ccwaw90K.ltrans3.ltrans.o
                0x00000000000bda60                gEfiHash2ProtocolGuid
 .data.gEfiHash2ServiceBindingProtocolGuid
                0x00000000000bda70       0x10 /tmp/ccwaw90K.ltrans3.ltrans.o
                0x00000000000bda70                gEfiHash2ServiceBindingProtocolGuid
 .data.gEfiHashProtocolGuid
                0x00000000000bda80       0x10 /tmp/ccwaw90K.ltrans3.ltrans.o
                0x00000000000bda80                gEfiHashProtocolGuid
 .data.gEfiHashServiceBindingProtocolGuid
                0x00000000000bda90       0x10 /tmp/ccwaw90K.ltrans3.ltrans.o
                0x00000000000bda90                gEfiHashServiceBindingProtocolGuid
 .data.gEfiHiiConfigRoutingProtocolGuid
                0x00000000000bdaa0       0x10 /tmp/ccwaw90K.ltrans3.ltrans.o
                0x00000000000bdaa0                gEfiHiiConfigRoutingProtocolGuid
 .data.gEfiHiiFontProtocolGuid
                0x00000000000bdab0       0x10 /tmp/ccwaw90K.ltrans3.ltrans.o
                0x00000000000bdab0                gEfiHiiFontProtocolGuid
 .data.gEfiHiiImageDecoderProtocolGuid
                0x00000000000bdac0       0x10 /tmp/ccwaw90K.ltrans3.ltrans.o
                0x00000000000bdac0                gEfiHiiImageDecoderProtocolGuid
 .data.gEfiHiiImageExProtocolGuid
                0x00000000000bdad0       0x10 /tmp/ccwaw90K.ltrans3.ltrans.o
                0x00000000000bdad0                gEfiHiiImageExProtocolGuid
 .data.gEfiHiiImageProtocolGuid
                0x00000000000bdae0       0x10 /tmp/ccwaw90K.ltrans3.ltrans.o
                0x00000000000bdae0                gEfiHiiImageProtocolGuid
 .data.gEfiHiiPopupProtocolGuid
                0x00000000000bdaf0       0x10 /tmp/ccwaw90K.ltrans3.ltrans.o
                0x00000000000bdaf0                gEfiHiiPopupProtocolGuid
 .data.gEfiHiiStringProtocolGuid
                0x00000000000bdb00       0x10 /tmp/ccwaw90K.ltrans3.ltrans.o
                0x00000000000bdb00                gEfiHiiStringProtocolGuid
 .data.gEfiHttpBootCallbackProtocolGuid
                0x00000000000bdb10       0x10 /tmp/ccwaw90K.ltrans3.ltrans.o
                0x00000000000bdb10                gEfiHttpBootCallbackProtocolGuid
 .data.gEfiHttpProtocolGuid
                0x00000000000bdb20       0x10 /tmp/ccwaw90K.ltrans3.ltrans.o
                0x00000000000bdb20                gEfiHttpProtocolGuid
 .data.gEfiHttpServiceBindingProtocolGuid
                0x00000000000bdb30       0x10 /tmp/ccwaw90K.ltrans3.ltrans.o
                0x00000000000bdb30                gEfiHttpServiceBindingProtocolGuid
 .data.gEfiHttpUtilitiesProtocolGuid
                0x00000000000bdb40       0x10 /tmp/ccwaw90K.ltrans3.ltrans.o
                0x00000000000bdb40                gEfiHttpUtilitiesProtocolGuid
 .data.gEfiI2cBusConfigurationManagementProtocolGuid
                0x00000000000bdb50       0x10 /tmp/ccwaw90K.ltrans3.ltrans.o
                0x00000000000bdb50                gEfiI2cBusConfigurationManagementProtocolGuid
 .data.gEfiI2cEnumerateProtocolGuid
                0x00000000000bdb60       0x10 /tmp/ccwaw90K.ltrans3.ltrans.o
                0x00000000000bdb60                gEfiI2cEnumerateProtocolGuid
 .data.gEfiI2cHostProtocolGuid
                0x00000000000bdb70       0x10 /tmp/ccwaw90K.ltrans3.ltrans.o
                0x00000000000bdb70                gEfiI2cHostProtocolGuid
 .data.gEfiI2cIoProtocolGuid
                0x00000000000bdb80       0x10 /tmp/ccwaw90K.ltrans3.ltrans.o
                0x00000000000bdb80                gEfiI2cIoProtocolGuid
 .data.gEfiI2cMasterProtocolGuid
                0x00000000000bdb90       0x10 /tmp/ccwaw90K.ltrans3.ltrans.o
                0x00000000000bdb90                gEfiI2cMasterProtocolGuid
 .data.gEfiIScsiInitiatorNameProtocolGuid
                0x00000000000bdba0       0x10 /tmp/ccwaw90K.ltrans3.ltrans.o
                0x00000000000bdba0                gEfiIScsiInitiatorNameProtocolGuid
 .data.gEfiIdeControllerInitProtocolGuid
                0x00000000000bdbb0       0x10 /tmp/ccwaw90K.ltrans3.ltrans.o
                0x00000000000bdbb0                gEfiIdeControllerInitProtocolGuid
 .data.gEfiIncompatiblePciDeviceSupportProtocolGuid
                0x00000000000bdbc0       0x10 /tmp/ccwaw90K.ltrans3.ltrans.o
                0x00000000000bdbc0                gEfiIncompatiblePciDeviceSupportProtocolGuid
 .data.gEfiIp4Config2ProtocolGuid
                0x00000000000bdbd0       0x10 /tmp/ccwaw90K.ltrans3.ltrans.o
                0x00000000000bdbd0                gEfiIp4Config2ProtocolGuid
 .data.gEfiIp4ConfigProtocolGuid
                0x00000000000bdbe0       0x10 /tmp/ccwaw90K.ltrans3.ltrans.o
                0x00000000000bdbe0                gEfiIp4ConfigProtocolGuid
 .data.gEfiIp4ProtocolGuid
                0x00000000000bdbf0       0x10 /tmp/ccwaw90K.ltrans3.ltrans.o
                0x00000000000bdbf0                gEfiIp4ProtocolGuid
 .data.gEfiIp4ServiceBindingProtocolGuid
                0x00000000000bdc00       0x10 /tmp/ccwaw90K.ltrans3.ltrans.o
                0x00000000000bdc00                gEfiIp4ServiceBindingProtocolGuid
 .data.gEfiIp6ConfigProtocolGuid
                0x00000000000bdc10       0x10 /tmp/ccwaw90K.ltrans3.ltrans.o
                0x00000000000bdc10                gEfiIp6ConfigProtocolGuid
 .data.gEfiIp6ProtocolGuid
                0x00000000000bdc20       0x10 /tmp/ccwaw90K.ltrans3.ltrans.o
                0x00000000000bdc20                gEfiIp6ProtocolGuid
 .data.gEfiIp6ServiceBindingProtocolGuid
                0x00000000000bdc30       0x10 /tmp/ccwaw90K.ltrans3.ltrans.o
                0x00000000000bdc30                gEfiIp6ServiceBindingProtocolGuid
 .data.gEfiIpSec2ProtocolGuid
                0x00000000000bdc40       0x10 /tmp/ccwaw90K.ltrans3.ltrans.o
                0x00000000000bdc40                gEfiIpSec2ProtocolGuid
 .data.gEfiIpSecConfigProtocolGuid
                0x00000000000bdc50       0x10 /tmp/ccwaw90K.ltrans3.ltrans.o
                0x00000000000bdc50                gEfiIpSecConfigProtocolGuid
 .data.gEfiIpSecProtocolGuid
                0x00000000000bdc60       0x10 /tmp/ccwaw90K.ltrans3.ltrans.o
                0x00000000000bdc60                gEfiIpSecProtocolGuid
 .data.gEfiIsaHcProtocolGuid
                0x00000000000bdc70       0x10 /tmp/ccwaw90K.ltrans3.ltrans.o
                0x00000000000bdc70                gEfiIsaHcProtocolGuid
 .data.gEfiIsaHcServiceBindingProtocolGuid
                0x00000000000bdc80       0x10 /tmp/ccwaw90K.ltrans3.ltrans.o
                0x00000000000bdc80                gEfiIsaHcServiceBindingProtocolGuid
 .data.gEfiKmsProtocolGuid
                0x00000000000bdc90       0x10 /tmp/ccwaw90K.ltrans3.ltrans.o
                0x00000000000bdc90                gEfiKmsProtocolGuid
 .data.gEfiLegacyRegion2ProtocolGuid
                0x00000000000bdca0       0x10 /tmp/ccwaw90K.ltrans3.ltrans.o
                0x00000000000bdca0                gEfiLegacyRegion2ProtocolGuid
 .data.gEfiLoadFile2ProtocolGuid
                0x00000000000bdcb0       0x10 /tmp/ccwaw90K.ltrans3.ltrans.o
                0x00000000000bdcb0                gEfiLoadFile2ProtocolGuid
 .data.gEfiLoadFileProtocolGuid
                0x00000000000bdcc0       0x10 /tmp/ccwaw90K.ltrans3.ltrans.o
                0x00000000000bdcc0                gEfiLoadFileProtocolGuid
 .data.gEfiLoadedImageDevicePathProtocolGuid
                0x00000000000bdcd0       0x10 /tmp/ccwaw90K.ltrans3.ltrans.o
                0x00000000000bdcd0                gEfiLoadedImageDevicePathProtocolGuid
 .data.gEfiManagedNetworkProtocolGuid
                0x00000000000bdce0       0x10 /tmp/ccwaw90K.ltrans3.ltrans.o
                0x00000000000bdce0                gEfiManagedNetworkProtocolGuid
 .data.gEfiManagedNetworkServiceBindingProtocolGuid
                0x00000000000bdcf0       0x10 /tmp/ccwaw90K.ltrans3.ltrans.o
                0x00000000000bdcf0                gEfiManagedNetworkServiceBindingProtocolGuid
 .data.gEfiMetronomeArchProtocolGuid
                0x00000000000bdd00       0x10 /tmp/ccwaw90K.ltrans3.ltrans.o
                0x00000000000bdd00                gEfiMetronomeArchProtocolGuid
 .data.gEfiMmAccessProtocolGuid
                0x00000000000bdd10       0x10 /tmp/ccwaw90K.ltrans3.ltrans.o
                0x00000000000bdd10                gEfiMmAccessProtocolGuid
 .data.gEfiMmBaseProtocolGuid
                0x00000000000bdd20       0x10 /tmp/ccwaw90K.ltrans3.ltrans.o
                0x00000000000bdd20                gEfiMmBaseProtocolGuid
 .data.gEfiMmCommunicationProtocolGuid
                0x00000000000bdd30       0x10 /tmp/ccwaw90K.ltrans3.ltrans.o
                0x00000000000bdd30                gEfiMmCommunicationProtocolGuid
 .data.gEfiMmConfigurationProtocolGuid
                0x00000000000bdd40       0x10 /tmp/ccwaw90K.ltrans3.ltrans.o
                0x00000000000bdd40                gEfiMmConfigurationProtocolGuid
 .data.gEfiMmControlProtocolGuid
                0x00000000000bdd50       0x10 /tmp/ccwaw90K.ltrans3.ltrans.o
                0x00000000000bdd50                gEfiMmControlProtocolGuid
 .data.gEfiMmCpuIoProtocolGuid
                0x00000000000bdd60       0x10 /tmp/ccwaw90K.ltrans3.ltrans.o
                0x00000000000bdd60                gEfiMmCpuIoProtocolGuid
 .data.gEfiMmCpuProtocolGuid
                0x00000000000bdd70       0x10 /tmp/ccwaw90K.ltrans3.ltrans.o
                0x00000000000bdd70                gEfiMmCpuProtocolGuid
 .data.gEfiMmEndOfDxeProtocolGuid
                0x00000000000bdd80       0x10 /tmp/ccwaw90K.ltrans3.ltrans.o
                0x00000000000bdd80                gEfiMmEndOfDxeProtocolGuid
 .data.gEfiMmGpiDispatchProtocolGuid
                0x00000000000bdd90       0x10 /tmp/ccwaw90K.ltrans3.ltrans.o
                0x00000000000bdd90                gEfiMmGpiDispatchProtocolGuid
 .data.gEfiMmIoTrapDispatchProtocolGuid
                0x00000000000bdda0       0x10 /tmp/ccwaw90K.ltrans3.ltrans.o
                0x00000000000bdda0                gEfiMmIoTrapDispatchProtocolGuid
 .data.gEfiMmPciRootBridgeIoProtocolGuid
                0x00000000000bddb0       0x10 /tmp/ccwaw90K.ltrans3.ltrans.o
                0x00000000000bddb0                gEfiMmPciRootBridgeIoProtocolGuid
 .data.gEfiMmPeriodicTimerDispatchProtocolGuid
                0x00000000000bddc0       0x10 /tmp/ccwaw90K.ltrans3.ltrans.o
                0x00000000000bddc0                gEfiMmPeriodicTimerDispatchProtocolGuid
 .data.gEfiMmPowerButtonDispatchProtocolGuid
                0x00000000000bddd0       0x10 /tmp/ccwaw90K.ltrans3.ltrans.o
                0x00000000000bddd0                gEfiMmPowerButtonDispatchProtocolGuid
 .data.gEfiMmReadyToLockProtocolGuid
                0x00000000000bdde0       0x10 /tmp/ccwaw90K.ltrans3.ltrans.o
                0x00000000000bdde0                gEfiMmReadyToLockProtocolGuid
 .data.gEfiMmRscHandlerProtocolGuid
                0x00000000000bddf0       0x10 /tmp/ccwaw90K.ltrans3.ltrans.o
                0x00000000000bddf0                gEfiMmRscHandlerProtocolGuid
 .data.gEfiMmStandbyButtonDispatchProtocolGuid
                0x00000000000bde00       0x10 /tmp/ccwaw90K.ltrans3.ltrans.o
                0x00000000000bde00                gEfiMmStandbyButtonDispatchProtocolGuid
 .data.gEfiMmStatusCodeProtocolGuid
                0x00000000000bde10       0x10 /tmp/ccwaw90K.ltrans3.ltrans.o
                0x00000000000bde10                gEfiMmStatusCodeProtocolGuid
 .data.gEfiMmSwDispatchProtocolGuid
                0x00000000000bde20       0x10 /tmp/ccwaw90K.ltrans3.ltrans.o
                0x00000000000bde20                gEfiMmSwDispatchProtocolGuid
 .data.gEfiMmSxDispatchProtocolGuid
                0x00000000000bde30       0x10 /tmp/ccwaw90K.ltrans3.ltrans.o
                0x00000000000bde30                gEfiMmSxDispatchProtocolGuid
 .data.gEfiMmUsbDispatchProtocolGuid
                0x00000000000bde40       0x10 /tmp/ccwaw90K.ltrans3.ltrans.o
                0x00000000000bde40                gEfiMmUsbDispatchProtocolGuid
 .data.gEfiMonotonicCounterArchProtocolGuid
                0x00000000000bde50       0x10 /tmp/ccwaw90K.ltrans3.ltrans.o
                0x00000000000bde50                gEfiMonotonicCounterArchProtocolGuid
 .data.gEfiMpServiceProtocolGuid
                0x00000000000bde60       0x10 /tmp/ccwaw90K.ltrans3.ltrans.o
                0x00000000000bde60                gEfiMpServiceProtocolGuid
 .data.gEfiMtftp4ProtocolGuid
                0x00000000000bde70       0x10 /tmp/ccwaw90K.ltrans3.ltrans.o
                0x00000000000bde70                gEfiMtftp4ProtocolGuid
 .data.gEfiMtftp4ServiceBindingProtocolGuid
                0x00000000000bde80       0x10 /tmp/ccwaw90K.ltrans3.ltrans.o
                0x00000000000bde80                gEfiMtftp4ServiceBindingProtocolGuid
 .data.gEfiMtftp6ProtocolGuid
                0x00000000000bde90       0x10 /tmp/ccwaw90K.ltrans3.ltrans.o
                0x00000000000bde90                gEfiMtftp6ProtocolGuid
 .data.gEfiMtftp6ServiceBindingProtocolGuid
                0x00000000000bdea0       0x10 /tmp/ccwaw90K.ltrans3.ltrans.o
                0x00000000000bdea0                gEfiMtftp6ServiceBindingProtocolGuid
 .data.gEfiNetworkInterfaceIdentifierProtocolGuid
                0x00000000000bdeb0       0x10 /tmp/ccwaw90K.ltrans3.ltrans.o
                0x00000000000bdeb0                gEfiNetworkInterfaceIdentifierProtocolGuid
 .data.gEfiNetworkInterfaceIdentifierProtocolGuid_31
                0x00000000000bdec0       0x10 /tmp/ccwaw90K.ltrans3.ltrans.o
                0x00000000000bdec0                gEfiNetworkInterfaceIdentifierProtocolGuid_31
 .data.gEfiNvmExpressPassThruProtocolGuid
                0x00000000000bded0       0x10 /tmp/ccwaw90K.ltrans3.ltrans.o
                0x00000000000bded0                gEfiNvmExpressPassThruProtocolGuid
 .data.gEfiPartTypeLegacyMbrGuid
                0x00000000000bdee0       0x10 /tmp/ccwaw90K.ltrans3.ltrans.o
                0x00000000000bdee0                gEfiPartTypeLegacyMbrGuid
 .data.gEfiPartTypeSystemPartGuid
                0x00000000000bdef0       0x10 /tmp/ccwaw90K.ltrans3.ltrans.o
                0x00000000000bdef0                gEfiPartTypeSystemPartGuid
 .data.gEfiPartitionInfoProtocolGuid
                0x00000000000bdf00       0x10 /tmp/ccwaw90K.ltrans3.ltrans.o
                0x00000000000bdf00                gEfiPartitionInfoProtocolGuid
 .data.gEfiPcAnsiGuid
                0x00000000000bdf10       0x10 /tmp/ccwaw90K.ltrans3.ltrans.o
                0x00000000000bdf10                gEfiPcAnsiGuid
 .data.gEfiPcdProtocolGuid
                0x00000000000bdf20       0x10 /tmp/ccwaw90K.ltrans3.ltrans.o
                0x00000000000bdf20                gEfiPcdProtocolGuid
 .data.gEfiPciEnumerationCompleteProtocolGuid
                0x00000000000bdf30       0x10 /tmp/ccwaw90K.ltrans3.ltrans.o
                0x00000000000bdf30                gEfiPciEnumerationCompleteProtocolGuid
 .data.gEfiPciHostBridgeResourceAllocationProtocolGuid
                0x00000000000bdf40       0x10 /tmp/ccwaw90K.ltrans3.ltrans.o
                0x00000000000bdf40                gEfiPciHostBridgeResourceAllocationProtocolGuid
 .data.gEfiPciHotPlugInitProtocolGuid
                0x00000000000bdf50       0x10 /tmp/ccwaw90K.ltrans3.ltrans.o
                0x00000000000bdf50                gEfiPciHotPlugInitProtocolGuid
 .data.gEfiPciHotPlugRequestProtocolGuid
                0x00000000000bdf60       0x10 /tmp/ccwaw90K.ltrans3.ltrans.o
                0x00000000000bdf60                gEfiPciHotPlugRequestProtocolGuid
 .data.gEfiPciOverrideProtocolGuid
                0x00000000000bdf70       0x10 /tmp/ccwaw90K.ltrans3.ltrans.o
                0x00000000000bdf70                gEfiPciOverrideProtocolGuid
 .data.gEfiPciPlatformProtocolGuid
                0x00000000000bdf80       0x10 /tmp/ccwaw90K.ltrans3.ltrans.o
                0x00000000000bdf80                gEfiPciPlatformProtocolGuid
 .data.gEfiPkcs7VerifyProtocolGuid
                0x00000000000bdf90       0x10 /tmp/ccwaw90K.ltrans3.ltrans.o
                0x00000000000bdf90                gEfiPkcs7VerifyProtocolGuid
 .data.gEfiPlatformDriverOverrideProtocolGuid
                0x00000000000bdfa0       0x10 /tmp/ccwaw90K.ltrans3.ltrans.o
                0x00000000000bdfa0                gEfiPlatformDriverOverrideProtocolGuid
 .data.gEfiPlatformToDriverConfigurationProtocolGuid
                0x00000000000bdfb0       0x10 /tmp/ccwaw90K.ltrans3.ltrans.o
                0x00000000000bdfb0                gEfiPlatformToDriverConfigurationProtocolGuid
 .data.gEfiPxeBaseCodeCallbackProtocolGuid
                0x00000000000bdfc0       0x10 /tmp/ccwaw90K.ltrans3.ltrans.o
                0x00000000000bdfc0                gEfiPxeBaseCodeCallbackProtocolGuid
 .data.gEfiPxeBaseCodeProtocolGuid
                0x00000000000bdfd0       0x10 /tmp/ccwaw90K.ltrans3.ltrans.o
                0x00000000000bdfd0                gEfiPxeBaseCodeProtocolGuid
 .data.gEfiRamDiskProtocolGuid
                0x00000000000bdfe0       0x10 /tmp/ccwaw90K.ltrans3.ltrans.o
                0x00000000000bdfe0                gEfiRamDiskProtocolGuid
 .data.gEfiRealTimeClockArchProtocolGuid
                0x00000000000bdff0       0x10 /tmp/ccwaw90K.ltrans3.ltrans.o
                0x00000000000bdff0                gEfiRealTimeClockArchProtocolGuid
 .data.gEfiRegularExpressionProtocolGuid
                0x00000000000be000       0x10 /tmp/ccwaw90K.ltrans3.ltrans.o
                0x00000000000be000                gEfiRegularExpressionProtocolGuid
 .data.gEfiResetArchProtocolGuid
                0x00000000000be010       0x10 /tmp/ccwaw90K.ltrans3.ltrans.o
                0x00000000000be010                gEfiResetArchProtocolGuid
 .data.gEfiResetNotificationProtocolGuid
                0x00000000000be020       0x10 /tmp/ccwaw90K.ltrans3.ltrans.o
                0x00000000000be020                gEfiResetNotificationProtocolGuid
 .data.gEfiRestProtocolGuid
                0x00000000000be030       0x10 /tmp/ccwaw90K.ltrans3.ltrans.o
                0x00000000000be030                gEfiRestProtocolGuid
 .data.gEfiRngProtocolGuid
                0x00000000000be040       0x10 /tmp/ccwaw90K.ltrans3.ltrans.o
                0x00000000000be040                gEfiRngProtocolGuid
 .data.gEfiRscHandlerProtocolGuid
                0x00000000000be050       0x10 /tmp/ccwaw90K.ltrans3.ltrans.o
                0x00000000000be050                gEfiRscHandlerProtocolGuid
 .data.gEfiRuntimeArchProtocolGuid
                0x00000000000be060       0x10 /tmp/ccwaw90K.ltrans3.ltrans.o
                0x00000000000be060                gEfiRuntimeArchProtocolGuid
 .data.gEfiS3SaveStateProtocolGuid
                0x00000000000be070       0x10 /tmp/ccwaw90K.ltrans3.ltrans.o
                0x00000000000be070                gEfiS3SaveStateProtocolGuid
 .data.gEfiS3SmmSaveStateProtocolGuid
                0x00000000000be080       0x10 /tmp/ccwaw90K.ltrans3.ltrans.o
                0x00000000000be080                gEfiS3SmmSaveStateProtocolGuid
 .data.gEfiSalMcaInitPmiProtocolGuid
                0x00000000000be090       0x10 /tmp/ccwaw90K.ltrans3.ltrans.o
                0x00000000000be090                gEfiSalMcaInitPmiProtocolGuid
 .data.gEfiSasDevicePathGuid
                0x00000000000be0a0       0x10 /tmp/ccwaw90K.ltrans3.ltrans.o
                0x00000000000be0a0                gEfiSasDevicePathGuid
 .data.gEfiScsiIoProtocolGuid
                0x00000000000be0b0       0x10 /tmp/ccwaw90K.ltrans3.ltrans.o
                0x00000000000be0b0                gEfiScsiIoProtocolGuid
 .data.gEfiScsiPassThruProtocolGuid
                0x00000000000be0c0       0x10 /tmp/ccwaw90K.ltrans3.ltrans.o
                0x00000000000be0c0                gEfiScsiPassThruProtocolGuid
 .data.gEfiSdMmcPassThruProtocolGuid
                0x00000000000be0d0       0x10 /tmp/ccwaw90K.ltrans3.ltrans.o
                0x00000000000be0d0                gEfiSdMmcPassThruProtocolGuid
 .data.gEfiSecurity2ArchProtocolGuid
                0x00000000000be0e0       0x10 /tmp/ccwaw90K.ltrans3.ltrans.o
                0x00000000000be0e0                gEfiSecurity2ArchProtocolGuid
 .data.gEfiSecurityArchProtocolGuid
                0x00000000000be0f0       0x10 /tmp/ccwaw90K.ltrans3.ltrans.o
                0x00000000000be0f0                gEfiSecurityArchProtocolGuid
 .data.gEfiSecurityPolicyProtocolGuid
                0x00000000000be100       0x10 /tmp/ccwaw90K.ltrans3.ltrans.o
                0x00000000000be100                gEfiSecurityPolicyProtocolGuid
 .data.gEfiSimpleFileSystemProtocolGuid
                0x00000000000be110       0x10 /tmp/ccwaw90K.ltrans3.ltrans.o
                0x00000000000be110                gEfiSimpleFileSystemProtocolGuid
 .data.gEfiSimpleNetworkProtocolGuid
                0x00000000000be120       0x10 /tmp/ccwaw90K.ltrans3.ltrans.o
                0x00000000000be120                gEfiSimpleNetworkProtocolGuid
 .data.gEfiSimpleTextInProtocolGuid
                0x00000000000be130       0x10 /tmp/ccwaw90K.ltrans3.ltrans.o
                0x00000000000be130                gEfiSimpleTextInProtocolGuid
 .data.gEfiSimpleTextOutProtocolGuid
                0x00000000000be140       0x10 /tmp/ccwaw90K.ltrans3.ltrans.o
                0x00000000000be140                gEfiSimpleTextOutProtocolGuid
 .data.gEfiSioControlProtocolGuid
                0x00000000000be150       0x10 /tmp/ccwaw90K.ltrans3.ltrans.o
                0x00000000000be150                gEfiSioControlProtocolGuid
 .data.gEfiSioProtocolGuid
                0x00000000000be160       0x10 /tmp/ccwaw90K.ltrans3.ltrans.o
                0x00000000000be160                gEfiSioProtocolGuid
 .data.gEfiSmartCardEdgeProtocolGuid
                0x00000000000be170       0x10 /tmp/ccwaw90K.ltrans3.ltrans.o
                0x00000000000be170                gEfiSmartCardEdgeProtocolGuid
 .data.gEfiSmartCardReaderProtocolGuid
                0x00000000000be180       0x10 /tmp/ccwaw90K.ltrans3.ltrans.o
                0x00000000000be180                gEfiSmartCardReaderProtocolGuid
 .data.gEfiSmbiosProtocolGuid
                0x00000000000be190       0x10 /tmp/ccwaw90K.ltrans3.ltrans.o
                0x00000000000be190                gEfiSmbiosProtocolGuid
 .data.gEfiSmbusHcProtocolGuid
                0x00000000000be1a0       0x10 /tmp/ccwaw90K.ltrans3.ltrans.o
                0x00000000000be1a0                gEfiSmbusHcProtocolGuid
 .data.gEfiSmmAccess2ProtocolGuid
                0x00000000000be1b0       0x10 /tmp/ccwaw90K.ltrans3.ltrans.o
                0x00000000000be1b0                gEfiSmmAccess2ProtocolGuid
 .data.gEfiSmmBase2ProtocolGuid
                0x00000000000be1c0       0x10 /tmp/ccwaw90K.ltrans3.ltrans.o
                0x00000000000be1c0                gEfiSmmBase2ProtocolGuid
 .data.gEfiSmmCommunicationProtocolGuid
                0x00000000000be1d0       0x10 /tmp/ccwaw90K.ltrans3.ltrans.o
                0x00000000000be1d0                gEfiSmmCommunicationProtocolGuid
 .data.gEfiSmmConfigurationProtocolGuid
                0x00000000000be1e0       0x10 /tmp/ccwaw90K.ltrans3.ltrans.o
                0x00000000000be1e0                gEfiSmmConfigurationProtocolGuid
 .data.gEfiSmmControl2ProtocolGuid
                0x00000000000be1f0       0x10 /tmp/ccwaw90K.ltrans3.ltrans.o
                0x00000000000be1f0                gEfiSmmControl2ProtocolGuid
 .data.gEfiSmmCpuIo2ProtocolGuid
                0x00000000000be200       0x10 /tmp/ccwaw90K.ltrans3.ltrans.o
                0x00000000000be200                gEfiSmmCpuIo2ProtocolGuid
 .data.gEfiSmmCpuProtocolGuid
                0x00000000000be210       0x10 /tmp/ccwaw90K.ltrans3.ltrans.o
                0x00000000000be210                gEfiSmmCpuProtocolGuid
 .data.gEfiSmmEndOfDxeProtocolGuid
                0x00000000000be220       0x10 /tmp/ccwaw90K.ltrans3.ltrans.o
                0x00000000000be220                gEfiSmmEndOfDxeProtocolGuid
 .data.gEfiSmmGpiDispatch2ProtocolGuid
                0x00000000000be230       0x10 /tmp/ccwaw90K.ltrans3.ltrans.o
                0x00000000000be230                gEfiSmmGpiDispatch2ProtocolGuid
 .data.gEfiSmmIoTrapDispatch2ProtocolGuid
                0x00000000000be240       0x10 /tmp/ccwaw90K.ltrans3.ltrans.o
                0x00000000000be240                gEfiSmmIoTrapDispatch2ProtocolGuid
 .data.gEfiSmmPciRootBridgeIoProtocolGuid
                0x00000000000be250       0x10 /tmp/ccwaw90K.ltrans3.ltrans.o
                0x00000000000be250                gEfiSmmPciRootBridgeIoProtocolGuid
 .data.gEfiSmmPeriodicTimerDispatch2ProtocolGuid
                0x00000000000be260       0x10 /tmp/ccwaw90K.ltrans3.ltrans.o
                0x00000000000be260                gEfiSmmPeriodicTimerDispatch2ProtocolGuid
 .data.gEfiSmmPowerButtonDispatch2ProtocolGuid
                0x00000000000be270       0x10 /tmp/ccwaw90K.ltrans3.ltrans.o
                0x00000000000be270                gEfiSmmPowerButtonDispatch2ProtocolGuid
 .data.gEfiSmmReadyToLockProtocolGuid
                0x00000000000be280       0x10 /tmp/ccwaw90K.ltrans3.ltrans.o
                0x00000000000be280                gEfiSmmReadyToLockProtocolGuid
 .data.gEfiSmmRscHandlerProtocolGuid
                0x00000000000be290       0x10 /tmp/ccwaw90K.ltrans3.ltrans.o
                0x00000000000be290                gEfiSmmRscHandlerProtocolGuid
 .data.gEfiSmmStandbyButtonDispatch2ProtocolGuid
                0x00000000000be2a0       0x10 /tmp/ccwaw90K.ltrans3.ltrans.o
                0x00000000000be2a0                gEfiSmmStandbyButtonDispatch2ProtocolGuid
 .data.gEfiSmmStatusCodeProtocolGuid
                0x00000000000be2b0       0x10 /tmp/ccwaw90K.ltrans3.ltrans.o
                0x00000000000be2b0                gEfiSmmStatusCodeProtocolGuid
 .data.gEfiSmmSwDispatch2ProtocolGuid
                0x00000000000be2c0       0x10 /tmp/ccwaw90K.ltrans3.ltrans.o
                0x00000000000be2c0                gEfiSmmSwDispatch2ProtocolGuid
 .data.gEfiSmmSxDispatch2ProtocolGuid
                0x00000000000be2d0       0x10 /tmp/ccwaw90K.ltrans3.ltrans.o
                0x00000000000be2d0                gEfiSmmSxDispatch2ProtocolGuid
 .data.gEfiSmmUsbDispatch2ProtocolGuid
                0x00000000000be2e0       0x10 /tmp/ccwaw90K.ltrans3.ltrans.o
                0x00000000000be2e0                gEfiSmmUsbDispatch2ProtocolGuid
 .data.gEfiStandardErrorDeviceGuid
                0x00000000000be2f0       0x10 /tmp/ccwaw90K.ltrans3.ltrans.o
                0x00000000000be2f0                gEfiStandardErrorDeviceGuid
 .data.gEfiStatusCodeRuntimeProtocolGuid
                0x00000000000be300       0x10 /tmp/ccwaw90K.ltrans3.ltrans.o
                0x00000000000be300                gEfiStatusCodeRuntimeProtocolGuid
 .data.gEfiStorageSecurityCommandProtocolGuid
                0x00000000000be310       0x10 /tmp/ccwaw90K.ltrans3.ltrans.o
                0x00000000000be310                gEfiStorageSecurityCommandProtocolGuid
 .data.gEfiSupplicantProtocolGuid
                0x00000000000be320       0x10 /tmp/ccwaw90K.ltrans3.ltrans.o
                0x00000000000be320                gEfiSupplicantProtocolGuid
 .data.gEfiSupplicantServiceBindingProtocolGuid
                0x00000000000be330       0x10 /tmp/ccwaw90K.ltrans3.ltrans.o
                0x00000000000be330                gEfiSupplicantServiceBindingProtocolGuid
 .data.gEfiTapeIoProtocolGuid
                0x00000000000be340       0x10 /tmp/ccwaw90K.ltrans3.ltrans.o
                0x00000000000be340                gEfiTapeIoProtocolGuid
 .data.gEfiTcg2ProtocolGuid
                0x00000000000be350       0x10 /tmp/ccwaw90K.ltrans3.ltrans.o
                0x00000000000be350                gEfiTcg2ProtocolGuid
 .data.gEfiTcgProtocolGuid
                0x00000000000be360       0x10 /tmp/ccwaw90K.ltrans3.ltrans.o
                0x00000000000be360                gEfiTcgProtocolGuid
 .data.gEfiTcp4ProtocolGuid
                0x00000000000be370       0x10 /tmp/ccwaw90K.ltrans3.ltrans.o
                0x00000000000be370                gEfiTcp4ProtocolGuid
 .data.gEfiTcp4ServiceBindingProtocolGuid
                0x00000000000be380       0x10 /tmp/ccwaw90K.ltrans3.ltrans.o
                0x00000000000be380                gEfiTcp4ServiceBindingProtocolGuid
 .data.gEfiTcp6ProtocolGuid
                0x00000000000be390       0x10 /tmp/ccwaw90K.ltrans3.ltrans.o
                0x00000000000be390                gEfiTcp6ProtocolGuid
 .data.gEfiTcp6ServiceBindingProtocolGuid
                0x00000000000be3a0       0x10 /tmp/ccwaw90K.ltrans3.ltrans.o
                0x00000000000be3a0                gEfiTcp6ServiceBindingProtocolGuid
 .data.gEfiTimerArchProtocolGuid
                0x00000000000be3b0       0x10 /tmp/ccwaw90K.ltrans3.ltrans.o
                0x00000000000be3b0                gEfiTimerArchProtocolGuid
 .data.gEfiTimestampProtocolGuid
                0x00000000000be3c0       0x10 /tmp/ccwaw90K.ltrans3.ltrans.o
                0x00000000000be3c0                gEfiTimestampProtocolGuid
 .data.gEfiTlsConfigurationProtocolGuid
                0x00000000000be3d0       0x10 /tmp/ccwaw90K.ltrans3.ltrans.o
                0x00000000000be3d0                gEfiTlsConfigurationProtocolGuid
 .data.gEfiTlsProtocolGuid
                0x00000000000be3e0       0x10 /tmp/ccwaw90K.ltrans3.ltrans.o
                0x00000000000be3e0                gEfiTlsProtocolGuid
 .data.gEfiTlsServiceBindingProtocolGuid
                0x00000000000be3f0       0x10 /tmp/ccwaw90K.ltrans3.ltrans.o
                0x00000000000be3f0                gEfiTlsServiceBindingProtocolGuid
 .data.gEfiUdp4ProtocolGuid
                0x00000000000be400       0x10 /tmp/ccwaw90K.ltrans3.ltrans.o
                0x00000000000be400                gEfiUdp4ProtocolGuid
 .data.gEfiUdp4ServiceBindingProtocolGuid
                0x00000000000be410       0x10 /tmp/ccwaw90K.ltrans3.ltrans.o
                0x00000000000be410                gEfiUdp4ServiceBindingProtocolGuid
 .data.gEfiUdp6ProtocolGuid
                0x00000000000be420       0x10 /tmp/ccwaw90K.ltrans3.ltrans.o
                0x00000000000be420                gEfiUdp6ProtocolGuid
 .data.gEfiUdp6ServiceBindingProtocolGuid
                0x00000000000be430       0x10 /tmp/ccwaw90K.ltrans3.ltrans.o
                0x00000000000be430                gEfiUdp6ServiceBindingProtocolGuid
 .data.gEfiUfsDeviceConfigProtocolGuid
                0x00000000000be440       0x10 /tmp/ccwaw90K.ltrans3.ltrans.o
                0x00000000000be440                gEfiUfsDeviceConfigProtocolGuid
 .data.gEfiUgaDrawProtocolGuid
                0x00000000000be450       0x10 /tmp/ccwaw90K.ltrans3.ltrans.o
                0x00000000000be450                gEfiUgaDrawProtocolGuid
 .data.gEfiUgaIoProtocolGuid
                0x00000000000be460       0x10 /tmp/ccwaw90K.ltrans3.ltrans.o
                0x00000000000be460                gEfiUgaIoProtocolGuid
 .data.gEfiUnicodeCollation2ProtocolGuid
                0x00000000000be470       0x10 /tmp/ccwaw90K.ltrans3.ltrans.o
                0x00000000000be470                gEfiUnicodeCollation2ProtocolGuid
 .data.gEfiUnicodeCollationProtocolGuid
                0x00000000000be480       0x10 /tmp/ccwaw90K.ltrans3.ltrans.o
                0x00000000000be480                gEfiUnicodeCollationProtocolGuid
 .data.gEfiUsb2HcProtocolGuid
                0x00000000000be490       0x10 /tmp/ccwaw90K.ltrans3.ltrans.o
                0x00000000000be490                gEfiUsb2HcProtocolGuid
 .data.gEfiUsbFunctionIoProtocolGuid
                0x00000000000be4a0       0x10 /tmp/ccwaw90K.ltrans3.ltrans.o
                0x00000000000be4a0                gEfiUsbFunctionIoProtocolGuid
 .data.gEfiUsbHcProtocolGuid
                0x00000000000be4b0       0x10 /tmp/ccwaw90K.ltrans3.ltrans.o
                0x00000000000be4b0                gEfiUsbHcProtocolGuid
 .data.gEfiUsbIoProtocolGuid
                0x00000000000be4c0       0x10 /tmp/ccwaw90K.ltrans3.ltrans.o
                0x00000000000be4c0                gEfiUsbIoProtocolGuid
 .data.gEfiUserCredential2ProtocolGuid
                0x00000000000be4d0       0x10 /tmp/ccwaw90K.ltrans3.ltrans.o
                0x00000000000be4d0                gEfiUserCredential2ProtocolGuid
 .data.gEfiUserCredentialProtocolGuid
                0x00000000000be4e0       0x10 /tmp/ccwaw90K.ltrans3.ltrans.o
                0x00000000000be4e0                gEfiUserCredentialProtocolGuid
 .data.gEfiUserManagerProtocolGuid
                0x00000000000be4f0       0x10 /tmp/ccwaw90K.ltrans3.ltrans.o
                0x00000000000be4f0                gEfiUserManagerProtocolGuid
 .data.gEfiVT100Guid
                0x00000000000be500       0x10 /tmp/ccwaw90K.ltrans3.ltrans.o
                0x00000000000be500                gEfiVT100Guid
 .data.gEfiVT100PlusGuid
                0x00000000000be510       0x10 /tmp/ccwaw90K.ltrans3.ltrans.o
                0x00000000000be510                gEfiVT100PlusGuid
 .data.gEfiVTUTF8Guid
                0x00000000000be520       0x10 /tmp/ccwaw90K.ltrans3.ltrans.o
                0x00000000000be520                gEfiVTUTF8Guid
 .data.gEfiVariableArchProtocolGuid
                0x00000000000be530       0x10 /tmp/ccwaw90K.ltrans3.ltrans.o
                0x00000000000be530                gEfiVariableArchProtocolGuid
 .data.gEfiVariableWriteArchProtocolGuid
                0x00000000000be540       0x10 /tmp/ccwaw90K.ltrans3.ltrans.o
                0x00000000000be540                gEfiVariableWriteArchProtocolGuid
 .data.gEfiVlanConfigProtocolGuid
                0x00000000000be550       0x10 /tmp/ccwaw90K.ltrans3.ltrans.o
                0x00000000000be550                gEfiVlanConfigProtocolGuid
 .data.gEfiWatchdogTimerArchProtocolGuid
                0x00000000000be560       0x10 /tmp/ccwaw90K.ltrans3.ltrans.o
                0x00000000000be560                gEfiWatchdogTimerArchProtocolGuid
 .data.gEfiWiFi2ProtocolGuid
                0x00000000000be570       0x10 /tmp/ccwaw90K.ltrans3.ltrans.o
                0x00000000000be570                gEfiWiFi2ProtocolGuid
 .data.gEfiWiFiProtocolGuid
                0x00000000000be580       0x10 /tmp/ccwaw90K.ltrans3.ltrans.o
                0x00000000000be580                gEfiWiFiProtocolGuid
 .data.gGetPcdInfoProtocolGuid
                0x00000000000be590       0x10 /tmp/ccwaw90K.ltrans3.ltrans.o
                0x00000000000be590                gGetPcdInfoProtocolGuid
 .data.gPcdProtocolGuid
                0x00000000000be5a0       0x10 /tmp/ccwaw90K.ltrans3.ltrans.o
                0x00000000000be5a0                gPcdProtocolGuid
 .data.mDayOfMonth
                0x00000000000be5b0       0x60 /tmp/ccwaw90K.ltrans3.ltrans.o
 .data.CfgGuidList
                0x00000000000be610       0x18 /tmp/ccwaw90K.ltrans4.ltrans.o
 .data.FileBufferConst
                0x00000000000be628       0x78 /tmp/ccwaw90K.ltrans4.ltrans.o
 .data.HBufferImageConst
                0x00000000000be6a0       0x78 /tmp/ccwaw90K.ltrans4.ltrans.o
 .data.HMainEditorConst
                0x00000000000be718       0x50 /tmp/ccwaw90K.ltrans4.ltrans.o
 .data.HexMainControlBasedMenuFunctions
                0x00000000000be768       0xd8 /tmp/ccwaw90K.ltrans4.ltrans.o
 .data.MainControlBasedMenuFunctions
                0x00000000000be840       0xd8 /tmp/ccwaw90K.ltrans4.ltrans.o
 .data.MainEditorConst
                0x00000000000be918       0x48 /tmp/ccwaw90K.ltrans4.ltrans.o
 .data.MainMenuItems
                0x00000000000be960       0xb0 /tmp/ccwaw90K.ltrans4.ltrans.o
 .data.SfoParamList
                0x00000000000bea10       0x20 /tmp/ccwaw90K.ltrans4.ltrans.o
                0x00000000000bea10                SfoParamList
 .data.gEfiAcpi10TableGuid
                0x00000000000bea30       0x10 /tmp/ccwaw90K.ltrans4.ltrans.o
 .data.gEfiAcpi20TableGuid
                0x00000000000bea40       0x10 /tmp/ccwaw90K.ltrans4.ltrans.o
 .data.gEfiDriverConfiguration2ProtocolGuid
                0x00000000000bea50       0x10 /tmp/ccwaw90K.ltrans4.ltrans.o
                0x00000000000bea50                gEfiDriverConfiguration2ProtocolGuid
 .data.gEfiDriverConfigurationProtocolGuid
                0x00000000000bea60       0x10 /tmp/ccwaw90K.ltrans4.ltrans.o
                0x00000000000bea60                gEfiDriverConfigurationProtocolGuid
 .data.gEfiHiiConfigAccessProtocolGuid
                0x00000000000bea70       0x10 /tmp/ccwaw90K.ltrans4.ltrans.o
                0x00000000000bea70                gEfiHiiConfigAccessProtocolGuid
 .data.gEfiHiiDatabaseProtocolGuid
                0x00000000000bea80       0x10 /tmp/ccwaw90K.ltrans4.ltrans.o
                0x00000000000bea80                gEfiHiiDatabaseProtocolGuid
 .data.gEfiMpsTableGuid
                0x00000000000bea90       0x10 /tmp/ccwaw90K.ltrans4.ltrans.o
 .data.gEfiSalSystemTableGuid
                0x00000000000beaa0       0x10 /tmp/ccwaw90K.ltrans4.ltrans.o
 .data.gEfiSimplePointerProtocolGuid
                0x00000000000beab0       0x10 /tmp/ccwaw90K.ltrans4.ltrans.o
                0x00000000000beab0                gEfiSimplePointerProtocolGuid
 .data.gEfiSimpleTextInputExProtocolGuid
                0x00000000000beac0       0x10 /tmp/ccwaw90K.ltrans4.ltrans.o
                0x00000000000beac0                gEfiSimpleTextInputExProtocolGuid
 .data.EmptyParamList
                0x00000000000bead0       0x10 /tmp/ccwaw90K.ltrans5.ltrans.o
                0x00000000000bead0                EmptyParamList
 .data.PCIBlankEntry
                0x00000000000beae0       0x30 /tmp/ccwaw90K.ltrans5.ltrans.o
 .data.PCIPIFClass_0100
                0x00000000000beb10       0x90 /tmp/ccwaw90K.ltrans5.ltrans.o
 .data.PCIPIFClass_0101
                0x00000000000beba0      0x318 /tmp/ccwaw90K.ltrans5.ltrans.o
 .data.PCIPIFClass_0105
                0x00000000000beeb8       0x48 /tmp/ccwaw90K.ltrans5.ltrans.o
 .data.PCIPIFClass_0106
                0x00000000000bef00       0x60 /tmp/ccwaw90K.ltrans5.ltrans.o
 .data.PCIPIFClass_0107
                0x00000000000bef60       0x48 /tmp/ccwaw90K.ltrans5.ltrans.o
 .data.PCIPIFClass_0108
                0x00000000000befa8       0x60 /tmp/ccwaw90K.ltrans5.ltrans.o
 .data.PCIPIFClass_0109
                0x00000000000bf008       0x48 /tmp/ccwaw90K.ltrans5.ltrans.o
 .data.PCIPIFClass_0300
                0x00000000000bf050       0x48 /tmp/ccwaw90K.ltrans5.ltrans.o
 .data.PCIPIFClass_0604
                0x00000000000bf098       0x48 /tmp/ccwaw90K.ltrans5.ltrans.o
 .data.PCIPIFClass_0609
                0x00000000000bf0e0       0x48 /tmp/ccwaw90K.ltrans5.ltrans.o
 .data.PCIPIFClass_060b
                0x00000000000bf128       0x48 /tmp/ccwaw90K.ltrans5.ltrans.o
 .data.PCIPIFClass_0700
                0x00000000000bf170       0xc0 /tmp/ccwaw90K.ltrans5.ltrans.o
 .data.PCIPIFClass_0701
                0x00000000000bf230       0x90 /tmp/ccwaw90K.ltrans5.ltrans.o
 .data.PCIPIFClass_0703
                0x00000000000bf2c0       0x90 /tmp/ccwaw90K.ltrans5.ltrans.o
 .data.PCIPIFClass_0800
                0x00000000000bf350       0x90 /tmp/ccwaw90K.ltrans5.ltrans.o
 .data.PCIPIFClass_0801
                0x00000000000bf3e0       0x60 /tmp/ccwaw90K.ltrans5.ltrans.o
 .data.PCIPIFClass_0802
                0x00000000000bf440       0x60 /tmp/ccwaw90K.ltrans5.ltrans.o
 .data.PCIPIFClass_0803
                0x00000000000bf4a0       0x60 /tmp/ccwaw90K.ltrans5.ltrans.o
 .data.PCIPIFClass_0904
                0x00000000000bf500       0x48 /tmp/ccwaw90K.ltrans5.ltrans.o
 .data.PCIPIFClass_0c00
                0x00000000000bf548       0x48 /tmp/ccwaw90K.ltrans5.ltrans.o
 .data.PCIPIFClass_0c03
                0x00000000000bf590       0xa8 /tmp/ccwaw90K.ltrans5.ltrans.o
 .data.PCIPIFClass_0c07
                0x00000000000bf638       0x60 /tmp/ccwaw90K.ltrans5.ltrans.o
 .data.PCIPIFClass_0d01
                0x00000000000bf698       0x48 /tmp/ccwaw90K.ltrans5.ltrans.o
 .data.PCIPIFClass_0e00
                0x00000000000bf6e0       0x48 /tmp/ccwaw90K.ltrans5.ltrans.o
 .data.PCISubClass_00
                0x00000000000bf728       0x48 /tmp/ccwaw90K.ltrans5.ltrans.o
 .data.PCISubClass_01
                0x00000000000bf770      0x120 /tmp/ccwaw90K.ltrans5.ltrans.o
 .data.PCISubClass_02
                0x00000000000bf890       0xf0 /tmp/ccwaw90K.ltrans5.ltrans.o
 .data.PCISubClass_03
                0x00000000000bf980       0x78 /tmp/ccwaw90K.ltrans5.ltrans.o
 .data.PCISubClass_04
                0x00000000000bf9f8       0x90 /tmp/ccwaw90K.ltrans5.ltrans.o
 .data.PCISubClass_05
                0x00000000000bfa88       0x60 /tmp/ccwaw90K.ltrans5.ltrans.o
 .data.PCISubClass_06
                0x00000000000bfae8      0x150 /tmp/ccwaw90K.ltrans5.ltrans.o
 .data.PCISubClass_07
                0x00000000000bfc38       0xc0 /tmp/ccwaw90K.ltrans5.ltrans.o
 .data.PCISubClass_08
                0x00000000000bfcf8       0xf0 /tmp/ccwaw90K.ltrans5.ltrans.o
 .data.PCISubClass_09
                0x00000000000bfde8       0xa8 /tmp/ccwaw90K.ltrans5.ltrans.o
 .data.PCISubClass_0a
                0x00000000000bfe90       0x48 /tmp/ccwaw90K.ltrans5.ltrans.o
 .data.PCISubClass_0b
                0x00000000000bfed8       0xd8 /tmp/ccwaw90K.ltrans5.ltrans.o
 .data.PCISubClass_0c
                0x00000000000bffb0      0x120 /tmp/ccwaw90K.ltrans5.ltrans.o
 .data.PCISubClass_0d
                0x00000000000c00d0       0xd8 /tmp/ccwaw90K.ltrans5.ltrans.o
 .data.PCISubClass_0e
                0x00000000000c01a8       0x30 /tmp/ccwaw90K.ltrans5.ltrans.o
 .data.PCISubClass_0f
                0x00000000000c01d8       0x90 /tmp/ccwaw90K.ltrans5.ltrans.o
 .data.PCISubClass_10
                0x00000000000c0268       0x60 /tmp/ccwaw90K.ltrans5.ltrans.o
 .data.PCISubClass_11
                0x00000000000c02c8       0x90 /tmp/ccwaw90K.ltrans5.ltrans.o
 .data.PCISubClass_12
                0x00000000000c0358       0x30 /tmp/ccwaw90K.ltrans5.ltrans.o
 .data.PCISubClass_13
                0x00000000000c0388       0x30 /tmp/ccwaw90K.ltrans5.ltrans.o
 .data.gClassStringList
                0x00000000000c03b8      0x210 /tmp/ccwaw90K.ltrans5.ltrans.o
 .data.gEfiCpuIo2ProtocolGuid
                0x00000000000c05c8       0x10 /tmp/ccwaw90K.ltrans5.ltrans.o
                0x00000000000c05c8                gEfiCpuIo2ProtocolGuid
 .data.gEfiDecompressProtocolGuid
                0x00000000000c05d8       0x10 /tmp/ccwaw90K.ltrans5.ltrans.o
                0x00000000000c05d8                gEfiDecompressProtocolGuid
 .data.gEfiPciRootBridgeIoProtocolGuid
                0x00000000000c05e8       0x10 /tmp/ccwaw90K.ltrans5.ltrans.o
                0x00000000000c05e8                gEfiPciRootBridgeIoProtocolGuid
 .data.gEfiSerialIoProtocolGuid
                0x00000000000c05f8       0x10 /tmp/ccwaw90K.ltrans5.ltrans.o
                0x00000000000c05f8                gEfiSerialIoProtocolGuid
 .data.gEfiSmbios3TableGuid
                0x00000000000c0608       0x10 /tmp/ccwaw90K.ltrans5.ltrans.o
                0x00000000000c0608                gEfiSmbios3TableGuid
 .data.gEfiSmbiosTableGuid
                0x00000000000c0618       0x10 /tmp/ccwaw90K.ltrans5.ltrans.o
                0x00000000000c0618                gEfiSmbiosTableGuid
 .data.gShowType
                0x00000000000c0628        0x1 /tmp/ccwaw90K.ltrans5.ltrans.o
 *fill*         0x00000000000c0629        0x7 
 .data.BaseBoardBoardTypeTable
                0x00000000000c0630       0xd0 /tmp/ccwaw90K.ltrans6.ltrans.o
 .data.BaseBoardFeatureFlagsTable
                0x00000000000c0700       0x50 /tmp/ccwaw90K.ltrans6.ltrans.o
 .data.CacheAssociativityTable
                0x00000000000c0750       0xe0 /tmp/ccwaw90K.ltrans6.ltrans.o
 .data.CacheErrCorrectingTypeTable
                0x00000000000c0830       0x60 /tmp/ccwaw90K.ltrans6.ltrans.o
 .data.CacheSRAMTypeTable
                0x00000000000c0890       0x70 /tmp/ccwaw90K.ltrans6.ltrans.o
 .data.CacheSystemCacheTypeTable
                0x00000000000c0900       0x50 /tmp/ccwaw90K.ltrans6.ltrans.o
 .data.CoolingDeviceStatusTable
                0x00000000000c0950       0x60 /tmp/ccwaw90K.ltrans6.ltrans.o
 .data.CoolingDeviceTypeTable
                0x00000000000c09b0       0xb0 /tmp/ccwaw90K.ltrans6.ltrans.o
 .data.ECPLocTable
                0x00000000000c0a60       0xb0 /tmp/ccwaw90K.ltrans6.ltrans.o
 .data.ECPStatusTable
                0x00000000000c0b10       0x60 /tmp/ccwaw90K.ltrans6.ltrans.o
 .data.IPMIDIBMCInterfaceTypeTable
                0x00000000000c0b70       0x60 /tmp/ccwaw90K.ltrans6.ltrans.o
 .data.MCHostInterfaceTypeTable
                0x00000000000c0bd0       0x30 /tmp/ccwaw90K.ltrans6.ltrans.o
 .data.MDAddressTypeTable
                0x00000000000c0c00       0x50 /tmp/ccwaw90K.ltrans6.ltrans.o
 .data.MDTypeTable
                0x00000000000c0c50       0xd0 /tmp/ccwaw90K.ltrans6.ltrans.o
 .data.McErrorDetectMethodTable
                0x00000000000c0d20       0x80 /tmp/ccwaw90K.ltrans6.ltrans.o
 .data.McMemorySpeedsTable
                0x00000000000c0da0       0x50 /tmp/ccwaw90K.ltrans6.ltrans.o
 .data.MemoryChannelTypeTable
                0x00000000000c0df0       0x40 /tmp/ccwaw90K.ltrans6.ltrans.o
 .data.MemoryDeviceFormFactorTable
                0x00000000000c0e30       0xf0 /tmp/ccwaw90K.ltrans6.ltrans.o
 .data.MemoryDeviceMemoryOperatingModeCapabilityTable
                0x00000000000c0f20       0x50 /tmp/ccwaw90K.ltrans6.ltrans.o
 .data.MemoryDeviceMemoryTechnologyTable
                0x00000000000c0f70       0x70 /tmp/ccwaw90K.ltrans6.ltrans.o
 .data.MemoryDeviceTypeDetailTable
                0x00000000000c0fe0       0xe0 /tmp/ccwaw90K.ltrans6.ltrans.o
 .data.MemoryDeviceTypeTable
                0x00000000000c10c0      0x1c0 /tmp/ccwaw90K.ltrans6.ltrans.o
 .data.MemoryModuleVoltageTable
                0x00000000000c1280       0x30 /tmp/ccwaw90K.ltrans6.ltrans.o
 .data.MmErrorStatusTable
                0x00000000000c12b0       0x30 /tmp/ccwaw90K.ltrans6.ltrans.o
 .data.PBDeviceChemistryTable
                0x00000000000c12e0       0x80 /tmp/ccwaw90K.ltrans6.ltrans.o
 .data.PMAErrorCorrectionTypesTable
                0x00000000000c1360       0x70 /tmp/ccwaw90K.ltrans6.ltrans.o
 .data.PMALocationTable
                0x00000000000c13d0       0xe0 /tmp/ccwaw90K.ltrans6.ltrans.o
 .data.PMAUseTable
                0x00000000000c14b0       0x70 /tmp/ccwaw90K.ltrans6.ltrans.o
 .data.PointingDeviceInterfaceTable
                0x00000000000c1520       0xb0 /tmp/ccwaw90K.ltrans6.ltrans.o
 .data.PointingDeviceTypeTable
                0x00000000000c15d0       0x70 /tmp/ccwaw90K.ltrans6.ltrans.o
 .data.PortTypeTable
                0x00000000000c1640      0x270 /tmp/ccwaw90K.ltrans6.ltrans.o
 .data.PostResultsBitmapDw1Table
                0x00000000000c18b0      0x200 /tmp/ccwaw90K.ltrans6.ltrans.o
 .data.PostResultsBitmapDw2Table
                0x00000000000c1ab0      0x200 /tmp/ccwaw90K.ltrans6.ltrans.o
 .data.ProcessorCharacteristicsTable
                0x00000000000c1cb0       0x70 /tmp/ccwaw90K.ltrans6.ltrans.o
 .data.ProcessorTypeTable
                0x00000000000c1d20       0x60 /tmp/ccwaw90K.ltrans6.ltrans.o
 .data.ProcessorUpgradeTable
                0x00000000000c1d80      0x3c0 /tmp/ccwaw90K.ltrans6.ltrans.o
 .data.SELTypesTable
                0x00000000000c2140      0x1b0 /tmp/ccwaw90K.ltrans6.ltrans.o
 .data.SESecurityStatusTable
                0x00000000000c22f0       0x50 /tmp/ccwaw90K.ltrans6.ltrans.o
 .data.SlotCharacteristics1Table
                0x00000000000c2340       0x80 /tmp/ccwaw90K.ltrans6.ltrans.o
 .data.SlotCharacteristics2Table
                0x00000000000c23c0       0x40 /tmp/ccwaw90K.ltrans6.ltrans.o
 .data.StructureTypeInfoTable
                0x00000000000c2400      0x2e0 /tmp/ccwaw90K.ltrans6.ltrans.o
 .data.SystemSlotCurrentUsageTable
                0x00000000000c26e0       0x50 /tmp/ccwaw90K.ltrans6.ltrans.o
 .data.SystemSlotDataBusWidthTable
                0x00000000000c2730       0xe0 /tmp/ccwaw90K.ltrans6.ltrans.o
 .data.SystemSlotLengthTable
                0x00000000000c2810       0x40 /tmp/ccwaw90K.ltrans6.ltrans.o
 .data.SystemWakeupTypeTable
                0x00000000000c2850       0x80 /tmp/ccwaw90K.ltrans6.ltrans.o
 .data.TemperatureProbeLocTable
                0x00000000000c28d0       0xb0 /tmp/ccwaw90K.ltrans6.ltrans.o
 .data.TemperatureProbeStatusTable
                0x00000000000c2980       0x60 /tmp/ccwaw90K.ltrans6.ltrans.o
 .data.VPLocationTable
                0x00000000000c29e0       0x60 /tmp/ccwaw90K.ltrans6.ltrans.o
 .data.VPStatusTable
                0x00000000000c2a40       0xb0 /tmp/ccwaw90K.ltrans6.ltrans.o
 .data.SELSysManagementTypesTable
                0x00000000000c2af0      0x100 /tmp/ccwaw90K.ltrans7.ltrans.o
 .data.ShellInfoObject
                0x00000000000c2bf0      0x140 /tmp/ccwaw90K.ltrans7.ltrans.o
                0x00000000000c2bf0                ShellInfoObject
 .data.UefiShellBcfgCommandLibStrings
                0x00000000000c2d30     0x3034 /tmp/ccwaw90K.ltrans7.ltrans.o
 .data.gEfiBlockIoProtocolGuid
                0x00000000000c5d64       0x10 /tmp/ccwaw90K.ltrans7.ltrans.o
                0x00000000000c5d64                gEfiBlockIoProtocolGuid
 .data.gEfiDevicePathProtocolGuid
                0x00000000000c5d74       0x10 /tmp/ccwaw90K.ltrans7.ltrans.o
                0x00000000000c5d74                gEfiDevicePathProtocolGuid
 .data.gEfiGlobalVariableGuid
                0x00000000000c5d84       0x10 /tmp/ccwaw90K.ltrans7.ltrans.o
                0x00000000000c5d84                gEfiGlobalVariableGuid
 .data.gEfiHiiPackageListProtocolGuid
                0x00000000000c5d94       0x10 /tmp/ccwaw90K.ltrans7.ltrans.o
                0x00000000000c5d94                gEfiHiiPackageListProtocolGuid
 .data.gEfiShellEnvironment2ExtGuid
                0x00000000000c5da4       0x10 /tmp/ccwaw90K.ltrans7.ltrans.o
 .data.gEfiShellEnvironment2Guid
                0x00000000000c5db4       0x10 /tmp/ccwaw90K.ltrans7.ltrans.o
                0x00000000000c5db4                gEfiShellEnvironment2Guid
 .data.gEfiShellInterfaceGuid
                0x00000000000c5dc4       0x10 /tmp/ccwaw90K.ltrans7.ltrans.o
                0x00000000000c5dc4                gEfiShellInterfaceGuid
 .data.gEfiShellParametersProtocolGuid
                0x00000000000c5dd4       0x10 /tmp/ccwaw90K.ltrans7.ltrans.o
                0x00000000000c5dd4                gEfiShellParametersProtocolGuid
 .data.gEfiShellProtocolGuid
                0x00000000000c5de4       0x10 /tmp/ccwaw90K.ltrans7.ltrans.o
                0x00000000000c5de4                gEfiShellProtocolGuid
 .data.gShellBcfgHiiGuid
                0x00000000000c5df4       0x10 /tmp/ccwaw90K.ltrans7.ltrans.o
 .data.mShellManHiiDevicePath
                0x00000000000c5e04       0x18 /tmp/ccwaw90K.ltrans7.ltrans.o
 *fill*         0x00000000000c5e1c        0x4 
 .data.McErrorCorrectCapabilityTable
                0x00000000000c5e20       0x60 /tmp/ccwaw90K.ltrans8.ltrans.o
 .data.McInterleaveSupportTable
                0x00000000000c5e80       0x70 /tmp/ccwaw90K.ltrans8.ltrans.o
 .data.MemoryErrorGranularityTable
                0x00000000000c5ef0       0x40 /tmp/ccwaw90K.ltrans8.ltrans.o
 .data.MemoryErrorOperationTable
                0x00000000000c5f30       0x50 /tmp/ccwaw90K.ltrans8.ltrans.o
 .data.MemoryErrorTypeTable
                0x00000000000c5f80       0xe0 /tmp/ccwaw90K.ltrans8.ltrans.o
 .data.MmMemoryTypeTable
                0x00000000000c6060       0xb0 /tmp/ccwaw90K.ltrans8.ltrans.o
 .data.OnboardDeviceTypesTable
                0x00000000000c6110       0xa0 /tmp/ccwaw90K.ltrans8.ltrans.o
 .data.PortConnectorTypeTable
                0x00000000000c61b0      0x2a0 /tmp/ccwaw90K.ltrans8.ltrans.o
 .data.SELVarDataFormatTypeTable
                0x00000000000c6450       0x90 /tmp/ccwaw90K.ltrans8.ltrans.o
 .data.SystemEnclosureStatusTable
                0x00000000000c64e0       0x60 /tmp/ccwaw90K.ltrans8.ltrans.o
 .data.SystemEnclosureTypeTable
                0x00000000000c6540      0x240 /tmp/ccwaw90K.ltrans8.ltrans.o
 .data.SystemSlotTypeTable
                0x00000000000c6780      0x3a0 /tmp/ccwaw90K.ltrans8.ltrans.o
 .data.gEdkiiVariableLockProtocolGuid
                0x00000000000c6b20       0x10 /tmp/ccwaw90K.ltrans8.ltrans.o
 .data.gEfiLoadedImageProtocolGuid
                0x00000000000c6b30       0x10 /tmp/ccwaw90K.ltrans8.ltrans.o
                0x00000000000c6b30                gEfiLoadedImageProtocolGuid
 *(.bss .bss.*)
 .bss.AsciiRedirection
                0x00000000000c6b40        0x1 /tmp/ccwaw90K.ltrans0.ltrans.o
 *fill*         0x00000000000c6b41        0x7 
 .bss.gDS       0x00000000000c6b48        0x8 /tmp/ccwaw90K.ltrans0.ltrans.o
 .bss.gHiiConfigRouting
                0x00000000000c6b50        0x8 /tmp/ccwaw90K.ltrans0.ltrans.o
 .bss.gHiiFont  0x00000000000c6b58        0x8 /tmp/ccwaw90K.ltrans0.ltrans.o
 .bss.gHiiImage
                0x00000000000c6b60        0x8 /tmp/ccwaw90K.ltrans0.ltrans.o
 .bss.gShellEnvVarList
                0x00000000000c6b68       0x28 /tmp/ccwaw90K.ltrans0.ltrans.o
 .bss.mHobList  0x00000000000c6b90        0x8 /tmp/ccwaw90K.ltrans0.ltrans.o
 .bss.gInReconnect
                0x00000000000c6b98        0x1 /tmp/ccwaw90K.ltrans1.ltrans.o
 *fill*         0x00000000000c6b99        0x7 
 .bss.gShellLevel1HiiHandle
                0x00000000000c6ba0        0x8 /tmp/ccwaw90K.ltrans1.ltrans.o
                0x00000000000c6ba0                gShellLevel1HiiHandle
 .bss.gShellLevel2HiiHandle
                0x00000000000c6ba8        0x8 /tmp/ccwaw90K.ltrans1.ltrans.o
                0x00000000000c6ba8                gShellLevel2HiiHandle
 .bss.gShellLevel3HiiHandle
                0x00000000000c6bb0        0x8 /tmp/ccwaw90K.ltrans1.ltrans.o
                0x00000000000c6bb0                gShellLevel3HiiHandle
 .bss.gHiiString
                0x00000000000c6bb8        0x8 /tmp/ccwaw90K.ltrans2.ltrans.o
                0x00000000000c6bb8                gHiiString
 .bss.mHandleParsingHiiHandle
                0x00000000000c6bc0        0x8 /tmp/ccwaw90K.ltrans2.ltrans.o
                0x00000000000c6bc0                mHandleParsingHiiHandle
 .bss.mUnicodeCollation
                0x00000000000c6bc8        0x8 /tmp/ccwaw90K.ltrans2.ltrans.o
 .bss.mUnicodeCollationProtocol
                0x00000000000c6bd0        0x8 /tmp/ccwaw90K.ltrans2.ltrans.o
                0x00000000000c6bd0                mUnicodeCollationProtocol
 .bss.gShellCurMapping
                0x00000000000c6bd8        0x8 /tmp/ccwaw90K.ltrans3.ltrans.o
                0x00000000000c6bd8                gShellCurMapping
 .bss.mAliasList.lto_priv.206
                0x00000000000c6be0       0x20 /tmp/ccwaw90K.ltrans3.ltrans.o
                0x00000000000c6be0                mAliasList.lto_priv.206
 .bss.mBlkMaxCount
                0x00000000000c6c00        0x8 /tmp/ccwaw90K.ltrans3.ltrans.o
 .bss.mFileHandleList.lto_priv.208
                0x00000000000c6c08       0x18 /tmp/ccwaw90K.ltrans3.ltrans.o
                0x00000000000c6c08                mFileHandleList.lto_priv.208
 .bss.mFsMaxCount
                0x00000000000c6c20        0x8 /tmp/ccwaw90K.ltrans3.ltrans.o
 .bss.mGuidList
                0x00000000000c6c28        0x8 /tmp/ccwaw90K.ltrans3.ltrans.o
                0x00000000000c6c28                mGuidList
 .bss.mGuidListCount
                0x00000000000c6c30        0x8 /tmp/ccwaw90K.ltrans3.ltrans.o
                0x00000000000c6c30                mGuidListCount
 .bss.mHandleList
                0x00000000000c6c38       0x28 /tmp/ccwaw90K.ltrans3.ltrans.o
                0x00000000000c6c38                mHandleList
 .bss.mProfileList.lto_priv.210
                0x00000000000c6c60        0x8 /tmp/ccwaw90K.ltrans3.ltrans.o
                0x00000000000c6c60                mProfileList.lto_priv.210
 .bss.mProfileListSize.lto_priv.209
                0x00000000000c6c68        0x8 /tmp/ccwaw90K.ltrans3.ltrans.o
                0x00000000000c6c68                mProfileListSize.lto_priv.209
 .bss.mScriptList.lto_priv.207
                0x00000000000c6c70       0x18 /tmp/ccwaw90K.ltrans3.ltrans.o
                0x00000000000c6c70                mScriptList.lto_priv.207
 .bss.EditorExit
                0x00000000000c6c88        0x1 /tmp/ccwaw90K.ltrans4.ltrans.o
 .bss.EditorFirst
                0x00000000000c6c89        0x1 /tmp/ccwaw90K.ltrans4.ltrans.o
 .bss.EditorMouseAction
                0x00000000000c6c8a        0x1 /tmp/ccwaw90K.ltrans4.ltrans.o
 *fill*         0x00000000000c6c8b        0x5 
 .bss.FileBuffer
                0x00000000000c6c90       0x78 /tmp/ccwaw90K.ltrans4.ltrans.o
 .bss.FileBufferBackupVar
                0x00000000000c6d08       0x78 /tmp/ccwaw90K.ltrans4.ltrans.o
 .bss.FileBufferMouseNeedRefresh
                0x00000000000c6d80        0x1 /tmp/ccwaw90K.ltrans4.ltrans.o
 .bss.FileBufferNeedRefresh
                0x00000000000c6d81        0x1 /tmp/ccwaw90K.ltrans4.ltrans.o
 .bss.FileBufferOnlyLineNeedRefresh
                0x00000000000c6d82        0x1 /tmp/ccwaw90K.ltrans4.ltrans.o
 *fill*         0x00000000000c6d83        0x5 
 .bss.HClipBoard
                0x00000000000c6d88       0x10 /tmp/ccwaw90K.ltrans4.ltrans.o
 .bss.HClipBoardConst
                0x00000000000c6d98       0x10 /tmp/ccwaw90K.ltrans4.ltrans.o
 .bss.HDiskImageConst
                0x00000000000c6da8       0x20 /tmp/ccwaw90K.ltrans4.ltrans.o
 .bss.HEditorExit
                0x00000000000c6dc8        0x1 /tmp/ccwaw90K.ltrans4.ltrans.o
 *fill*         0x00000000000c6dc9        0x7 
 .bss.HFileImageConst
                0x00000000000c6dd0       0x78 /tmp/ccwaw90K.ltrans4.ltrans.o
 .bss.HMemImageConst
                0x00000000000c6e48       0x18 /tmp/ccwaw90K.ltrans4.ltrans.o
 .bss.HOriginalColors
                0x00000000000c6e60        0x4 /tmp/ccwaw90K.ltrans4.ltrans.o
 *fill*         0x00000000000c6e64        0x4 
 .bss.HOriginalMode
                0x00000000000c6e68        0x8 /tmp/ccwaw90K.ltrans4.ltrans.o
 .bss.MainEditor
                0x00000000000c6e70       0x48 /tmp/ccwaw90K.ltrans4.ltrans.o
 .bss.OriginalColors
                0x00000000000c6eb8        0x4 /tmp/ccwaw90K.ltrans4.ltrans.o
 *fill*         0x00000000000c6ebc        0x4 
 .bss.OriginalMode
                0x00000000000c6ec0        0x8 /tmp/ccwaw90K.ltrans4.ltrans.o
 .bss.gShellDriver1HiiHandle
                0x00000000000c6ec8        0x8 /tmp/ccwaw90K.ltrans4.ltrans.o
                0x00000000000c6ec8                gShellDriver1HiiHandle
 .bss.ControlBasedMenuFunctions
                0x00000000000c6ed0        0x8 /tmp/ccwaw90K.ltrans5.ltrans.o
                0x00000000000c6ed0                ControlBasedMenuFunctions
 .bss.HBufferImageBackupVar
                0x00000000000c6ed8       0x78 /tmp/ccwaw90K.ltrans5.ltrans.o
                0x00000000000c6ed8                HBufferImageBackupVar
 .bss.HBufferImageMouseNeedRefresh
                0x00000000000c6f50        0x1 /tmp/ccwaw90K.ltrans5.ltrans.o
                0x00000000000c6f50                HBufferImageMouseNeedRefresh
 .bss.HBufferImageNeedRefresh
                0x00000000000c6f51        0x1 /tmp/ccwaw90K.ltrans5.ltrans.o
                0x00000000000c6f51                HBufferImageNeedRefresh
 .bss.HBufferImageOnlyLineNeedRefresh
                0x00000000000c6f52        0x1 /tmp/ccwaw90K.ltrans5.ltrans.o
                0x00000000000c6f52                HBufferImageOnlyLineNeedRefresh
 *fill*         0x00000000000c6f53        0x5 
 .bss.HDiskImage
                0x00000000000c6f58       0x20 /tmp/ccwaw90K.ltrans5.ltrans.o
                0x00000000000c6f58                HDiskImage
 .bss.HDiskImageBackupVar
                0x00000000000c6f78       0x20 /tmp/ccwaw90K.ltrans5.ltrans.o
                0x00000000000c6f78                HDiskImageBackupVar
 .bss.HEditorFirst
                0x00000000000c6f98        0x1 /tmp/ccwaw90K.ltrans5.ltrans.o
                0x00000000000c6f98                HEditorFirst
 .bss.HEditorMouseAction
                0x00000000000c6f99        0x1 /tmp/ccwaw90K.ltrans5.ltrans.o
                0x00000000000c6f99                HEditorMouseAction
 *fill*         0x00000000000c6f9a        0x6 
 .bss.HFileImageBackupVar
                0x00000000000c6fa0       0x18 /tmp/ccwaw90K.ltrans5.ltrans.o
                0x00000000000c6fa0                HFileImageBackupVar
 .bss.HMainEditor
                0x00000000000c6fb8       0x50 /tmp/ccwaw90K.ltrans5.ltrans.o
                0x00000000000c6fb8                HMainEditor
 .bss.HMainEditorBackupVar
                0x00000000000c7008       0x50 /tmp/ccwaw90K.ltrans5.ltrans.o
                0x00000000000c7008                HMainEditorBackupVar
 .bss.HMemImageBackupVar
                0x00000000000c7058       0x18 /tmp/ccwaw90K.ltrans5.ltrans.o
                0x00000000000c7058                HMemImageBackupVar
 .bss.MenuItems
                0x00000000000c7070        0x8 /tmp/ccwaw90K.ltrans5.ltrans.o
 .bss.NumItems  0x00000000000c7078        0x8 /tmp/ccwaw90K.ltrans5.ltrans.o
 .bss.StringSize
                0x00000000000c7080        0x8 /tmp/ccwaw90K.ltrans5.ltrans.o
                0x00000000000c7080                StringSize
 .bss.Title     0x00000000000c7088        0x8 /tmp/ccwaw90K.ltrans5.ltrans.o
                0x00000000000c7088                Title
 .bss.m64Init   0x00000000000c7090        0x1 /tmp/ccwaw90K.ltrans5.ltrans.o
 *fill*         0x00000000000c7091        0x7 
 .bss.mConfigSpace
                0x00000000000c7098        0x8 /tmp/ccwaw90K.ltrans5.ltrans.o
 .bss.mFreq     0x00000000000c70a0        0x8 /tmp/ccwaw90K.ltrans5.ltrans.o
 .bss.mHeap     0x00000000000c70a8      0x3fe /tmp/ccwaw90K.ltrans5.ltrans.o
 *fill*         0x00000000000c74a6        0x2 
 .bss.mHeapSize
                0x00000000000c74a8        0x4 /tmp/ccwaw90K.ltrans5.ltrans.o
 .bss.mHuffmanDepth
                0x00000000000c74ac        0x4 /tmp/ccwaw90K.ltrans5.ltrans.o
 .bss.mInit     0x00000000000c74b0        0x1 /tmp/ccwaw90K.ltrans5.ltrans.o
 *fill*         0x00000000000c74b1        0x1 
 .bss.mLeft     0x00000000000c74b2      0x7f6 /tmp/ccwaw90K.ltrans5.ltrans.o
 .bss.mLen      0x00000000000c7ca8        0x8 /tmp/ccwaw90K.ltrans5.ltrans.o
 .bss.mLenCnt   0x00000000000c7cb0       0x22 /tmp/ccwaw90K.ltrans5.ltrans.o
 *fill*         0x00000000000c7cd2        0x6 
 .bss.mNumberOfSmbios64BitStructures
                0x00000000000c7cd8        0x8 /tmp/ccwaw90K.ltrans5.ltrans.o
 .bss.mPrompt   0x00000000000c7ce0        0x8 /tmp/ccwaw90K.ltrans5.ltrans.o
                0x00000000000c7ce0                mPrompt
 .bss.mReturnString
                0x00000000000c7ce8        0x8 /tmp/ccwaw90K.ltrans5.ltrans.o
                0x00000000000c7ce8                mReturnString
 .bss.mRight    0x00000000000c7cf0      0x7f6 /tmp/ccwaw90K.ltrans5.ltrans.o
 *fill*         0x00000000000c84e6        0x2 
 .bss.mSmbios64BitStatisticsTable
                0x00000000000c84e8        0x8 /tmp/ccwaw90K.ltrans5.ltrans.o
 .bss.mSmbios64BitTable
                0x00000000000c84f0        0x8 /tmp/ccwaw90K.ltrans5.ltrans.o
 .bss.mSmbios64BitTableLength
                0x00000000000c84f8        0x8 /tmp/ccwaw90K.ltrans5.ltrans.o
 .bss.mSmbiosTable
                0x00000000000c8500        0x8 /tmp/ccwaw90K.ltrans5.ltrans.o
 .bss.mSortPtr  0x00000000000c8508        0x8 /tmp/ccwaw90K.ltrans5.ltrans.o
 .bss.mStatisticsTable
                0x00000000000c8510        0x8 /tmp/ccwaw90K.ltrans5.ltrans.o
 .bss.mTempInt32
                0x00000000000c8518        0x4 /tmp/ccwaw90K.ltrans5.ltrans.o
 *fill*         0x00000000000c851c        0x4 
 .bss.mTextInEx
                0x00000000000c8520        0x8 /tmp/ccwaw90K.ltrans5.ltrans.o
                0x00000000000c8520                mTextInEx
 .bss.m_Smbios64BitStruct
                0x00000000000c8528        0x8 /tmp/ccwaw90K.ltrans5.ltrans.o
 .bss.m_SmbiosStruct
                0x00000000000c8530        0x8 /tmp/ccwaw90K.ltrans5.ltrans.o
 .bss.CPos.10095
                0x00000000000c8538        0x4 /tmp/ccwaw90K.ltrans6.ltrans.o
 .bss.SmbiosMajorVersion
                0x00000000000c853c        0x1 /tmp/ccwaw90K.ltrans6.ltrans.o
                0x00000000000c853c                SmbiosMajorVersion
 .bss.SmbiosMinorVersion
                0x00000000000c853d        0x1 /tmp/ccwaw90K.ltrans6.ltrans.o
                0x00000000000c853d                SmbiosMinorVersion
 .bss.mAvail.lto_priv.150
                0x00000000000c853e        0x2 /tmp/ccwaw90K.ltrans6.ltrans.o
                0x00000000000c853e                mAvail.lto_priv.150
 .bss.mBitCount.lto_priv.136
                0x00000000000c8540        0x4 /tmp/ccwaw90K.ltrans6.ltrans.o
                0x00000000000c8540                mBitCount.lto_priv.136
 *fill*         0x00000000000c8544        0x4 
 .bss.mBuf.lto_priv.158
                0x00000000000c8548        0x8 /tmp/ccwaw90K.ltrans6.ltrans.o
                0x00000000000c8548                mBuf.lto_priv.158
 .bss.mBufSiz   0x00000000000c8550        0x4 /tmp/ccwaw90K.ltrans6.ltrans.o
 .bss.mCCode    0x00000000000c8554      0x3fc /tmp/ccwaw90K.ltrans6.ltrans.o
 .bss.mCFreq    0x00000000000c8950      0x7f6 /tmp/ccwaw90K.ltrans6.ltrans.o
 .bss.mCLen     0x00000000000c9146      0x1fe /tmp/ccwaw90K.ltrans6.ltrans.o
 *fill*         0x00000000000c9344        0x4 
 .bss.mChildCount.lto_priv.147
                0x00000000000c9348        0x8 /tmp/ccwaw90K.ltrans6.ltrans.o
                0x00000000000c9348                mChildCount.lto_priv.147
 .bss.mCompSize.lto_priv.140
                0x00000000000c9350        0x4 /tmp/ccwaw90K.ltrans6.ltrans.o
                0x00000000000c9350                mCompSize.lto_priv.140
 .bss.mCrc.lto_priv.154
                0x00000000000c9354        0x4 /tmp/ccwaw90K.ltrans6.ltrans.o
                0x00000000000c9354                mCrc.lto_priv.154
 .bss.mCrcTable.lto_priv.155
                0x00000000000c9358      0x200 /tmp/ccwaw90K.ltrans6.ltrans.o
                0x00000000000c9358                mCrcTable.lto_priv.155
 .bss.mDst.lto_priv.138
                0x00000000000c9558        0x8 /tmp/ccwaw90K.ltrans6.ltrans.o
                0x00000000000c9558                mDst.lto_priv.138
 .bss.mDstUpperLimit.lto_priv.139
                0x00000000000c9560        0x8 /tmp/ccwaw90K.ltrans6.ltrans.o
                0x00000000000c9560                mDstUpperLimit.lto_priv.139
 .bss.mLevel.lto_priv.149
                0x00000000000c9568        0x8 /tmp/ccwaw90K.ltrans6.ltrans.o
                0x00000000000c9568                mLevel.lto_priv.149
 .bss.mMatchLen.lto_priv.156
                0x00000000000c9570        0x4 /tmp/ccwaw90K.ltrans6.ltrans.o
                0x00000000000c9570                mMatchLen.lto_priv.156
 .bss.mMatchPos.lto_priv.157
                0x00000000000c9574        0x2 /tmp/ccwaw90K.ltrans6.ltrans.o
                0x00000000000c9574                mMatchPos.lto_priv.157
 *fill*         0x00000000000c9576        0x2 
 .bss.mNext.lto_priv.146
                0x00000000000c9578        0x8 /tmp/ccwaw90K.ltrans6.ltrans.o
                0x00000000000c9578                mNext.lto_priv.146
 .bss.mOrigSize.lto_priv.153
                0x00000000000c9580        0x4 /tmp/ccwaw90K.ltrans6.ltrans.o
                0x00000000000c9580                mOrigSize.lto_priv.153
 .bss.mOutputMask
                0x00000000000c9584        0x4 /tmp/ccwaw90K.ltrans6.ltrans.o
 .bss.mOutputPos
                0x00000000000c9588        0x4 /tmp/ccwaw90K.ltrans6.ltrans.o
 .bss.mPFreq    0x00000000000c958c       0x36 /tmp/ccwaw90K.ltrans6.ltrans.o
 .bss.mPTCode   0x00000000000c95c2       0x26 /tmp/ccwaw90K.ltrans6.ltrans.o
 .bss.mPTLen    0x00000000000c95e8       0x13 /tmp/ccwaw90K.ltrans6.ltrans.o
 *fill*         0x00000000000c95fb        0x5 
 .bss.mParent.lto_priv.144
                0x00000000000c9600        0x8 /tmp/ccwaw90K.ltrans6.ltrans.o
                0x00000000000c9600                mParent.lto_priv.144
 .bss.mPos.lto_priv.142
                0x00000000000c9608        0x2 /tmp/ccwaw90K.ltrans6.ltrans.o
                0x00000000000c9608                mPos.lto_priv.142
 *fill*         0x00000000000c960a        0x6 
 .bss.mPosition.lto_priv.148
                0x00000000000c9610        0x8 /tmp/ccwaw90K.ltrans6.ltrans.o
                0x00000000000c9610                mPosition.lto_priv.148
 .bss.mPrev.lto_priv.145
                0x00000000000c9618        0x8 /tmp/ccwaw90K.ltrans6.ltrans.o
                0x00000000000c9618                mPrev.lto_priv.145
 .bss.mRemainder.lto_priv.141
                0x00000000000c9620        0x4 /tmp/ccwaw90K.ltrans6.ltrans.o
                0x00000000000c9620                mRemainder.lto_priv.141
 *fill*         0x00000000000c9624        0x4 
 .bss.mSrc.lto_priv.151
                0x00000000000c9628        0x8 /tmp/ccwaw90K.ltrans6.ltrans.o
                0x00000000000c9628                mSrc.lto_priv.151
 .bss.mSrcUpperLimit.lto_priv.152
                0x00000000000c9630        0x8 /tmp/ccwaw90K.ltrans6.ltrans.o
                0x00000000000c9630                mSrcUpperLimit.lto_priv.152
 .bss.mSubBitBuf.lto_priv.137
                0x00000000000c9638        0x4 /tmp/ccwaw90K.ltrans6.ltrans.o
                0x00000000000c9638                mSubBitBuf.lto_priv.137
 .bss.mTFreq    0x00000000000c963c       0x4a /tmp/ccwaw90K.ltrans6.ltrans.o
 *fill*         0x00000000000c9686        0x2 
 .bss.mText.lto_priv.143
                0x00000000000c9688        0x8 /tmp/ccwaw90K.ltrans6.ltrans.o
                0x00000000000c9688                mText.lto_priv.143
 .bss.FileFunctionMap
                0x00000000000c9690       0x50 /tmp/ccwaw90K.ltrans7.ltrans.o
                0x00000000000c9690                FileFunctionMap
 .bss.HBufferImage
                0x00000000000c96e0       0x78 /tmp/ccwaw90K.ltrans7.ltrans.o
                0x00000000000c96e0                HBufferImage
 .bss.HFileImage
                0x00000000000c9758       0x18 /tmp/ccwaw90K.ltrans7.ltrans.o
                0x00000000000c9758                HFileImage
 .bss.HMemImage
                0x00000000000c9770       0x18 /tmp/ccwaw90K.ltrans7.ltrans.o
                0x00000000000c9770                HMemImage
 .bss.StatusBarNeedRefresh
                0x00000000000c9788        0x1 /tmp/ccwaw90K.ltrans7.ltrans.o
                0x00000000000c9788                StatusBarNeedRefresh
 *fill*         0x00000000000c9789        0x7 
 .bss.StatusString
                0x00000000000c9790        0x8 /tmp/ccwaw90K.ltrans7.ltrans.o
                0x00000000000c9790                StatusString
 .bss.StatusStringChanged
                0x00000000000c9798        0x1 /tmp/ccwaw90K.ltrans7.ltrans.o
                0x00000000000c9798                StatusStringChanged
 *fill*         0x00000000000c9799        0x7 
 .bss.gBS       0x00000000000c97a0        0x8 /tmp/ccwaw90K.ltrans7.ltrans.o
                0x00000000000c97a0                gBS
 .bss.gEfiShellParametersProtocol
                0x00000000000c97a8        0x8 /tmp/ccwaw90K.ltrans7.ltrans.o
                0x00000000000c97a8                gEfiShellParametersProtocol
 .bss.gEfiShellProtocol
                0x00000000000c97b0        0x8 /tmp/ccwaw90K.ltrans7.ltrans.o
                0x00000000000c97b0                gEfiShellProtocol
 .bss.gHiiDatabase
                0x00000000000c97b8        0x8 /tmp/ccwaw90K.ltrans7.ltrans.o
                0x00000000000c97b8                gHiiDatabase
 .bss.gImageHandle
                0x00000000000c97c0        0x8 /tmp/ccwaw90K.ltrans7.ltrans.o
                0x00000000000c97c0                gImageHandle
 .bss.gST       0x00000000000c97c8        0x8 /tmp/ccwaw90K.ltrans7.ltrans.o
                0x00000000000c97c8                gST
 .bss.gShellBcfgHiiHandle.lto_priv.135
                0x00000000000c97d0        0x8 /tmp/ccwaw90K.ltrans7.ltrans.o
                0x00000000000c97d0                gShellBcfgHiiHandle.lto_priv.135
 .bss.gShellDebug1HiiHandle
                0x00000000000c97d8        0x8 /tmp/ccwaw90K.ltrans7.ltrans.o
                0x00000000000c97d8                gShellDebug1HiiHandle
 .bss.gShellMapList
                0x00000000000c97e0       0x30 /tmp/ccwaw90K.ltrans7.ltrans.o
                0x00000000000c97e0                gShellMapList
 .bss.gUnicodeCollation
                0x00000000000c9810        0x8 /tmp/ccwaw90K.ltrans7.ltrans.o
                0x00000000000c9810                gUnicodeCollation
 .bss.mCommandList.lto_priv.189
                0x00000000000c9818       0x40 /tmp/ccwaw90K.ltrans7.ltrans.o
                0x00000000000c9818                mCommandList.lto_priv.189
 .bss.mEchoState.lto_priv.190
                0x00000000000c9858        0x1 /tmp/ccwaw90K.ltrans7.ltrans.o
                0x00000000000c9858                mEchoState.lto_priv.190
 *fill*         0x00000000000c9859        0x7 
 .bss.mEfiShellEnvironment2
                0x00000000000c9860        0x8 /tmp/ccwaw90K.ltrans7.ltrans.o
                0x00000000000c9860                mEfiShellEnvironment2
 .bss.mEfiShellEnvironment2Handle
                0x00000000000c9868        0x8 /tmp/ccwaw90K.ltrans7.ltrans.o
                0x00000000000c9868                mEfiShellEnvironment2Handle
 .bss.mEfiShellInterface
                0x00000000000c9870        0x8 /tmp/ccwaw90K.ltrans7.ltrans.o
                0x00000000000c9870                mEfiShellInterface
 .bss.mExitCode.lto_priv.197
                0x00000000000c9878        0x8 /tmp/ccwaw90K.ltrans7.ltrans.o
                0x00000000000c9878                mExitCode.lto_priv.197
 .bss.mExitRequested.lto_priv.195
                0x00000000000c9880        0x1 /tmp/ccwaw90K.ltrans7.ltrans.o
                0x00000000000c9880                mExitRequested.lto_priv.195
 .bss.mExitScript.lto_priv.196
                0x00000000000c9881        0x1 /tmp/ccwaw90K.ltrans7.ltrans.o
                0x00000000000c9881                mExitScript.lto_priv.196
 *fill*         0x00000000000c9882        0x6 
 .bss.mShellManDriverHandle
                0x00000000000c9888        0x8 /tmp/ccwaw90K.ltrans7.ltrans.o
 .bss.mShellManHiiHandle
                0x00000000000c9890        0x8 /tmp/ccwaw90K.ltrans7.ltrans.o
 .bss.gRT       0x00000000000c9898        0x8 /tmp/ccwaw90K.ltrans8.ltrans.o
                0x00000000000c9898                gRT

.igot.plt       0x00000000000c98a0        0x0
 .igot.plt      0x00000000000c98a0        0x0 /home/uwe/git/ms/iot_core_tx8mmini/mu_platform_nxp/Build/TX8M_MINI_EVK_1GB/RELEASE_GCC5/AARCH64/ArmPkg/Library/ArmLib/ArmBaseLib/OUTPUT/ArmBaseLib.lib(AArch64Support.obj)

.eh_frame
 *(.eh_frame)

.rela           0x00000000000c98a0        0x0
 *(.rela .rela.*)
 .rela.iplt     0x00000000000c98a0        0x0 /home/uwe/git/ms/iot_core_tx8mmini/mu_platform_nxp/Build/TX8M_MINI_EVK_1GB/RELEASE_GCC5/AARCH64/ArmPkg/Library/ArmLib/ArmBaseLib/OUTPUT/ArmBaseLib.lib(AArch64Support.obj)

.hii
 *(.hii)

.build-id       0x00000000000c98a0       0x24
 *(.note.gnu.build-id)
 .note.gnu.build-id
                0x00000000000c98a0       0x24 /home/uwe/git/ms/iot_core_tx8mmini/mu_platform_nxp/Silicon/ARM/MU_TIANO/ArmPkg/Library/GccLto/liblto-aarch64.a

/DISCARD/
 *(.note.GNU-stack)
 *(.gnu_debuglink)
 *(.interp)
 *(.dynsym)
 *(.dynstr)
 *(.dynamic)
 *(.hash .gnu.hash)
 *(.comment)
 *(COMMON)
                0x0000000000000228                PECOFF_HEADER_SIZE = 0x228
OUTPUT(/home/uwe/git/ms/iot_core_tx8mmini/mu_platform_nxp/Build/TX8M_MINI_EVK_1GB/RELEASE_GCC5/AARCH64/ShellPkg/Application/Shell/Shell/DEBUG/Shell.dll elf64-littleaarch64)

.debug_info     0x0000000000000000    0xa7bc8
 .debug_info    0x0000000000000000    0x18e2e /tmp/ccwaw90K.ltrans0.ltrans.o
 .debug_info    0x0000000000018e2e    0x11919 /tmp/ccwaw90K.ltrans1.ltrans.o
 .debug_info    0x000000000002a747    0x1bade /tmp/ccwaw90K.ltrans2.ltrans.o
 .debug_info    0x0000000000046225    0x140b4 /tmp/ccwaw90K.ltrans3.ltrans.o
 .debug_info    0x000000000005a2d9    0x10310 /tmp/ccwaw90K.ltrans4.ltrans.o
 .debug_info    0x000000000006a5e9    0x16171 /tmp/ccwaw90K.ltrans5.ltrans.o
 .debug_info    0x000000000008075a    0x12d9e /tmp/ccwaw90K.ltrans6.ltrans.o
 .debug_info    0x00000000000934f8     0xb496 /tmp/ccwaw90K.ltrans7.ltrans.o
 .debug_info    0x000000000009e98e     0x923a /tmp/ccwaw90K.ltrans8.ltrans.o

.debug_abbrev   0x0000000000000000     0x3b0c
 .debug_abbrev  0x0000000000000000      0x821 /tmp/ccwaw90K.ltrans0.ltrans.o
 .debug_abbrev  0x0000000000000821      0x5e7 /tmp/ccwaw90K.ltrans1.ltrans.o
 .debug_abbrev  0x0000000000000e08      0x7ec /tmp/ccwaw90K.ltrans2.ltrans.o
 .debug_abbrev  0x00000000000015f4      0x70b /tmp/ccwaw90K.ltrans3.ltrans.o
 .debug_abbrev  0x0000000000001cff      0x6be /tmp/ccwaw90K.ltrans4.ltrans.o
 .debug_abbrev  0x00000000000023bd      0x761 /tmp/ccwaw90K.ltrans5.ltrans.o
 .debug_abbrev  0x0000000000002b1e      0x479 /tmp/ccwaw90K.ltrans6.ltrans.o
 .debug_abbrev  0x0000000000002f97      0x59a /tmp/ccwaw90K.ltrans7.ltrans.o
 .debug_abbrev  0x0000000000003531      0x5db /tmp/ccwaw90K.ltrans8.ltrans.o

.debug_loc      0x0000000000000000    0x810d1
 .debug_loc     0x0000000000000000    0x15a99 /tmp/ccwaw90K.ltrans0.ltrans.o
 .debug_loc     0x0000000000015a99     0xdd2e /tmp/ccwaw90K.ltrans1.ltrans.o
 .debug_loc     0x00000000000237c7    0x18013 /tmp/ccwaw90K.ltrans2.ltrans.o
 .debug_loc     0x000000000003b7da    0x109d4 /tmp/ccwaw90K.ltrans3.ltrans.o
 .debug_loc     0x000000000004c1ae     0xf42c /tmp/ccwaw90K.ltrans4.ltrans.o
 .debug_loc     0x000000000005b5da    0x10c04 /tmp/ccwaw90K.ltrans5.ltrans.o
 .debug_loc     0x000000000006c1de     0x6183 /tmp/ccwaw90K.ltrans6.ltrans.o
 .debug_loc     0x0000000000072361     0x9136 /tmp/ccwaw90K.ltrans7.ltrans.o
 .debug_loc     0x000000000007b497     0x5c3a /tmp/ccwaw90K.ltrans8.ltrans.o

.debug_aranges  0x0000000000000000     0x34f0
 .debug_aranges
                0x0000000000000000      0xa70 /tmp/ccwaw90K.ltrans0.ltrans.o
 .debug_aranges
                0x0000000000000a70      0x380 /tmp/ccwaw90K.ltrans1.ltrans.o
 .debug_aranges
                0x0000000000000df0     0x1210 /tmp/ccwaw90K.ltrans2.ltrans.o
 .debug_aranges
                0x0000000000002000      0x590 /tmp/ccwaw90K.ltrans3.ltrans.o
 .debug_aranges
                0x0000000000002590      0x410 /tmp/ccwaw90K.ltrans4.ltrans.o
 .debug_aranges
                0x00000000000029a0      0x4f0 /tmp/ccwaw90K.ltrans5.ltrans.o
 .debug_aranges
                0x0000000000002e90       0xc0 /tmp/ccwaw90K.ltrans6.ltrans.o
 .debug_aranges
                0x0000000000002f50      0x330 /tmp/ccwaw90K.ltrans7.ltrans.o
 .debug_aranges
                0x0000000000003280      0x270 /tmp/ccwaw90K.ltrans8.ltrans.o

.debug_ranges   0x0000000000000000     0xf9b0
 .debug_ranges  0x0000000000000000     0x2eb0 /tmp/ccwaw90K.ltrans0.ltrans.o
 .debug_ranges  0x0000000000002eb0     0x1790 /tmp/ccwaw90K.ltrans1.ltrans.o
 .debug_ranges  0x0000000000004640     0x2300 /tmp/ccwaw90K.ltrans2.ltrans.o
 .debug_ranges  0x0000000000006940     0x15b0 /tmp/ccwaw90K.ltrans3.ltrans.o
 .debug_ranges  0x0000000000007ef0     0x1df0 /tmp/ccwaw90K.ltrans4.ltrans.o
 .debug_ranges  0x0000000000009ce0     0x1860 /tmp/ccwaw90K.ltrans5.ltrans.o
 .debug_ranges  0x000000000000b540     0x2a50 /tmp/ccwaw90K.ltrans6.ltrans.o
 .debug_ranges  0x000000000000df90      0xc50 /tmp/ccwaw90K.ltrans7.ltrans.o
 .debug_ranges  0x000000000000ebe0      0xdd0 /tmp/ccwaw90K.ltrans8.ltrans.o

.debug_line     0x0000000000000000    0x17fc2
 .debug_line    0x0000000000000000     0x44aa /tmp/ccwaw90K.ltrans0.ltrans.o
 .debug_line    0x00000000000044aa     0x2735 /tmp/ccwaw90K.ltrans1.ltrans.o
 .debug_line    0x0000000000006bdf     0x45d1 /tmp/ccwaw90K.ltrans2.ltrans.o
 .debug_line    0x000000000000b1b0     0x2831 /tmp/ccwaw90K.ltrans3.ltrans.o
 .debug_line    0x000000000000d9e1     0x2d76 /tmp/ccwaw90K.ltrans4.ltrans.o
 .debug_line    0x0000000000010757     0x29a4 /tmp/ccwaw90K.ltrans5.ltrans.o
 .debug_line    0x00000000000130fb     0x164b /tmp/ccwaw90K.ltrans6.ltrans.o
 .debug_line    0x0000000000014746     0x21ec /tmp/ccwaw90K.ltrans7.ltrans.o
 .debug_line    0x0000000000016932     0x1690 /tmp/ccwaw90K.ltrans8.ltrans.o

.debug_str      0x0000000000000000    0x1cb7f
 .debug_str     0x0000000000000000     0x67ba /tmp/ccwaw90K.ltrans0.ltrans.o
                                       0x769c (size before relaxing)
 .debug_str     0x00000000000067ba     0x2148 /tmp/ccwaw90K.ltrans1.ltrans.o
                                       0x4d20 (size before relaxing)
 .debug_str     0x0000000000008902     0x4be5 /tmp/ccwaw90K.ltrans2.ltrans.o
                                       0x8eee (size before relaxing)
 .debug_str     0x000000000000d4e7     0x384c /tmp/ccwaw90K.ltrans3.ltrans.o
                                       0x7765 (size before relaxing)
 .debug_str     0x0000000000010d33     0x2159 /tmp/ccwaw90K.ltrans4.ltrans.o
                                       0x54de (size before relaxing)
 .debug_str     0x0000000000012e8c     0x5a7d /tmp/ccwaw90K.ltrans5.ltrans.o
                                       0x98b5 (size before relaxing)
 .debug_str     0x0000000000018909     0x1a69 /tmp/ccwaw90K.ltrans6.ltrans.o
                                       0x441e (size before relaxing)
 .debug_str     0x000000000001a372     0x155b /tmp/ccwaw90K.ltrans7.ltrans.o
                                       0x53f2 (size before relaxing)
 .debug_str     0x000000000001b8cd     0x12b2 /tmp/ccwaw90K.ltrans8.ltrans.o
                                       0x3800 (size before relaxing)

.debug_frame    0x0000000000000000     0xa958
 .debug_frame   0x0000000000000000     0x2070 /tmp/ccwaw90K.ltrans0.ltrans.o
 .debug_frame   0x0000000000002070      0xd70 /tmp/ccwaw90K.ltrans1.ltrans.o
 .debug_frame   0x0000000000002de0     0x33c0 /tmp/ccwaw90K.ltrans2.ltrans.o
 .debug_frame   0x00000000000061a0     0x13a8 /tmp/ccwaw90K.ltrans3.ltrans.o
 .debug_frame   0x0000000000007548      0xf18 /tmp/ccwaw90K.ltrans4.ltrans.o
 .debug_frame   0x0000000000008460     0x1140 /tmp/ccwaw90K.ltrans5.ltrans.o
 .debug_frame   0x00000000000095a0      0x280 /tmp/ccwaw90K.ltrans6.ltrans.o
 .debug_frame   0x0000000000009820      0xa90 /tmp/ccwaw90K.ltrans7.ltrans.o
 .debug_frame   0x000000000000a2b0      0x6a8 /tmp/ccwaw90K.ltrans8.ltrans.o
